
2-blink.elf:     file format elf32-littlearm


Disassembly of section .text:

00008000 <_start>:
    8000:	e3a0d302 	mov	sp, #134217728	; 0x8000000
    8004:	eb000005 	bl	8020 <notmain>

00008008 <hang>:
    8008:	eafffffe 	b	8008 <hang>

0000800c <PUT32>:
    800c:	e5801000 	str	r1, [r0]
    8010:	e12fff1e 	bx	lr

00008014 <GET32>:
    8014:	e5900000 	ldr	r0, [r0]
    8018:	e12fff1e 	bx	lr

0000801c <nop>:
    801c:	e12fff1e 	bx	lr

00008020 <notmain>:
    8020:	e92d41f0 	push	{r4, r5, r6, r7, r8, lr}
    8024:	e3a00014 	mov	r0, #20, 0
    8028:	eb000015 	bl	8084 <gpio_set_output>
    802c:	e3a00015 	mov	r0, #21, 0
    8030:	eb000013 	bl	8084 <gpio_set_output>
    8034:	e3a0400a 	mov	r4, #10, 0
    8038:	e3a07014 	mov	r7, #20, 0
    803c:	e3a06015 	mov	r6, #21, 0
    8040:	e59f5038 	ldr	r5, [pc, #56]	; 8080 <notmain+0x60>
    8044:	e1a00007 	mov	r0, r7
    8048:	eb000054 	bl	81a0 <gpio_set_on>
    804c:	e1a00006 	mov	r0, r6
    8050:	eb00005b 	bl	81c4 <gpio_set_off>
    8054:	e1a00005 	mov	r0, r5
    8058:	eb0000b4 	bl	8330 <delay_cycles>
    805c:	e1a00007 	mov	r0, r7
    8060:	eb000057 	bl	81c4 <gpio_set_off>
    8064:	e1a00006 	mov	r0, r6
    8068:	eb00004c 	bl	81a0 <gpio_set_on>
    806c:	e1a00005 	mov	r0, r5
    8070:	eb0000ae 	bl	8330 <delay_cycles>
    8074:	e2544001 	subs	r4, r4, #1, 0
    8078:	1afffff1 	bne	8044 <notmain+0x24>
    807c:	e8bd81f0 	pop	{r4, r5, r6, r7, r8, pc}
    8080:	002dc6c0 	eoreq	ip, sp, r0, asr #13

00008084 <gpio_set_output>:
    8084:	e350001f 	cmp	r0, #31, 0
    8088:	812fff1e 	bxhi	lr
    808c:	e92d4010 	push	{r4, lr}
    8090:	e24dd010 	sub	sp, sp, #16, 0
    8094:	e1a04000 	mov	r4, r0
    8098:	e3500009 	cmp	r0, #9, 0
    809c:	9a000011 	bls	80e8 <gpio_set_output+0x64>
    80a0:	e3500013 	cmp	r0, #19, 0
    80a4:	9a00001d 	bls	8120 <gpio_set_output+0x9c>
    80a8:	e350001d 	cmp	r0, #29, 0
    80ac:	8a000029 	bhi	8158 <gpio_set_output+0xd4>
    80b0:	e59f30d8 	ldr	r3, [pc, #216]	; 8190 <gpio_set_output+0x10c>
    80b4:	e58d3008 	str	r3, [sp, #8]
    80b8:	e59d0008 	ldr	r0, [sp, #8]
    80bc:	ebffffd4 	bl	8014 <GET32>
    80c0:	e1a03000 	mov	r3, r0
    80c4:	e0844084 	add	r4, r4, r4, lsl #1
    80c8:	e244403c 	sub	r4, r4, #60, 0	; 0x3c
    80cc:	e59d0008 	ldr	r0, [sp, #8]
    80d0:	e3a01007 	mov	r1, #7, 0
    80d4:	e1c33411 	bic	r3, r3, r1, lsl r4
    80d8:	e3a01001 	mov	r1, #1, 0
    80dc:	e1831411 	orr	r1, r3, r1, lsl r4
    80e0:	ebffffc9 	bl	800c <PUT32>
    80e4:	ea00000b 	b	8118 <gpio_set_output+0x94>
    80e8:	e59f30a4 	ldr	r3, [pc, #164]	; 8194 <gpio_set_output+0x110>
    80ec:	e58d3000 	str	r3, [sp]
    80f0:	e59d0000 	ldr	r0, [sp]
    80f4:	ebffffc6 	bl	8014 <GET32>
    80f8:	e1a03000 	mov	r3, r0
    80fc:	e0844084 	add	r4, r4, r4, lsl #1
    8100:	e59d0000 	ldr	r0, [sp]
    8104:	e3a01007 	mov	r1, #7, 0
    8108:	e1c33411 	bic	r3, r3, r1, lsl r4
    810c:	e3a01001 	mov	r1, #1, 0
    8110:	e1831411 	orr	r1, r3, r1, lsl r4
    8114:	ebffffbc 	bl	800c <PUT32>
    8118:	e28dd010 	add	sp, sp, #16, 0
    811c:	e8bd8010 	pop	{r4, pc}
    8120:	e59f3070 	ldr	r3, [pc, #112]	; 8198 <gpio_set_output+0x114>
    8124:	e58d3004 	str	r3, [sp, #4]
    8128:	e59d0004 	ldr	r0, [sp, #4]
    812c:	ebffffb8 	bl	8014 <GET32>
    8130:	e1a03000 	mov	r3, r0
    8134:	e0844084 	add	r4, r4, r4, lsl #1
    8138:	e244401e 	sub	r4, r4, #30, 0
    813c:	e59d0004 	ldr	r0, [sp, #4]
    8140:	e3a01007 	mov	r1, #7, 0
    8144:	e1c33411 	bic	r3, r3, r1, lsl r4
    8148:	e3a01001 	mov	r1, #1, 0
    814c:	e1831411 	orr	r1, r3, r1, lsl r4
    8150:	ebffffad 	bl	800c <PUT32>
    8154:	eaffffef 	b	8118 <gpio_set_output+0x94>
    8158:	e59f303c 	ldr	r3, [pc, #60]	; 819c <gpio_set_output+0x118>
    815c:	e58d300c 	str	r3, [sp, #12]
    8160:	e59d000c 	ldr	r0, [sp, #12]
    8164:	ebffffaa 	bl	8014 <GET32>
    8168:	e1a03000 	mov	r3, r0
    816c:	e0844084 	add	r4, r4, r4, lsl #1
    8170:	e244405a 	sub	r4, r4, #90, 0	; 0x5a
    8174:	e59d000c 	ldr	r0, [sp, #12]
    8178:	e3a01007 	mov	r1, #7, 0
    817c:	e1c33411 	bic	r3, r3, r1, lsl r4
    8180:	e3a01001 	mov	r1, #1, 0
    8184:	e1831411 	orr	r1, r3, r1, lsl r4
    8188:	ebffff9f 	bl	800c <PUT32>
    818c:	eaffffe1 	b	8118 <gpio_set_output+0x94>
    8190:	20200008 	eorcs	r0, r0, r8
    8194:	20200000 	eorcs	r0, r0, r0
    8198:	20200004 	eorcs	r0, r0, r4
    819c:	2020000c 	eorcs	r0, r0, ip

000081a0 <gpio_set_on>:
    81a0:	e350001f 	cmp	r0, #31, 0
    81a4:	812fff1e 	bxhi	lr
    81a8:	e92d4010 	push	{r4, lr}
    81ac:	e3a01001 	mov	r1, #1, 0
    81b0:	e1a01011 	lsl	r1, r1, r0
    81b4:	e59f0004 	ldr	r0, [pc, #4]	; 81c0 <gpio_set_on+0x20>
    81b8:	ebffff93 	bl	800c <PUT32>
    81bc:	e8bd8010 	pop	{r4, pc}
    81c0:	2020001c 	eorcs	r0, r0, ip, lsl r0

000081c4 <gpio_set_off>:
    81c4:	e350001f 	cmp	r0, #31, 0
    81c8:	812fff1e 	bxhi	lr
    81cc:	e92d4010 	push	{r4, lr}
    81d0:	e3a01001 	mov	r1, #1, 0
    81d4:	e1a01011 	lsl	r1, r1, r0
    81d8:	e59f0004 	ldr	r0, [pc, #4]	; 81e4 <gpio_set_off+0x20>
    81dc:	ebffff8a 	bl	800c <PUT32>
    81e0:	e8bd8010 	pop	{r4, pc}
    81e4:	20200028 	eorcs	r0, r0, r8, lsr #32

000081e8 <gpio_write>:
    81e8:	e92d4010 	push	{r4, lr}
    81ec:	e3510000 	cmp	r1, #0, 0
    81f0:	0a000001 	beq	81fc <gpio_write+0x14>
    81f4:	ebffffe9 	bl	81a0 <gpio_set_on>
    81f8:	e8bd8010 	pop	{r4, pc}
    81fc:	ebfffff0 	bl	81c4 <gpio_set_off>
    8200:	e8bd8010 	pop	{r4, pc}

00008204 <gpio_set_input>:
    8204:	e350001f 	cmp	r0, #31, 0
    8208:	812fff1e 	bxhi	lr
    820c:	e92d4010 	push	{r4, lr}
    8210:	e24dd010 	sub	sp, sp, #16, 0
    8214:	e1a04000 	mov	r4, r0
    8218:	e3500009 	cmp	r0, #9, 0
    821c:	9a00000f 	bls	8260 <gpio_set_input+0x5c>
    8220:	e3500013 	cmp	r0, #19, 0
    8224:	9a000019 	bls	8290 <gpio_set_input+0x8c>
    8228:	e350001d 	cmp	r0, #29, 0
    822c:	8a000023 	bhi	82c0 <gpio_set_input+0xbc>
    8230:	e59f30b8 	ldr	r3, [pc, #184]	; 82f0 <gpio_set_input+0xec>
    8234:	e58d3008 	str	r3, [sp, #8]
    8238:	e59d0008 	ldr	r0, [sp, #8]
    823c:	ebffff74 	bl	8014 <GET32>
    8240:	e59d3008 	ldr	r3, [sp, #8]
    8244:	e0844084 	add	r4, r4, r4, lsl #1
    8248:	e244403c 	sub	r4, r4, #60, 0	; 0x3c
    824c:	e3a01007 	mov	r1, #7, 0
    8250:	e1c01411 	bic	r1, r0, r1, lsl r4
    8254:	e1a00003 	mov	r0, r3
    8258:	ebffff6b 	bl	800c <PUT32>
    825c:	ea000009 	b	8288 <gpio_set_input+0x84>
    8260:	e59f308c 	ldr	r3, [pc, #140]	; 82f4 <gpio_set_input+0xf0>
    8264:	e58d3000 	str	r3, [sp]
    8268:	e59d0000 	ldr	r0, [sp]
    826c:	ebffff68 	bl	8014 <GET32>
    8270:	e59d3000 	ldr	r3, [sp]
    8274:	e0844084 	add	r4, r4, r4, lsl #1
    8278:	e3a01007 	mov	r1, #7, 0
    827c:	e1c01411 	bic	r1, r0, r1, lsl r4
    8280:	e1a00003 	mov	r0, r3
    8284:	ebffff60 	bl	800c <PUT32>
    8288:	e28dd010 	add	sp, sp, #16, 0
    828c:	e8bd8010 	pop	{r4, pc}
    8290:	e59f3060 	ldr	r3, [pc, #96]	; 82f8 <gpio_set_input+0xf4>
    8294:	e58d3004 	str	r3, [sp, #4]
    8298:	e59d0004 	ldr	r0, [sp, #4]
    829c:	ebffff5c 	bl	8014 <GET32>
    82a0:	e59d3004 	ldr	r3, [sp, #4]
    82a4:	e0844084 	add	r4, r4, r4, lsl #1
    82a8:	e244401e 	sub	r4, r4, #30, 0
    82ac:	e3a01007 	mov	r1, #7, 0
    82b0:	e1c01411 	bic	r1, r0, r1, lsl r4
    82b4:	e1a00003 	mov	r0, r3
    82b8:	ebffff53 	bl	800c <PUT32>
    82bc:	eafffff1 	b	8288 <gpio_set_input+0x84>
    82c0:	e59f3034 	ldr	r3, [pc, #52]	; 82fc <gpio_set_input+0xf8>
    82c4:	e58d300c 	str	r3, [sp, #12]
    82c8:	e59d000c 	ldr	r0, [sp, #12]
    82cc:	ebffff50 	bl	8014 <GET32>
    82d0:	e59d300c 	ldr	r3, [sp, #12]
    82d4:	e0844084 	add	r4, r4, r4, lsl #1
    82d8:	e244405a 	sub	r4, r4, #90, 0	; 0x5a
    82dc:	e3a01007 	mov	r1, #7, 0
    82e0:	e1c01411 	bic	r1, r0, r1, lsl r4
    82e4:	e1a00003 	mov	r0, r3
    82e8:	ebffff47 	bl	800c <PUT32>
    82ec:	eaffffe5 	b	8288 <gpio_set_input+0x84>
    82f0:	20200008 	eorcs	r0, r0, r8
    82f4:	20200000 	eorcs	r0, r0, r0
    82f8:	20200004 	eorcs	r0, r0, r4
    82fc:	2020000c 	eorcs	r0, r0, ip

00008300 <gpio_read>:
    8300:	e350001f 	cmp	r0, #31, 0
    8304:	9a000001 	bls	8310 <gpio_read+0x10>
    8308:	e3a00000 	mov	r0, #0, 0
    830c:	e12fff1e 	bx	lr
    8310:	e92d4010 	push	{r4, lr}
    8314:	e1a04000 	mov	r4, r0
    8318:	e59f000c 	ldr	r0, [pc, #12]	; 832c <gpio_read+0x2c>
    831c:	ebffff3c 	bl	8014 <GET32>
    8320:	e1a00450 	asr	r0, r0, r4
    8324:	e2000001 	and	r0, r0, #1, 0
    8328:	e8bd8010 	pop	{r4, pc}
    832c:	20200034 	eorcs	r0, r0, r4, lsr r0

00008330 <delay_cycles>:
    8330:	e92d4010 	push	{r4, lr}
    8334:	e2404001 	sub	r4, r0, #1, 0
    8338:	e3500000 	cmp	r0, #0, 0
    833c:	08bd8010 	popeq	{r4, pc}
    8340:	ebffff35 	bl	801c <nop>
    8344:	e2444001 	sub	r4, r4, #1, 0
    8348:	e3740001 	cmn	r4, #1, 0
    834c:	1afffffb 	bne	8340 <delay_cycles+0x10>
    8350:	e8bd8010 	pop	{r4, pc}

Disassembly of section .ARM.attributes:

00000000 <.ARM.attributes>:
   0:	00002a41 	andeq	r2, r0, r1, asr #20
   4:	61656100 	cmnvs	r5, r0, lsl #2
   8:	01006962 	tsteq	r0, r2, ror #18
   c:	00000020 	andeq	r0, r0, r0, lsr #32
  10:	4b5a3605 	blmi	168d82c <delay_cycles+0x16854fc>
  14:	08070600 	stmdaeq	r7, {r9, sl}
  18:	12010901 	andne	r0, r1, #16384	; 0x4000
  1c:	15011404 	strne	r1, [r1, #-1028]	; 0xfffffbfc
  20:	18031701 	stmdane	r3, {r0, r8, r9, sl, ip}
  24:	22011a01 	andcs	r1, r1, #4096	; 0x1000
  28:	Address 0x0000000000000028 is out of bounds.


Disassembly of section .comment:

00000000 <.comment>:
   0:	3a434347 	bcc	10d0d24 <delay_cycles+0x10c89f4>
   4:	4e472820 	cdpmi	8, 4, cr2, cr7, cr0, {1}
   8:	6f542055 	svcvs	0x00542055
   c:	20736c6f 	rsbscs	r6, r3, pc, ror #24
  10:	20726f66 	rsbscs	r6, r2, r6, ror #30
  14:	206d7241 	rsbcs	r7, sp, r1, asr #4
  18:	65626d45 	strbvs	r6, [r2, #-3397]!	; 0xfffff2bb
  1c:	64656464 	strbtvs	r6, [r5], #-1124	; 0xfffffb9c
  20:	6f725020 	svcvs	0x00725020
  24:	73736563 	cmnvc	r3, #415236096	; 0x18c00000
  28:	2073726f 	rsbscs	r7, r3, pc, ror #4
  2c:	30322d39 	eorscc	r2, r2, r9, lsr sp
  30:	712d3931 			; <UNDEFINED> instruction: 0x712d3931
  34:	616d2d34 	cmnvs	sp, r4, lsr sp
  38:	29726f6a 	ldmdbcs	r2!, {r1, r3, r5, r6, r8, r9, sl, fp, sp, lr}^
  3c:	322e3920 	eorcc	r3, lr, #32, 18	; 0x80000
  40:	3220312e 	eorcc	r3, r0, #-2147483637	; 0x8000000b
  44:	31393130 	teqcc	r9, r0, lsr r1
  48:	20353230 	eorscs	r3, r5, r0, lsr r2
  4c:	6c657228 	sfmvs	f7, 2, [r5], #-160	; 0xffffff60
  50:	65736165 	ldrbvs	r6, [r3, #-357]!	; 0xfffffe9b
  54:	415b2029 	cmpmi	fp, r9, lsr #32
  58:	612f4d52 			; <UNDEFINED> instruction: 0x612f4d52
  5c:	392d6d72 	pushcc	{r1, r4, r5, r6, r8, sl, fp, sp, lr}
  60:	6172622d 	cmnvs	r2, sp, lsr #4
  64:	2068636e 	rsbcs	r6, r8, lr, ror #6
  68:	69766572 	ldmdbvs	r6!, {r1, r4, r5, r6, r8, sl, sp, lr}^
  6c:	6e6f6973 			; <UNDEFINED> instruction: 0x6e6f6973
  70:	37373220 	ldrcc	r3, [r7, -r0, lsr #4]!
  74:	5d393935 			; <UNDEFINED> instruction: 0x5d393935
	...
