
objs/7-mini-step-diff.elf:     file format elf32-littlearm


Disassembly of section .text:

00008000 <__code_start__>:
    8000:	e3a00013 	mov	r0, #19, 0
    8004:	e3800080 	orr	r0, r0, #128, 0	; 0x80
    8008:	e129f000 	msr	CPSR_fc, r0
    800c:	e3a01000 	mov	r1, #0, 0
    8010:	ee071f95 	mcr	15, 0, r1, cr7, cr5, {4}
    8014:	e3a0d302 	mov	sp, #134217728	; 0x8000000
    8018:	e3a0b000 	mov	fp, #0, 0
    801c:	eb0007fb 	bl	a010 <_cstart>
    8020:	eb000856 	bl	a180 <rpi_reboot>

00008024 <PUT32>:
    8024:	e5801000 	str	r1, [r0]
    8028:	e12fff1e 	bx	lr

0000802c <GET32>:
    802c:	e5900000 	ldr	r0, [r0]
    8030:	e12fff1e 	bx	lr

00008034 <BRANCHTO>:
    8034:	e12fff10 	bx	r0

00008038 <nop_1>:
    8038:	e320f000 	nop	{0}
    803c:	e3a00000 	mov	r0, #0, 0
    8040:	ef000001 	svc	0x00000001

00008044 <nop_10>:
    8044:	e320f000 	nop	{0}
    8048:	e320f000 	nop	{0}
    804c:	e320f000 	nop	{0}
    8050:	e320f000 	nop	{0}
    8054:	e320f000 	nop	{0}
    8058:	e320f000 	nop	{0}
    805c:	e320f000 	nop	{0}
    8060:	e320f000 	nop	{0}
    8064:	e320f000 	nop	{0}
    8068:	e320f000 	nop	{0}
    806c:	e12fff1e 	bx	lr
    8070:	e3a0d409 	mov	sp, #150994944	; 0x9000000
    8074:	e24f0004 	sub	r0, pc, #4, 0
    8078:	e28f1000 	add	r1, pc, #0, 0
    807c:	ea000795 	b	9ed8 <asm_not_reached_helper>
    8080:	66617473 	.word	0x66617473
    8084:	74732d66 	.word	0x74732d66
    8088:	2e747261 	.word	0x2e747261
    808c:	35383a53 	.word	0x35383a53
    8090:	4f4e3c3a 	.word	0x4f4e3c3a
    8094:	45522054 	.word	0x45522054
    8098:	45484341 	.word	0x45484341
    809c:	3e44      	.short	0x3e44
	...

000080a0 <mov_ident>:
    80a0:	e3a00000 	mov	r0, #0, 0
    80a4:	e3a01001 	mov	r1, #1, 0
    80a8:	e3a02002 	mov	r2, #2, 0
    80ac:	e3a03003 	mov	r3, #3, 0
    80b0:	e3a04004 	mov	r4, #4, 0
    80b4:	e3a05005 	mov	r5, #5, 0
    80b8:	e3a06006 	mov	r6, #6, 0
    80bc:	e3a07007 	mov	r7, #7, 0
    80c0:	e3a08008 	mov	r8, #8, 0
    80c4:	e3a09009 	mov	r9, #9, 0
    80c8:	e3a0a00a 	mov	sl, #10, 0
    80cc:	e3a0b00b 	mov	fp, #11, 0
    80d0:	e3a0c00c 	mov	ip, #12, 0
    80d4:	e3a0d00d 	mov	sp, #13, 0
    80d8:	e12fff1e 	bx	lr
    80dc:	e3a0d409 	mov	sp, #150994944	; 0x9000000
    80e0:	e24f0004 	sub	r0, pc, #4, 0
    80e4:	e28f1000 	add	r1, pc, #0, 0
    80e8:	ea00077a 	b	9ed8 <asm_not_reached_helper>
    80ec:	66617473 	.word	0x66617473
    80f0:	74732d66 	.word	0x74732d66
    80f4:	2e747261 	.word	0x2e747261
    80f8:	30313a53 	.word	0x30313a53
    80fc:	4e3c3a33 	.word	0x4e3c3a33
    8100:	5220544f 	.word	0x5220544f
    8104:	48434145 	.word	0x48434145
    8108:	003e4445 	.word	0x003e4445

0000810c <step_handler_diff>:
    810c:	e92d47f0 	push	{r4, r5, r6, r7, r8, r9, sl, lr}
    8110:	e1a09001 	mov	r9, r1
    8114:	e5918004 	ldr	r8, [r1, #4]
    8118:	e59f40b4 	ldr	r4, [pc, #180]	; 81d4 <step_handler_diff+0xc8>
    811c:	e598203c 	ldr	r2, [r8, #60]	; 0x3c
    8120:	e5941000 	ldr	r1, [r4]
    8124:	e59f00ac 	ldr	r0, [pc, #172]	; 81d8 <step_handler_diff+0xcc>
    8128:	eb000661 	bl	9ab4 <printk>
    812c:	e5943000 	ldr	r3, [r4]
    8130:	e3530000 	cmp	r3, #0, 0
    8134:	13a04000 	movne	r4, #0, 0
    8138:	11a07004 	movne	r7, r4
    813c:	1a00000b 	bne	8170 <step_handler_diff+0x64>
    8140:	e59f0094 	ldr	r0, [pc, #148]	; 81dc <step_handler_diff+0xd0>
    8144:	eb00065a 	bl	9ab4 <printk>
    8148:	ea000015 	b	81a4 <step_handler_diff+0x98>
    814c:	e59f008c 	ldr	r0, [pc, #140]	; 81e0 <step_handler_diff+0xd4>
    8150:	eb000657 	bl	9ab4 <printk>
    8154:	e1a03006 	mov	r3, r6
    8158:	e1a02005 	mov	r2, r5
    815c:	e1a01004 	mov	r1, r4
    8160:	e59f007c 	ldr	r0, [pc, #124]	; 81e4 <step_handler_diff+0xd8>
    8164:	eb000652 	bl	9ab4 <printk>
    8168:	e2877001 	add	r7, r7, #1, 0
    816c:	e2844001 	add	r4, r4, #1, 0
    8170:	e354000e 	cmp	r4, #14, 0
    8174:	8a000008 	bhi	819c <step_handler_diff+0x90>
    8178:	e7986104 	ldr	r6, [r8, r4, lsl #2]
    817c:	e59f3050 	ldr	r3, [pc, #80]	; 81d4 <step_handler_diff+0xc8>
    8180:	e0833104 	add	r3, r3, r4, lsl #2
    8184:	e5935004 	ldr	r5, [r3, #4]
    8188:	e1560005 	cmp	r6, r5
    818c:	0afffff6 	beq	816c <step_handler_diff+0x60>
    8190:	e3570000 	cmp	r7, #0, 0
    8194:	1affffee 	bne	8154 <step_handler_diff+0x48>
    8198:	eaffffeb 	b	814c <step_handler_diff+0x40>
    819c:	e3570000 	cmp	r7, #0, 0
    81a0:	0a000008 	beq	81c8 <step_handler_diff+0xbc>
    81a4:	e59f4028 	ldr	r4, [pc, #40]	; 81d4 <step_handler_diff+0xc8>
    81a8:	e3a02044 	mov	r2, #68, 0	; 0x44
    81ac:	e5991004 	ldr	r1, [r9, #4]
    81b0:	e2840004 	add	r0, r4, #4, 0
    81b4:	eb0005eb 	bl	9968 <memcpy>
    81b8:	e5943000 	ldr	r3, [r4]
    81bc:	e2833001 	add	r3, r3, #1, 0
    81c0:	e5843000 	str	r3, [r4]
    81c4:	e8bd87f0 	pop	{r4, r5, r6, r7, r8, r9, sl, pc}
    81c8:	e59f0018 	ldr	r0, [pc, #24]	; 81e8 <step_handler_diff+0xdc>
    81cc:	eb000638 	bl	9ab4 <printk>
    81d0:	eafffff3 	b	81a4 <step_handler_diff+0x98>
    81d4:	0000bb68 	.word	0x0000bb68
    81d8:	0000a8d8 	.word	0x0000a8d8
    81dc:	0000a8f0 	.word	0x0000a8f0
    81e0:	0000ac54 	.word	0x0000ac54
    81e4:	0000a908 	.word	0x0000a908
    81e8:	0000a92c 	.word	0x0000a92c

000081ec <notmain>:
    81ec:	e92d4080 	push	{r7, lr}
    81f0:	e3a01301 	mov	r1, #67108864	; 0x4000000
    81f4:	e3a00601 	mov	r0, #1048576	; 0x100000
    81f8:	eb000822 	bl	a288 <kmalloc_init_set_start>
    81fc:	e59f50b0 	ldr	r5, [pc, #176]	; 82b4 <notmain+0xc8>
    8200:	e59f40b0 	ldr	r4, [pc, #176]	; 82b8 <notmain+0xcc>
    8204:	e1a01005 	mov	r1, r5
    8208:	e1a00004 	mov	r0, r4
    820c:	eb000628 	bl	9ab4 <printk>
    8210:	e59f00a4 	ldr	r0, [pc, #164]	; 82bc <notmain+0xd0>
    8214:	eb000626 	bl	9ab4 <printk>
    8218:	e1a01005 	mov	r1, r5
    821c:	e1a00004 	mov	r0, r4
    8220:	eb000623 	bl	9ab4 <printk>
    8224:	e59f0094 	ldr	r0, [pc, #148]	; 82c0 <notmain+0xd4>
    8228:	eb000621 	bl	9ab4 <printk>
    822c:	e3a01000 	mov	r1, #0, 0
    8230:	e59f008c 	ldr	r0, [pc, #140]	; 82c4 <notmain+0xd8>
    8234:	eb0001b2 	bl	8904 <mini_step_init>
    8238:	e1a01005 	mov	r1, r5
    823c:	e1a00004 	mov	r0, r4
    8240:	eb00061b 	bl	9ab4 <printk>
    8244:	e59f007c 	ldr	r0, [pc, #124]	; 82c8 <notmain+0xdc>
    8248:	eb000619 	bl	9ab4 <printk>
    824c:	e59f7078 	ldr	r7, [pc, #120]	; 82cc <notmain+0xe0>
    8250:	e3a06000 	mov	r6, #0, 0
    8254:	e5876000 	str	r6, [r7]
    8258:	e1a01006 	mov	r1, r6
    825c:	e59f006c 	ldr	r0, [pc, #108]	; 82d0 <notmain+0xe4>
    8260:	eb0001f8 	bl	8a48 <mini_step_run>
    8264:	e1a01005 	mov	r1, r5
    8268:	e1a00004 	mov	r0, r4
    826c:	eb000610 	bl	9ab4 <printk>
    8270:	e59f005c 	ldr	r0, [pc, #92]	; 82d4 <notmain+0xe8>
    8274:	eb00060e 	bl	9ab4 <printk>
    8278:	e1a01005 	mov	r1, r5
    827c:	e1a00004 	mov	r0, r4
    8280:	eb00060b 	bl	9ab4 <printk>
    8284:	e59f004c 	ldr	r0, [pc, #76]	; 82d8 <notmain+0xec>
    8288:	eb000609 	bl	9ab4 <printk>
    828c:	e5876000 	str	r6, [r7]
    8290:	e1a01006 	mov	r1, r6
    8294:	e59f0040 	ldr	r0, [pc, #64]	; 82dc <notmain+0xf0>
    8298:	eb0001ea 	bl	8a48 <mini_step_run>
    829c:	e1a01005 	mov	r1, r5
    82a0:	e1a00004 	mov	r0, r4
    82a4:	eb000602 	bl	9ab4 <printk>
    82a8:	e59f0030 	ldr	r0, [pc, #48]	; 82e0 <notmain+0xf4>
    82ac:	eb000600 	bl	9ab4 <printk>
    82b0:	eb00072f 	bl	9f74 <clean_reboot>
    82b4:	0000a9f4 	.word	0x0000a9f4
    82b8:	0000a93c 	.word	0x0000a93c
    82bc:	0000a948 	.word	0x0000a948
    82c0:	0000a978 	.word	0x0000a978
    82c4:	0000810c 	.word	0x0000810c
    82c8:	0000a99c 	.word	0x0000a99c
    82cc:	0000bb68 	.word	0x0000bb68
    82d0:	00008044 	.word	0x00008044
    82d4:	0000a9b4 	.word	0x0000a9b4
    82d8:	0000a9c4 	.word	0x0000a9c4
    82dc:	000080a0 	.word	0x000080a0
    82e0:	0000a9e0 	.word	0x0000a9e0

000082e4 <watchpt_fault>:
    82e4:	e92d4010 	push	{r4, lr}
    82e8:	e24dd018 	sub	sp, sp, #24, 0
    82ec:	ee153f30 	mrc	15, 0, r3, cr5, cr0, {1}
    82f0:	e203300f 	and	r3, r3, #15, 0
    82f4:	e3530002 	cmp	r3, #2, 0
    82f8:	0a000009 	beq	8324 <watchpt_fault+0x40>
    82fc:	ee153f10 	mrc	15, 0, r3, cr5, cr0, {0}
    8300:	e203300f 	and	r3, r3, #15, 0
    8304:	e3530002 	cmp	r3, #2, 0
    8308:	0a000010 	beq	8350 <watchpt_fault+0x6c>
    830c:	e3a03025 	mov	r3, #37, 0	; 0x25
    8310:	e59f2158 	ldr	r2, [pc, #344]	; 8470 <watchpt_fault+0x18c>
    8314:	e59f1158 	ldr	r1, [pc, #344]	; 8474 <watchpt_fault+0x190>
    8318:	e59f0158 	ldr	r0, [pc, #344]	; 8478 <watchpt_fault+0x194>
    831c:	eb0005e4 	bl	9ab4 <printk>
    8320:	eb000713 	bl	9f74 <clean_reboot>
    8324:	ee103e11 	mrc	14, 0, r3, cr0, cr1, {0}
    8328:	e1a03123 	lsr	r3, r3, #2
    832c:	e203300f 	and	r3, r3, #15, 0
    8330:	e3530001 	cmp	r3, #1, 0
    8334:	1afffff0 	bne	82fc <watchpt_fault+0x18>
    8338:	e3a03023 	mov	r3, #35, 0	; 0x23
    833c:	e59f212c 	ldr	r2, [pc, #300]	; 8470 <watchpt_fault+0x18c>
    8340:	e59f112c 	ldr	r1, [pc, #300]	; 8474 <watchpt_fault+0x190>
    8344:	e59f0130 	ldr	r0, [pc, #304]	; 847c <watchpt_fault+0x198>
    8348:	eb0005d9 	bl	9ab4 <printk>
    834c:	eb000708 	bl	9f74 <clean_reboot>
    8350:	ee103e11 	mrc	14, 0, r3, cr0, cr1, {0}
    8354:	e1a03123 	lsr	r3, r3, #2
    8358:	e203300f 	and	r3, r3, #15, 0
    835c:	e3530002 	cmp	r3, #2, 0
    8360:	1affffe9 	bne	830c <watchpt_fault+0x28>
    8364:	e59f3114 	ldr	r3, [pc, #276]	; 8480 <watchpt_fault+0x19c>
    8368:	e5933000 	ldr	r3, [r3]
    836c:	e3530000 	cmp	r3, #0, 0
    8370:	0a00000e 	beq	83b0 <watchpt_fault+0xcc>
    8374:	e3a01000 	mov	r1, #0, 0
    8378:	e58d100c 	str	r1, [sp, #12]
    837c:	ee103e16 	mrc	14, 0, r3, cr0, cr6, {0}
    8380:	e2433008 	sub	r3, r3, #8, 0
    8384:	e58d3008 	str	r3, [sp, #8]
    8388:	ee153f10 	mrc	15, 0, r3, cr5, cr0, {0}
    838c:	e3130b02 	tst	r3, #2048	; 0x800
    8390:	03a03001 	moveq	r3, #1, 0
    8394:	11a03001 	movne	r3, r1
    8398:	e58d3010 	str	r3, [sp, #16]
    839c:	e58d0014 	str	r0, [sp, #20]
    83a0:	ee103ef0 	mrc	14, 0, r3, cr0, cr0, {7}
    83a4:	e1a032a3 	lsr	r3, r3, #5
    83a8:	e203300f 	and	r3, r3, #15, 0
    83ac:	ea000007 	b	83d0 <watchpt_fault+0xec>
    83b0:	e3a03027 	mov	r3, #39, 0	; 0x27
    83b4:	e59f20b4 	ldr	r2, [pc, #180]	; 8470 <watchpt_fault+0x18c>
    83b8:	e59f10b4 	ldr	r1, [pc, #180]	; 8474 <watchpt_fault+0x190>
    83bc:	e59f00c0 	ldr	r0, [pc, #192]	; 8484 <watchpt_fault+0x1a0>
    83c0:	eb0005bb 	bl	9ab4 <printk>
    83c4:	eb0006ea 	bl	9f74 <clean_reboot>
    83c8:	e2811001 	add	r1, r1, #1, 0
    83cc:	e1a030a3 	lsr	r3, r3, #1
    83d0:	e3130001 	tst	r3, #1, 0
    83d4:	0afffffb 	beq	83c8 <watchpt_fault+0xe4>
    83d8:	ee104ed0 	mrc	14, 0, r4, cr0, cr0, {6}
    83dc:	e0814004 	add	r4, r1, r4
    83e0:	e59f00a0 	ldr	r0, [pc, #160]	; 8488 <watchpt_fault+0x1a4>
    83e4:	eb0005b2 	bl	9ab4 <printk>
    83e8:	e58d400c 	str	r4, [sp, #12]
    83ec:	e59d2008 	ldr	r2, [sp, #8]
    83f0:	e1a01004 	mov	r1, r4
    83f4:	e59f0090 	ldr	r0, [pc, #144]	; 848c <watchpt_fault+0x1a8>
    83f8:	eb0005ad 	bl	9ab4 <printk>
    83fc:	e59f307c 	ldr	r3, [pc, #124]	; 8480 <watchpt_fault+0x19c>
    8400:	e5932000 	ldr	r2, [r3]
    8404:	e28d1008 	add	r1, sp, #8, 0
    8408:	e5930004 	ldr	r0, [r3, #4]
    840c:	e12fff32 	blx	r2
    8410:	e59d0014 	ldr	r0, [sp, #20]
    8414:	e5903040 	ldr	r3, [r0, #64]	; 0x40
    8418:	e203301f 	and	r3, r3, #31, 0
    841c:	e3530012 	cmp	r3, #18, 0
    8420:	13530010 	cmpne	r3, #16, 0
    8424:	0a000005 	beq	8440 <watchpt_fault+0x15c>
    8428:	e3530017 	cmp	r3, #23, 0
    842c:	13530013 	cmpne	r3, #19, 0
    8430:	0a000002 	beq	8440 <watchpt_fault+0x15c>
    8434:	e353001f 	cmp	r3, #31, 0
    8438:	1353001b 	cmpne	r3, #27, 0
    843c:	1a000002 	bne	844c <watchpt_fault+0x168>
    8440:	e3530010 	cmp	r3, #16, 0
    8444:	0a000008 	beq	846c <watchpt_fault+0x188>
    8448:	eb0003d5 	bl	93a4 <switchto_priv_asm>
    844c:	e58d3004 	str	r3, [sp, #4]
    8450:	e58d3000 	str	r3, [sp]
    8454:	e3a03013 	mov	r3, #19, 0
    8458:	e59f2030 	ldr	r2, [pc, #48]	; 8490 <watchpt_fault+0x1ac>
    845c:	e59f1030 	ldr	r1, [pc, #48]	; 8494 <watchpt_fault+0x1b0>
    8460:	e59f0030 	ldr	r0, [pc, #48]	; 8498 <watchpt_fault+0x1b4>
    8464:	eb000592 	bl	9ab4 <printk>
    8468:	eb0006c1 	bl	9f74 <clean_reboot>
    846c:	eb0003bf 	bl	9370 <switchto_user_asm>
    8470:	0000abd8 	.word	0x0000abd8
    8474:	0000a9fc 	.word	0x0000a9fc
    8478:	0000aa3c 	.word	0x0000aa3c
    847c:	0000aa0c 	.word	0x0000aa0c
    8480:	0000bbb0 	.word	0x0000bbb0
    8484:	0000aa70 	.word	0x0000aa70
    8488:	0000aaac 	.word	0x0000aaac
    848c:	0000aab8 	.word	0x0000aab8
    8490:	0000abe8 	.word	0x0000abe8
    8494:	0000aadc 	.word	0x0000aadc
    8498:	0000aae8 	.word	0x0000aae8

0000849c <mini_watch_init>:
    849c:	e92d4030 	push	{r4, r5, lr}
    84a0:	e24dd00c 	sub	sp, sp, #12, 0
    84a4:	e1a05000 	mov	r5, r0
    84a8:	e1a04001 	mov	r4, r1
    84ac:	e3a00000 	mov	r0, #0, 0
    84b0:	eb000339 	bl	919c <full_except_install>
    84b4:	e59f00cc 	ldr	r0, [pc, #204]	; 8588 <mini_watch_init+0xec>
    84b8:	eb00032b 	bl	916c <full_except_set_data_abort>
    84bc:	ee103e11 	mrc	14, 0, r3, cr0, cr1, {0}
    84c0:	e1a03723 	lsr	r3, r3, #14
    84c4:	e2033003 	and	r3, r3, #3, 0
    84c8:	e3530002 	cmp	r3, #2, 0
    84cc:	0a00000a 	beq	84fc <mini_watch_init+0x60>
    84d0:	ee103e11 	mrc	14, 0, r3, cr0, cr1, {0}
    84d4:	e3c33903 	bic	r3, r3, #49152	; 0xc000
    84d8:	e3833902 	orr	r3, r3, #32768	; 0x8000
    84dc:	ee003e11 	mcr	14, 0, r3, cr0, cr1, {0}
    84e0:	e3a03000 	mov	r3, #0, 0
    84e4:	ee073f95 	mcr	15, 0, r3, cr7, cr5, {4}
    84e8:	ee103e11 	mrc	14, 0, r3, cr0, cr1, {0}
    84ec:	e1a03723 	lsr	r3, r3, #14
    84f0:	e2033003 	and	r3, r3, #3, 0
    84f4:	e3530002 	cmp	r3, #2, 0
    84f8:	1a00000a 	bne	8528 <mini_watch_init+0x8c>
    84fc:	ee103eb0 	mrc	14, 0, r3, cr0, cr0, {5}
    8500:	e3130001 	tst	r3, #1, 0
    8504:	1a00000f 	bne	8548 <mini_watch_init+0xac>
    8508:	ee103eb0 	mrc	14, 0, r3, cr0, cr0, {5}
    850c:	e3130001 	tst	r3, #1, 0
    8510:	1a000014 	bne	8568 <mini_watch_init+0xcc>
    8514:	e59f3070 	ldr	r3, [pc, #112]	; 858c <mini_watch_init+0xf0>
    8518:	e5835000 	str	r5, [r3]
    851c:	e5834004 	str	r4, [r3, #4]
    8520:	e28dd00c 	add	sp, sp, #12, 0
    8524:	e8bd8030 	pop	{r4, r5, pc}
    8528:	e59f3060 	ldr	r3, [pc, #96]	; 8590 <mini_watch_init+0xf4>
    852c:	e58d3000 	str	r3, [sp]
    8530:	e3a030a6 	mov	r3, #166, 0	; 0xa6
    8534:	e59f2058 	ldr	r2, [pc, #88]	; 8594 <mini_watch_init+0xf8>
    8538:	e59f1058 	ldr	r1, [pc, #88]	; 8598 <mini_watch_init+0xfc>
    853c:	e59f0058 	ldr	r0, [pc, #88]	; 859c <mini_watch_init+0x100>
    8540:	eb00055b 	bl	9ab4 <printk>
    8544:	eb00068a 	bl	9f74 <clean_reboot>
    8548:	e59f3050 	ldr	r3, [pc, #80]	; 85a0 <mini_watch_init+0x104>
    854c:	e58d3000 	str	r3, [sp]
    8550:	e3a0305b 	mov	r3, #91, 0	; 0x5b
    8554:	e59f2048 	ldr	r2, [pc, #72]	; 85a4 <mini_watch_init+0x108>
    8558:	e59f1048 	ldr	r1, [pc, #72]	; 85a8 <mini_watch_init+0x10c>
    855c:	e59f0038 	ldr	r0, [pc, #56]	; 859c <mini_watch_init+0x100>
    8560:	eb000553 	bl	9ab4 <printk>
    8564:	eb000682 	bl	9f74 <clean_reboot>
    8568:	e59f3030 	ldr	r3, [pc, #48]	; 85a0 <mini_watch_init+0x104>
    856c:	e58d3000 	str	r3, [sp]
    8570:	e3a0305c 	mov	r3, #92, 0	; 0x5c
    8574:	e59f2028 	ldr	r2, [pc, #40]	; 85a4 <mini_watch_init+0x108>
    8578:	e59f1028 	ldr	r1, [pc, #40]	; 85a8 <mini_watch_init+0x10c>
    857c:	e59f0018 	ldr	r0, [pc, #24]	; 859c <mini_watch_init+0x100>
    8580:	eb00054b 	bl	9ab4 <printk>
    8584:	eb00067a 	bl	9f74 <clean_reboot>
    8588:	000082e4 	.word	0x000082e4
    858c:	0000bbb0 	.word	0x0000bbb0
    8590:	0000ab58 	.word	0x0000ab58
    8594:	0000abf4 	.word	0x0000abf4
    8598:	0000ab14 	.word	0x0000ab14
    859c:	0000ab28 	.word	0x0000ab28
    85a0:	0000ab6c 	.word	0x0000ab6c
    85a4:	0000ac00 	.word	0x0000ac00
    85a8:	0000a9fc 	.word	0x0000a9fc

000085ac <mini_watch_addr>:
    85ac:	e52de004 	push	{lr}		; (str lr, [sp, #-4]!)
    85b0:	e24dd00c 	sub	sp, sp, #12, 0
    85b4:	ee103ef0 	mrc	14, 0, r3, cr0, cr0, {7}
    85b8:	e3130001 	tst	r3, #1, 0
    85bc:	1a000012 	bne	860c <mini_watch_addr+0x60>
    85c0:	ee101ef0 	mrc	14, 0, r1, cr0, cr0, {7}
    85c4:	e2002003 	and	r2, r0, #3, 0
    85c8:	e2822005 	add	r2, r2, #5, 0
    85cc:	e3a03001 	mov	r3, #1, 0
    85d0:	e1a03213 	lsl	r3, r3, r2
    85d4:	e3832007 	orr	r2, r3, #7, 0
    85d8:	e59f306c 	ldr	r3, [pc, #108]	; 864c <mini_watch_addr+0xa0>
    85dc:	e0033001 	and	r3, r3, r1
    85e0:	e1833002 	orr	r3, r3, r2
    85e4:	ee003ef0 	mcr	14, 0, r3, cr0, cr0, {7}
    85e8:	e3a03000 	mov	r3, #0, 0
    85ec:	ee073f95 	mcr	15, 0, r3, cr7, cr5, {4}
    85f0:	ee000ed0 	mcr	14, 0, r0, cr0, cr0, {6}
    85f4:	ee073f95 	mcr	15, 0, r3, cr7, cr5, {4}
    85f8:	ee103ef0 	mrc	14, 0, r3, cr0, cr0, {7}
    85fc:	e3130001 	tst	r3, #1, 0
    8600:	0a000009 	beq	862c <mini_watch_addr+0x80>
    8604:	e28dd00c 	add	sp, sp, #12, 0
    8608:	e49df004 	pop	{pc}		; (ldr pc, [sp], #4)
    860c:	e59f303c 	ldr	r3, [pc, #60]	; 8650 <mini_watch_addr+0xa4>
    8610:	e58d3000 	str	r3, [sp]
    8614:	e3a03066 	mov	r3, #102, 0	; 0x66
    8618:	e59f2034 	ldr	r2, [pc, #52]	; 8654 <mini_watch_addr+0xa8>
    861c:	e59f1034 	ldr	r1, [pc, #52]	; 8658 <mini_watch_addr+0xac>
    8620:	e59f0034 	ldr	r0, [pc, #52]	; 865c <mini_watch_addr+0xb0>
    8624:	eb000522 	bl	9ab4 <printk>
    8628:	eb000651 	bl	9f74 <clean_reboot>
    862c:	e59f302c 	ldr	r3, [pc, #44]	; 8660 <mini_watch_addr+0xb4>
    8630:	e58d3000 	str	r3, [sp]
    8634:	e3a03073 	mov	r3, #115, 0	; 0x73
    8638:	e59f2014 	ldr	r2, [pc, #20]	; 8654 <mini_watch_addr+0xa8>
    863c:	e59f1014 	ldr	r1, [pc, #20]	; 8658 <mini_watch_addr+0xac>
    8640:	e59f0014 	ldr	r0, [pc, #20]	; 865c <mini_watch_addr+0xb0>
    8644:	eb00051a 	bl	9ab4 <printk>
    8648:	eb000649 	bl	9f74 <clean_reboot>
    864c:	ff8f3e18 	.word	0xff8f3e18
    8650:	0000ab84 	.word	0x0000ab84
    8654:	0000ac10 	.word	0x0000ac10
    8658:	0000a9fc 	.word	0x0000a9fc
    865c:	0000ab28 	.word	0x0000ab28
    8660:	0000ab9c 	.word	0x0000ab9c

00008664 <mini_watch_disable>:
    8664:	e92d4010 	push	{r4, lr}
    8668:	e1a04000 	mov	r4, r0
    866c:	e1a01000 	mov	r1, r0
    8670:	e59f0020 	ldr	r0, [pc, #32]	; 8698 <mini_watch_disable+0x34>
    8674:	eb00050e 	bl	9ab4 <printk>
    8678:	ee004ed0 	mcr	14, 0, r4, cr0, cr0, {6}
    867c:	e3a02000 	mov	r2, #0, 0
    8680:	ee072f95 	mcr	15, 0, r2, cr7, cr5, {4}
    8684:	ee103ef0 	mrc	14, 0, r3, cr0, cr0, {7}
    8688:	e3c33001 	bic	r3, r3, #1, 0
    868c:	ee003ef0 	mcr	14, 0, r3, cr0, cr0, {7}
    8690:	ee072f95 	mcr	15, 0, r2, cr7, cr5, {4}
    8694:	e8bd8010 	pop	{r4, pc}
    8698:	0000abb4 	.word	0x0000abb4

0000869c <mini_watch_enabled>:
    869c:	ee100ef0 	mrc	14, 0, r0, cr0, cr0, {7}
    86a0:	e2000001 	and	r0, r0, #1, 0
    86a4:	e12fff1e 	bx	lr

000086a8 <mini_watch_is_fault>:
    86a8:	ee153f10 	mrc	15, 0, r3, cr5, cr0, {0}
    86ac:	e203300f 	and	r3, r3, #15, 0
    86b0:	e3530002 	cmp	r3, #2, 0
    86b4:	0a000001 	beq	86c0 <mini_watch_is_fault+0x18>
    86b8:	e3a00000 	mov	r0, #0, 0
    86bc:	e12fff1e 	bx	lr
    86c0:	ee103e11 	mrc	14, 0, r3, cr0, cr1, {0}
    86c4:	e1a03123 	lsr	r3, r3, #2
    86c8:	e203300f 	and	r3, r3, #15, 0
    86cc:	e3530002 	cmp	r3, #2, 0
    86d0:	0a000001 	beq	86dc <mini_watch_is_fault+0x34>
    86d4:	e3a00000 	mov	r0, #0, 0
    86d8:	e12fff1e 	bx	lr
    86dc:	e3a00001 	mov	r0, #1, 0
    86e0:	e12fff1e 	bx	lr

000086e4 <ss_on_exit>:
    86e4:	e92d4010 	push	{r4, lr}
    86e8:	e3a0304a 	mov	r3, #74, 0	; 0x4a
    86ec:	e59f200c 	ldr	r2, [pc, #12]	; 8700 <ss_on_exit+0x1c>
    86f0:	e59f100c 	ldr	r1, [pc, #12]	; 8704 <ss_on_exit+0x20>
    86f4:	e59f000c 	ldr	r0, [pc, #12]	; 8708 <ss_on_exit+0x24>
    86f8:	eb0004ed 	bl	9ab4 <printk>
    86fc:	eb00061c 	bl	9f74 <clean_reboot>
    8700:	0000ad64 	.word	0x0000ad64
    8704:	0000ac20 	.word	0x0000ac20
    8708:	0000ac2c 	.word	0x0000ac2c

0000870c <mismatch_pc_set>:
    870c:	e52de004 	push	{lr}		; (str lr, [sp, #-4]!)
    8710:	e24dd00c 	sub	sp, sp, #12, 0
    8714:	e59f2090 	ldr	r2, [pc, #144]	; 87ac <mismatch_pc_set+0xa0>
    8718:	e5922000 	ldr	r2, [r2]
    871c:	e3520000 	cmp	r2, #0, 0
    8720:	0a000011 	beq	876c <mismatch_pc_set+0x60>
    8724:	e1a03000 	mov	r3, r0
    8728:	ee100e90 	mrc	14, 0, r0, cr0, cr0, {4}
    872c:	ee003e90 	mcr	14, 0, r3, cr0, cr0, {4}
    8730:	e3a02000 	mov	r2, #0, 0
    8734:	ee072f95 	mcr	15, 0, r2, cr7, cr5, {4}
    8738:	ee101eb0 	mrc	14, 0, r1, cr0, cr0, {5}
    873c:	e59fc06c 	ldr	ip, [pc, #108]	; 87b0 <mismatch_pc_set+0xa4>
    8740:	e00cc001 	and	ip, ip, r1
    8744:	e59f1068 	ldr	r1, [pc, #104]	; 87b4 <mismatch_pc_set+0xa8>
    8748:	e18c1001 	orr	r1, ip, r1
    874c:	ee001eb0 	mcr	14, 0, r1, cr0, cr0, {5}
    8750:	ee072f95 	mcr	15, 0, r2, cr7, cr5, {4}
    8754:	ee072f95 	mcr	15, 0, r2, cr7, cr5, {4}
    8758:	ee102e90 	mrc	14, 0, r2, cr0, cr0, {4}
    875c:	e1530002 	cmp	r3, r2
    8760:	1a000009 	bne	878c <mismatch_pc_set+0x80>
    8764:	e28dd00c 	add	sp, sp, #12, 0
    8768:	e49df004 	pop	{pc}		; (ldr pc, [sp], #4)
    876c:	e59f3044 	ldr	r3, [pc, #68]	; 87b8 <mismatch_pc_set+0xac>
    8770:	e58d3000 	str	r3, [sp]
    8774:	e3a0301a 	mov	r3, #26, 0
    8778:	e59f203c 	ldr	r2, [pc, #60]	; 87bc <mismatch_pc_set+0xb0>
    877c:	e59f103c 	ldr	r1, [pc, #60]	; 87c0 <mismatch_pc_set+0xb4>
    8780:	e59f003c 	ldr	r0, [pc, #60]	; 87c4 <mismatch_pc_set+0xb8>
    8784:	eb0004ca 	bl	9ab4 <printk>
    8788:	eb0005f9 	bl	9f74 <clean_reboot>
    878c:	e59f3034 	ldr	r3, [pc, #52]	; 87c8 <mismatch_pc_set+0xbc>
    8790:	e58d3000 	str	r3, [sp]
    8794:	e3a0302b 	mov	r3, #43, 0	; 0x2b
    8798:	e59f201c 	ldr	r2, [pc, #28]	; 87bc <mismatch_pc_set+0xb0>
    879c:	e59f101c 	ldr	r1, [pc, #28]	; 87c0 <mismatch_pc_set+0xb4>
    87a0:	e59f001c 	ldr	r0, [pc, #28]	; 87c4 <mismatch_pc_set+0xb8>
    87a4:	eb0004c2 	bl	9ab4 <printk>
    87a8:	eb0005f1 	bl	9f74 <clean_reboot>
    87ac:	0000bbb8 	.word	0x0000bbb8
    87b0:	ff8f3e18 	.word	0xff8f3e18
    87b4:	004001e7 	.word	0x004001e7
    87b8:	0000ac58 	.word	0x0000ac58
    87bc:	0000ad70 	.word	0x0000ad70
    87c0:	0000ac20 	.word	0x0000ac20
    87c4:	0000ab28 	.word	0x0000ab28
    87c8:	0000ac6c 	.word	0x0000ac6c

000087cc <mode_get>:
    87cc:	e200001f 	and	r0, r0, #31, 0
    87d0:	e3500012 	cmp	r0, #18, 0
    87d4:	13500010 	cmpne	r0, #16, 0
    87d8:	012fff1e 	bxeq	lr
    87dc:	e3500017 	cmp	r0, #23, 0
    87e0:	13500013 	cmpne	r0, #19, 0
    87e4:	012fff1e 	bxeq	lr
    87e8:	e350001f 	cmp	r0, #31, 0
    87ec:	1350001b 	cmpne	r0, #27, 0
    87f0:	012fff1e 	bxeq	lr
    87f4:	e52de004 	push	{lr}		; (str lr, [sp, #-4]!)
    87f8:	e24dd00c 	sub	sp, sp, #12, 0
    87fc:	e58d0004 	str	r0, [sp, #4]
    8800:	e58d0000 	str	r0, [sp]
    8804:	e3a03013 	mov	r3, #19, 0
    8808:	e59f200c 	ldr	r2, [pc, #12]	; 881c <mode_get+0x50>
    880c:	e59f100c 	ldr	r1, [pc, #12]	; 8820 <mode_get+0x54>
    8810:	e59f000c 	ldr	r0, [pc, #12]	; 8824 <mode_get+0x58>
    8814:	eb0004a6 	bl	9ab4 <printk>
    8818:	eb0005d5 	bl	9f74 <clean_reboot>
    881c:	0000ad80 	.word	0x0000ad80
    8820:	0000aadc 	.word	0x0000aadc
    8824:	0000aae8 	.word	0x0000aae8

00008828 <switchto>:
    8828:	e92d4010 	push	{r4, lr}
    882c:	e1a04000 	mov	r4, r0
    8830:	e5900040 	ldr	r0, [r0, #64]	; 0x40
    8834:	ebffffe4 	bl	87cc <mode_get>
    8838:	e3500010 	cmp	r0, #16, 0
    883c:	0a000001 	beq	8848 <switchto+0x20>
    8840:	e1a00004 	mov	r0, r4
    8844:	eb0002d6 	bl	93a4 <switchto_priv_asm>
    8848:	e1a00004 	mov	r0, r4
    884c:	eb0002c7 	bl	9370 <switchto_user_asm>

00008850 <mismatch_fault>:
    8850:	e92d4030 	push	{r4, r5, lr}
    8854:	e24dd00c 	sub	sp, sp, #12, 0
    8858:	e590503c 	ldr	r5, [r0, #60]	; 0x3c
    885c:	e59f3084 	ldr	r3, [pc, #132]	; 88e8 <mismatch_fault+0x98>
    8860:	e1530005 	cmp	r3, r5
    8864:	0a000014 	beq	88bc <mismatch_fault+0x6c>
    8868:	e1a04000 	mov	r4, r0
    886c:	e3a03000 	mov	r3, #0, 0
    8870:	e58d3000 	str	r3, [sp]
    8874:	e58d3004 	str	r3, [sp, #4]
    8878:	e59f306c 	ldr	r3, [pc, #108]	; 88ec <mismatch_fault+0x9c>
    887c:	e5933048 	ldr	r3, [r3, #72]	; 0x48
    8880:	e3530000 	cmp	r3, #0, 0
    8884:	0a000011 	beq	88d0 <mismatch_fault+0x80>
    8888:	e58d5000 	str	r5, [sp]
    888c:	e58d0004 	str	r0, [sp, #4]
    8890:	e1a0100d 	mov	r1, sp
    8894:	e59f2050 	ldr	r2, [pc, #80]	; 88ec <mismatch_fault+0x9c>
    8898:	e592004c 	ldr	r0, [r2, #76]	; 0x4c
    889c:	e12fff33 	blx	r3
    88a0:	e1a00005 	mov	r0, r5
    88a4:	ebffff98 	bl	870c <mismatch_pc_set>
    88a8:	eb0003e8 	bl	9850 <uart_can_put8>
    88ac:	e3500000 	cmp	r0, #0, 0
    88b0:	0afffffc 	beq	88a8 <mismatch_fault+0x58>
    88b4:	e1a00004 	mov	r0, r4
    88b8:	ebffffda 	bl	8828 <switchto>
    88bc:	e1a01005 	mov	r1, r5
    88c0:	e59f0028 	ldr	r0, [pc, #40]	; 88f0 <mismatch_fault+0xa0>
    88c4:	eb00047a 	bl	9ab4 <printk>
    88c8:	e59f0024 	ldr	r0, [pc, #36]	; 88f4 <mismatch_fault+0xa4>
    88cc:	ebffffd5 	bl	8828 <switchto>
    88d0:	e3a03066 	mov	r3, #102, 0	; 0x66
    88d4:	e59f201c 	ldr	r2, [pc, #28]	; 88f8 <mismatch_fault+0xa8>
    88d8:	e59f101c 	ldr	r1, [pc, #28]	; 88fc <mismatch_fault+0xac>
    88dc:	e59f001c 	ldr	r0, [pc, #28]	; 8900 <mismatch_fault+0xb0>
    88e0:	eb000473 	bl	9ab4 <printk>
    88e4:	eb0005a2 	bl	9f74 <clean_reboot>
    88e8:	000086e4 	.word	0x000086e4
    88ec:	0000bbb8 	.word	0x0000bbb8
    88f0:	0000ac84 	.word	0x0000ac84
    88f4:	0000bbbc 	.word	0x0000bbbc
    88f8:	0000ad8c 	.word	0x0000ad8c
    88fc:	0000ac20 	.word	0x0000ac20
    8900:	0000acac 	.word	0x0000acac

00008904 <mini_step_init>:
    8904:	e52de004 	push	{lr}		; (str lr, [sp, #-4]!)
    8908:	e24dd00c 	sub	sp, sp, #12, 0
    890c:	e1a03001 	mov	r3, r1
    8910:	e2501000 	subs	r1, r0, #0, 0
    8914:	0a000020 	beq	899c <mini_step_init+0x98>
    8918:	e59f20fc 	ldr	r2, [pc, #252]	; 8a1c <mini_step_init+0x118>
    891c:	e582304c 	str	r3, [r2, #76]	; 0x4c
    8920:	e5821048 	str	r1, [r2, #72]	; 0x48
    8924:	e59f00f4 	ldr	r0, [pc, #244]	; 8a20 <mini_step_init+0x11c>
    8928:	eb000461 	bl	9ab4 <printk>
    892c:	e3a00000 	mov	r0, #0, 0
    8930:	eb000219 	bl	919c <full_except_install>
    8934:	e59f00e8 	ldr	r0, [pc, #232]	; 8a24 <mini_step_init+0x120>
    8938:	eb000205 	bl	9154 <full_except_set_prefetch>
    893c:	ee103e11 	mrc	14, 0, r3, cr0, cr1, {0}
    8940:	e1a03723 	lsr	r3, r3, #14
    8944:	e2033003 	and	r3, r3, #3, 0
    8948:	e3530002 	cmp	r3, #2, 0
    894c:	0a00000a 	beq	897c <mini_step_init+0x78>
    8950:	ee103e11 	mrc	14, 0, r3, cr0, cr1, {0}
    8954:	e3c33903 	bic	r3, r3, #49152	; 0xc000
    8958:	e3833902 	orr	r3, r3, #32768	; 0x8000
    895c:	ee003e11 	mcr	14, 0, r3, cr0, cr1, {0}
    8960:	e3a03000 	mov	r3, #0, 0
    8964:	ee073f95 	mcr	15, 0, r3, cr7, cr5, {4}
    8968:	ee103e11 	mrc	14, 0, r3, cr0, cr1, {0}
    896c:	e1a03723 	lsr	r3, r3, #14
    8970:	e2033003 	and	r3, r3, #3, 0
    8974:	e3530002 	cmp	r3, #2, 0
    8978:	1a00000f 	bne	89bc <mini_step_init+0xb8>
    897c:	ee103eb0 	mrc	14, 0, r3, cr0, cr0, {5}
    8980:	e3130001 	tst	r3, #1, 0
    8984:	1a000014 	bne	89dc <mini_step_init+0xd8>
    8988:	ee103eb0 	mrc	14, 0, r3, cr0, cr0, {5}
    898c:	e3130001 	tst	r3, #1, 0
    8990:	1a000019 	bne	89fc <mini_step_init+0xf8>
    8994:	e28dd00c 	add	sp, sp, #12, 0
    8998:	e49df004 	pop	{pc}		; (ldr pc, [sp], #4)
    899c:	e59f3084 	ldr	r3, [pc, #132]	; 8a28 <mini_step_init+0x124>
    89a0:	e58d3000 	str	r3, [sp]
    89a4:	e3a0307f 	mov	r3, #127, 0	; 0x7f
    89a8:	e59f207c 	ldr	r2, [pc, #124]	; 8a2c <mini_step_init+0x128>
    89ac:	e59f107c 	ldr	r1, [pc, #124]	; 8a30 <mini_step_init+0x12c>
    89b0:	e59f007c 	ldr	r0, [pc, #124]	; 8a34 <mini_step_init+0x130>
    89b4:	eb00043e 	bl	9ab4 <printk>
    89b8:	eb00056d 	bl	9f74 <clean_reboot>
    89bc:	e59f3074 	ldr	r3, [pc, #116]	; 8a38 <mini_step_init+0x134>
    89c0:	e58d3000 	str	r3, [sp]
    89c4:	e3a030a6 	mov	r3, #166, 0	; 0xa6
    89c8:	e59f206c 	ldr	r2, [pc, #108]	; 8a3c <mini_step_init+0x138>
    89cc:	e59f106c 	ldr	r1, [pc, #108]	; 8a40 <mini_step_init+0x13c>
    89d0:	e59f005c 	ldr	r0, [pc, #92]	; 8a34 <mini_step_init+0x130>
    89d4:	eb000436 	bl	9ab4 <printk>
    89d8:	eb000565 	bl	9f74 <clean_reboot>
    89dc:	e59f3060 	ldr	r3, [pc, #96]	; 8a44 <mini_step_init+0x140>
    89e0:	e58d3000 	str	r3, [sp]
    89e4:	e3a0308e 	mov	r3, #142, 0	; 0x8e
    89e8:	e59f203c 	ldr	r2, [pc, #60]	; 8a2c <mini_step_init+0x128>
    89ec:	e59f103c 	ldr	r1, [pc, #60]	; 8a30 <mini_step_init+0x12c>
    89f0:	e59f003c 	ldr	r0, [pc, #60]	; 8a34 <mini_step_init+0x130>
    89f4:	eb00042e 	bl	9ab4 <printk>
    89f8:	eb00055d 	bl	9f74 <clean_reboot>
    89fc:	e59f3040 	ldr	r3, [pc, #64]	; 8a44 <mini_step_init+0x140>
    8a00:	e58d3000 	str	r3, [sp]
    8a04:	e3a0308f 	mov	r3, #143, 0	; 0x8f
    8a08:	e59f201c 	ldr	r2, [pc, #28]	; 8a2c <mini_step_init+0x128>
    8a0c:	e59f101c 	ldr	r1, [pc, #28]	; 8a30 <mini_step_init+0x12c>
    8a10:	e59f001c 	ldr	r0, [pc, #28]	; 8a34 <mini_step_init+0x130>
    8a14:	eb000426 	bl	9ab4 <printk>
    8a18:	eb000555 	bl	9f74 <clean_reboot>
    8a1c:	0000bbb8 	.word	0x0000bbb8
    8a20:	0000ace4 	.word	0x0000ace4
    8a24:	00008850 	.word	0x00008850
    8a28:	0000afb8 	.word	0x0000afb8
    8a2c:	0000ad9c 	.word	0x0000ad9c
    8a30:	0000ac20 	.word	0x0000ac20
    8a34:	0000ab28 	.word	0x0000ab28
    8a38:	0000ab58 	.word	0x0000ab58
    8a3c:	0000adac 	.word	0x0000adac
    8a40:	0000ab14 	.word	0x0000ab14
    8a44:	0000ab6c 	.word	0x0000ab6c

00008a48 <mini_step_run>:
    8a48:	e92d4070 	push	{r4, r5, r6, lr}
    8a4c:	e24dd050 	sub	sp, sp, #80, 0	; 0x50
    8a50:	e1a05000 	mov	r5, r0
    8a54:	e59f3318 	ldr	r3, [pc, #792]	; 8d74 <mini_step_run+0x32c>
    8a58:	e5933050 	ldr	r3, [r3, #80]	; 0x50
    8a5c:	e3530000 	cmp	r3, #0, 0
    8a60:	0a000011 	beq	8aac <mini_step_run+0x64>
    8a64:	e59f3308 	ldr	r3, [pc, #776]	; 8d74 <mini_step_run+0x32c>
    8a68:	e5933050 	ldr	r3, [r3, #80]	; 0x50
    8a6c:	e2836902 	add	r6, r3, #32768	; 0x8000
    8a70:	e10f3000 	mrs	r3, CPSR
    8a74:	e3c3320f 	bic	r3, r3, #-268435456	; 0xf0000000
    8a78:	e3c3301f 	bic	r3, r3, #31, 0
    8a7c:	e3834010 	orr	r4, r3, #16, 0
    8a80:	e3a03010 	mov	r3, #16, 0
    8a84:	e3530000 	cmp	r3, #0, 0
    8a88:	1a00000c 	bne	8ac0 <mini_step_run+0x78>
    8a8c:	e58d3004 	str	r3, [sp, #4]
    8a90:	e58d3000 	str	r3, [sp]
    8a94:	e3a03013 	mov	r3, #19, 0
    8a98:	e59f22d8 	ldr	r2, [pc, #728]	; 8d78 <mini_step_run+0x330>
    8a9c:	e59f12d8 	ldr	r1, [pc, #728]	; 8d7c <mini_step_run+0x334>
    8aa0:	e59f02d8 	ldr	r0, [pc, #728]	; 8d80 <mini_step_run+0x338>
    8aa4:	eb000402 	bl	9ab4 <printk>
    8aa8:	eb000531 	bl	9f74 <clean_reboot>
    8aac:	e3a00902 	mov	r0, #32768	; 0x8000
    8ab0:	eb00065c 	bl	a428 <kmalloc>
    8ab4:	e59f32b8 	ldr	r3, [pc, #696]	; 8d74 <mini_step_run+0x32c>
    8ab8:	e5830050 	str	r0, [r3, #80]	; 0x50
    8abc:	eaffffe8 	b	8a64 <mini_step_run+0x1c>
    8ac0:	e3530010 	cmp	r3, #16, 0
    8ac4:	1a00005e 	bne	8c44 <mini_step_run+0x1fc>
    8ac8:	e3a02034 	mov	r2, #52, 0	; 0x34
    8acc:	e3a01000 	mov	r1, #0, 0
    8ad0:	e28d000c 	add	r0, sp, #12, 0
    8ad4:	eb0003ce 	bl	9a14 <memset>
    8ad8:	e58d6040 	str	r6, [sp, #64]	; 0x40
    8adc:	e59f32a0 	ldr	r3, [pc, #672]	; 8d84 <mini_step_run+0x33c>
    8ae0:	e58d3044 	str	r3, [sp, #68]	; 0x44
    8ae4:	e58d5048 	str	r5, [sp, #72]	; 0x48
    8ae8:	e58d404c 	str	r4, [sp, #76]	; 0x4c
    8aec:	e59f3280 	ldr	r3, [pc, #640]	; 8d74 <mini_step_run+0x32c>
    8af0:	e5933000 	ldr	r3, [r3]
    8af4:	e3530000 	cmp	r3, #0, 0
    8af8:	1a000059 	bne	8c64 <mini_step_run+0x21c>
    8afc:	e59f3270 	ldr	r3, [pc, #624]	; 8d74 <mini_step_run+0x32c>
    8b00:	e3a02001 	mov	r2, #1, 0
    8b04:	e5832000 	str	r2, [r3]
    8b08:	ee103e11 	mrc	14, 0, r3, cr0, cr1, {0}
    8b0c:	e1a03723 	lsr	r3, r3, #14
    8b10:	e2033003 	and	r3, r3, #3, 0
    8b14:	e3530002 	cmp	r3, #2, 0
    8b18:	0a00000a 	beq	8b48 <mini_step_run+0x100>
    8b1c:	ee103e11 	mrc	14, 0, r3, cr0, cr1, {0}
    8b20:	e3c33903 	bic	r3, r3, #49152	; 0xc000
    8b24:	e3833902 	orr	r3, r3, #32768	; 0x8000
    8b28:	ee003e11 	mcr	14, 0, r3, cr0, cr1, {0}
    8b2c:	e3a03000 	mov	r3, #0, 0
    8b30:	ee073f95 	mcr	15, 0, r3, cr7, cr5, {4}
    8b34:	ee103e11 	mrc	14, 0, r3, cr0, cr1, {0}
    8b38:	e1a03723 	lsr	r3, r3, #14
    8b3c:	e2033003 	and	r3, r3, #3, 0
    8b40:	e3530002 	cmp	r3, #2, 0
    8b44:	1a00004e 	bne	8c84 <mini_step_run+0x23c>
    8b48:	e59f3224 	ldr	r3, [pc, #548]	; 8d74 <mini_step_run+0x32c>
    8b4c:	e5933000 	ldr	r3, [r3]
    8b50:	e3530000 	cmp	r3, #0, 0
    8b54:	0a000052 	beq	8ca4 <mini_step_run+0x25c>
    8b58:	ee103e90 	mrc	14, 0, r3, cr0, cr0, {4}
    8b5c:	e3a03000 	mov	r3, #0, 0
    8b60:	ee003e90 	mcr	14, 0, r3, cr0, cr0, {4}
    8b64:	ee073f95 	mcr	15, 0, r3, cr7, cr5, {4}
    8b68:	ee102eb0 	mrc	14, 0, r2, cr0, cr0, {5}
    8b6c:	e59f1214 	ldr	r1, [pc, #532]	; 8d88 <mini_step_run+0x340>
    8b70:	e0011002 	and	r1, r1, r2
    8b74:	e59f2210 	ldr	r2, [pc, #528]	; 8d8c <mini_step_run+0x344>
    8b78:	e1812002 	orr	r2, r1, r2
    8b7c:	ee002eb0 	mcr	14, 0, r2, cr0, cr0, {5}
    8b80:	ee073f95 	mcr	15, 0, r3, cr7, cr5, {4}
    8b84:	ee073f95 	mcr	15, 0, r3, cr7, cr5, {4}
    8b88:	ee103e90 	mrc	14, 0, r3, cr0, cr0, {4}
    8b8c:	e3530000 	cmp	r3, #0, 0
    8b90:	1a00004b 	bne	8cc4 <mini_step_run+0x27c>
    8b94:	e10f3000 	mrs	r3, CPSR
    8b98:	e203301f 	and	r3, r3, #31, 0
    8b9c:	e3530012 	cmp	r3, #18, 0
    8ba0:	13530010 	cmpne	r3, #16, 0
    8ba4:	0a000005 	beq	8bc0 <mini_step_run+0x178>
    8ba8:	e3530017 	cmp	r3, #23, 0
    8bac:	13530013 	cmpne	r3, #19, 0
    8bb0:	0a000002 	beq	8bc0 <mini_step_run+0x178>
    8bb4:	e353001f 	cmp	r3, #31, 0
    8bb8:	1353001b 	cmpne	r3, #27, 0
    8bbc:	1a000048 	bne	8ce4 <mini_step_run+0x29c>
    8bc0:	e3530010 	cmp	r3, #16, 0
    8bc4:	0a00004e 	beq	8d04 <mini_step_run+0x2bc>
    8bc8:	e59d304c 	ldr	r3, [sp, #76]	; 0x4c
    8bcc:	e203301f 	and	r3, r3, #31, 0
    8bd0:	e3530012 	cmp	r3, #18, 0
    8bd4:	13530010 	cmpne	r3, #16, 0
    8bd8:	0a000005 	beq	8bf4 <mini_step_run+0x1ac>
    8bdc:	e3530017 	cmp	r3, #23, 0
    8be0:	13530013 	cmpne	r3, #19, 0
    8be4:	0a000002 	beq	8bf4 <mini_step_run+0x1ac>
    8be8:	e353001f 	cmp	r3, #31, 0
    8bec:	1353001b 	cmpne	r3, #27, 0
    8bf0:	1a00004b 	bne	8d24 <mini_step_run+0x2dc>
    8bf4:	e3530010 	cmp	r3, #16, 0
    8bf8:	0a000051 	beq	8d44 <mini_step_run+0x2fc>
    8bfc:	e28d100c 	add	r1, sp, #12, 0
    8c00:	e59f0188 	ldr	r0, [pc, #392]	; 8d90 <mini_step_run+0x348>
    8c04:	eb0001f3 	bl	93d8 <cswitchto_priv_asm>
    8c08:	e59f3164 	ldr	r3, [pc, #356]	; 8d74 <mini_step_run+0x32c>
    8c0c:	e5933000 	ldr	r3, [r3]
    8c10:	e3530000 	cmp	r3, #0, 0
    8c14:	0a00004e 	beq	8d54 <mini_step_run+0x30c>
    8c18:	e3a03000 	mov	r3, #0, 0
    8c1c:	e59f2150 	ldr	r2, [pc, #336]	; 8d74 <mini_step_run+0x32c>
    8c20:	e5823000 	str	r3, [r2]
    8c24:	ee102eb0 	mrc	14, 0, r2, cr0, cr0, {5}
    8c28:	e3c22001 	bic	r2, r2, #1, 0
    8c2c:	ee002eb0 	mcr	14, 0, r2, cr0, cr0, {5}
    8c30:	ee073f95 	mcr	15, 0, r3, cr7, cr5, {4}
    8c34:	ee073f95 	mcr	15, 0, r3, cr7, cr5, {4}
    8c38:	e59d000c 	ldr	r0, [sp, #12]
    8c3c:	e28dd050 	add	sp, sp, #80, 0	; 0x50
    8c40:	e8bd8070 	pop	{r4, r5, r6, pc}
    8c44:	e59f3148 	ldr	r3, [pc, #328]	; 8d94 <mini_step_run+0x34c>
    8c48:	e58d3000 	str	r3, [sp]
    8c4c:	e3a030a3 	mov	r3, #163, 0	; 0xa3
    8c50:	e59f2140 	ldr	r2, [pc, #320]	; 8d98 <mini_step_run+0x350>
    8c54:	e59f1140 	ldr	r1, [pc, #320]	; 8d9c <mini_step_run+0x354>
    8c58:	e59f0140 	ldr	r0, [pc, #320]	; 8da0 <mini_step_run+0x358>
    8c5c:	eb000394 	bl	9ab4 <printk>
    8c60:	eb0004c3 	bl	9f74 <clean_reboot>
    8c64:	e59f3138 	ldr	r3, [pc, #312]	; 8da4 <mini_step_run+0x35c>
    8c68:	e58d3000 	str	r3, [sp]
    8c6c:	e3a03031 	mov	r3, #49, 0	; 0x31
    8c70:	e59f2130 	ldr	r2, [pc, #304]	; 8da8 <mini_step_run+0x360>
    8c74:	e59f1120 	ldr	r1, [pc, #288]	; 8d9c <mini_step_run+0x354>
    8c78:	e59f0120 	ldr	r0, [pc, #288]	; 8da0 <mini_step_run+0x358>
    8c7c:	eb00038c 	bl	9ab4 <printk>
    8c80:	eb0004bb 	bl	9f74 <clean_reboot>
    8c84:	e59f3120 	ldr	r3, [pc, #288]	; 8dac <mini_step_run+0x364>
    8c88:	e58d3000 	str	r3, [sp]
    8c8c:	e3a030a6 	mov	r3, #166, 0	; 0xa6
    8c90:	e59f2118 	ldr	r2, [pc, #280]	; 8db0 <mini_step_run+0x368>
    8c94:	e59f1118 	ldr	r1, [pc, #280]	; 8db4 <mini_step_run+0x36c>
    8c98:	e59f0100 	ldr	r0, [pc, #256]	; 8da0 <mini_step_run+0x358>
    8c9c:	eb000384 	bl	9ab4 <printk>
    8ca0:	eb0004b3 	bl	9f74 <clean_reboot>
    8ca4:	e59f310c 	ldr	r3, [pc, #268]	; 8db8 <mini_step_run+0x370>
    8ca8:	e58d3000 	str	r3, [sp]
    8cac:	e3a0301a 	mov	r3, #26, 0
    8cb0:	e59f2104 	ldr	r2, [pc, #260]	; 8dbc <mini_step_run+0x374>
    8cb4:	e59f10e0 	ldr	r1, [pc, #224]	; 8d9c <mini_step_run+0x354>
    8cb8:	e59f00e0 	ldr	r0, [pc, #224]	; 8da0 <mini_step_run+0x358>
    8cbc:	eb00037c 	bl	9ab4 <printk>
    8cc0:	eb0004ab 	bl	9f74 <clean_reboot>
    8cc4:	e59f30f4 	ldr	r3, [pc, #244]	; 8dc0 <mini_step_run+0x378>
    8cc8:	e58d3000 	str	r3, [sp]
    8ccc:	e3a0302b 	mov	r3, #43, 0	; 0x2b
    8cd0:	e59f20e4 	ldr	r2, [pc, #228]	; 8dbc <mini_step_run+0x374>
    8cd4:	e59f10c0 	ldr	r1, [pc, #192]	; 8d9c <mini_step_run+0x354>
    8cd8:	e59f00c0 	ldr	r0, [pc, #192]	; 8da0 <mini_step_run+0x358>
    8cdc:	eb000374 	bl	9ab4 <printk>
    8ce0:	eb0004a3 	bl	9f74 <clean_reboot>
    8ce4:	e58d3004 	str	r3, [sp, #4]
    8ce8:	e58d3000 	str	r3, [sp]
    8cec:	e3a03013 	mov	r3, #19, 0
    8cf0:	e59f2080 	ldr	r2, [pc, #128]	; 8d78 <mini_step_run+0x330>
    8cf4:	e59f1080 	ldr	r1, [pc, #128]	; 8d7c <mini_step_run+0x334>
    8cf8:	e59f0080 	ldr	r0, [pc, #128]	; 8d80 <mini_step_run+0x338>
    8cfc:	eb00036c 	bl	9ab4 <printk>
    8d00:	eb00049b 	bl	9f74 <clean_reboot>
    8d04:	e59f30b8 	ldr	r3, [pc, #184]	; 8dc4 <mini_step_run+0x37c>
    8d08:	e58d3000 	str	r3, [sp]
    8d0c:	e3a03060 	mov	r3, #96, 0	; 0x60
    8d10:	e59f20b0 	ldr	r2, [pc, #176]	; 8dc8 <mini_step_run+0x380>
    8d14:	e59f10b0 	ldr	r1, [pc, #176]	; 8dcc <mini_step_run+0x384>
    8d18:	e59f0080 	ldr	r0, [pc, #128]	; 8da0 <mini_step_run+0x358>
    8d1c:	eb000364 	bl	9ab4 <printk>
    8d20:	eb000493 	bl	9f74 <clean_reboot>
    8d24:	e58d3004 	str	r3, [sp, #4]
    8d28:	e58d3000 	str	r3, [sp]
    8d2c:	e3a03013 	mov	r3, #19, 0
    8d30:	e59f2040 	ldr	r2, [pc, #64]	; 8d78 <mini_step_run+0x330>
    8d34:	e59f1040 	ldr	r1, [pc, #64]	; 8d7c <mini_step_run+0x334>
    8d38:	e59f0040 	ldr	r0, [pc, #64]	; 8d80 <mini_step_run+0x338>
    8d3c:	eb00035c 	bl	9ab4 <printk>
    8d40:	eb00048b 	bl	9f74 <clean_reboot>
    8d44:	e28d100c 	add	r1, sp, #12, 0
    8d48:	e59f0040 	ldr	r0, [pc, #64]	; 8d90 <mini_step_run+0x348>
    8d4c:	eb0001af 	bl	9410 <cswitchto_user_asm>
    8d50:	eaffffac 	b	8c08 <mini_step_run+0x1c0>
    8d54:	e59f305c 	ldr	r3, [pc, #92]	; 8db8 <mini_step_run+0x370>
    8d58:	e58d3000 	str	r3, [sp]
    8d5c:	e3a0303c 	mov	r3, #60, 0	; 0x3c
    8d60:	e59f2068 	ldr	r2, [pc, #104]	; 8dd0 <mini_step_run+0x388>
    8d64:	e59f1030 	ldr	r1, [pc, #48]	; 8d9c <mini_step_run+0x354>
    8d68:	e59f0030 	ldr	r0, [pc, #48]	; 8da0 <mini_step_run+0x358>
    8d6c:	eb000350 	bl	9ab4 <printk>
    8d70:	eb00047f 	bl	9f74 <clean_reboot>
    8d74:	0000bbb8 	.word	0x0000bbb8
    8d78:	0000ad80 	.word	0x0000ad80
    8d7c:	0000aadc 	.word	0x0000aadc
    8d80:	0000aae8 	.word	0x0000aae8
    8d84:	000086e4 	.word	0x000086e4
    8d88:	ff8f3e18 	.word	0xff8f3e18
    8d8c:	004001e7 	.word	0x004001e7
    8d90:	0000bbbc 	.word	0x0000bbbc
    8d94:	0000ad04 	.word	0x0000ad04
    8d98:	0000adb8 	.word	0x0000adb8
    8d9c:	0000ac20 	.word	0x0000ac20
    8da0:	0000ab28 	.word	0x0000ab28
    8da4:	0000ad20 	.word	0x0000ad20
    8da8:	0000adc8 	.word	0x0000adc8
    8dac:	0000ab58 	.word	0x0000ab58
    8db0:	0000adac 	.word	0x0000adac
    8db4:	0000ab14 	.word	0x0000ab14
    8db8:	0000ac58 	.word	0x0000ac58
    8dbc:	0000ad70 	.word	0x0000ad70
    8dc0:	0000ac6c 	.word	0x0000ac6c
    8dc4:	0000ad40 	.word	0x0000ad40
    8dc8:	0000add4 	.word	0x0000add4
    8dcc:	0000ad34 	.word	0x0000ad34
    8dd0:	0000ade8 	.word	0x0000ade8

00008dd4 <mode_get>:
    8dd4:	e200001f 	and	r0, r0, #31, 0
    8dd8:	e3500012 	cmp	r0, #18, 0
    8ddc:	13500010 	cmpne	r0, #16, 0
    8de0:	012fff1e 	bxeq	lr
    8de4:	e3500017 	cmp	r0, #23, 0
    8de8:	13500013 	cmpne	r0, #19, 0
    8dec:	012fff1e 	bxeq	lr
    8df0:	e350001f 	cmp	r0, #31, 0
    8df4:	1350001b 	cmpne	r0, #27, 0
    8df8:	012fff1e 	bxeq	lr
    8dfc:	e52de004 	push	{lr}		; (str lr, [sp, #-4]!)
    8e00:	e24dd00c 	sub	sp, sp, #12, 0
    8e04:	e58d0004 	str	r0, [sp, #4]
    8e08:	e58d0000 	str	r0, [sp]
    8e0c:	e3a03013 	mov	r3, #19, 0
    8e10:	e59f200c 	ldr	r2, [pc, #12]	; 8e24 <mode_get+0x50>
    8e14:	e59f100c 	ldr	r1, [pc, #12]	; 8e28 <mode_get+0x54>
    8e18:	e59f000c 	ldr	r0, [pc, #12]	; 8e2c <mode_get+0x58>
    8e1c:	eb000324 	bl	9ab4 <printk>
    8e20:	eb000453 	bl	9f74 <clean_reboot>
    8e24:	0000b08c 	.word	0x0000b08c
    8e28:	0000aadc 	.word	0x0000aadc
    8e2c:	0000aae8 	.word	0x0000aae8

00008e30 <switchto>:
    8e30:	e92d4010 	push	{r4, lr}
    8e34:	e1a04000 	mov	r4, r0
    8e38:	e5900040 	ldr	r0, [r0, #64]	; 0x40
    8e3c:	ebffffe4 	bl	8dd4 <mode_get>
    8e40:	e3500010 	cmp	r0, #16, 0
    8e44:	0a000001 	beq	8e50 <switchto+0x20>
    8e48:	e1a00004 	mov	r0, r4
    8e4c:	eb000154 	bl	93a4 <switchto_priv_asm>
    8e50:	e1a00004 	mov	r0, r4
    8e54:	eb000145 	bl	9370 <switchto_user_asm>

00008e58 <prefetch_abort_full_except>:
    8e58:	e52de004 	push	{lr}		; (str lr, [sp, #-4]!)
    8e5c:	e24dd00c 	sub	sp, sp, #12, 0
    8e60:	e5903040 	ldr	r3, [r0, #64]	; 0x40
    8e64:	e1530001 	cmp	r3, r1
    8e68:	1a000016 	bne	8ec8 <prefetch_abort_full_except+0x70>
    8e6c:	e1a04000 	mov	r4, r0
    8e70:	e1a05001 	mov	r5, r1
    8e74:	e590303c 	ldr	r3, [r0, #60]	; 0x3c
    8e78:	e1530002 	cmp	r3, r2
    8e7c:	1a000019 	bne	8ee8 <prefetch_abort_full_except+0x90>
    8e80:	e59f309c 	ldr	r3, [pc, #156]	; 8f24 <prefetch_abort_full_except+0xcc>
    8e84:	e5933000 	ldr	r3, [r3]
    8e88:	e3530000 	cmp	r3, #0, 0
    8e8c:	0a00001d 	beq	8f08 <prefetch_abort_full_except+0xb0>
    8e90:	e1a00001 	mov	r0, r1
    8e94:	ebffffce 	bl	8dd4 <mode_get>
    8e98:	e3500010 	cmp	r0, #16, 0
    8e9c:	0a000003 	beq	8eb0 <prefetch_abort_full_except+0x58>
    8ea0:	e2842038 	add	r2, r4, #56, 0	; 0x38
    8ea4:	e2841034 	add	r1, r4, #52, 0	; 0x34
    8ea8:	e1a00005 	mov	r0, r5
    8eac:	eb000122 	bl	933c <priv_get_sp_lr_asm>
    8eb0:	e59f306c 	ldr	r3, [pc, #108]	; 8f24 <prefetch_abort_full_except+0xcc>
    8eb4:	e5933000 	ldr	r3, [r3]
    8eb8:	e1a00004 	mov	r0, r4
    8ebc:	e12fff33 	blx	r3
    8ec0:	e1a00004 	mov	r0, r4
    8ec4:	ebffffd9 	bl	8e30 <switchto>
    8ec8:	e59f3058 	ldr	r3, [pc, #88]	; 8f28 <prefetch_abort_full_except+0xd0>
    8ecc:	e58d3000 	str	r3, [sp]
    8ed0:	e3a03031 	mov	r3, #49, 0	; 0x31
    8ed4:	e59f2050 	ldr	r2, [pc, #80]	; 8f2c <prefetch_abort_full_except+0xd4>
    8ed8:	e59f1050 	ldr	r1, [pc, #80]	; 8f30 <prefetch_abort_full_except+0xd8>
    8edc:	e59f0050 	ldr	r0, [pc, #80]	; 8f34 <prefetch_abort_full_except+0xdc>
    8ee0:	eb0002f3 	bl	9ab4 <printk>
    8ee4:	eb000422 	bl	9f74 <clean_reboot>
    8ee8:	e59f3048 	ldr	r3, [pc, #72]	; 8f38 <prefetch_abort_full_except+0xe0>
    8eec:	e58d3000 	str	r3, [sp]
    8ef0:	e3a03032 	mov	r3, #50, 0	; 0x32
    8ef4:	e59f2030 	ldr	r2, [pc, #48]	; 8f2c <prefetch_abort_full_except+0xd4>
    8ef8:	e59f1030 	ldr	r1, [pc, #48]	; 8f30 <prefetch_abort_full_except+0xd8>
    8efc:	e59f0030 	ldr	r0, [pc, #48]	; 8f34 <prefetch_abort_full_except+0xdc>
    8f00:	eb0002eb 	bl	9ab4 <printk>
    8f04:	eb00041a 	bl	9f74 <clean_reboot>
    8f08:	e58d2000 	str	r2, [sp]
    8f0c:	e3a03035 	mov	r3, #53, 0	; 0x35
    8f10:	e59f2014 	ldr	r2, [pc, #20]	; 8f2c <prefetch_abort_full_except+0xd4>
    8f14:	e59f1014 	ldr	r1, [pc, #20]	; 8f30 <prefetch_abort_full_except+0xd8>
    8f18:	e59f001c 	ldr	r0, [pc, #28]	; 8f3c <prefetch_abort_full_except+0xe4>
    8f1c:	eb0002e4 	bl	9ab4 <printk>
    8f20:	eb000413 	bl	9f74 <clean_reboot>
    8f24:	0000bc0c 	.word	0x0000bc0c
    8f28:	0000ae0c 	.word	0x0000ae0c
    8f2c:	0000b098 	.word	0x0000b098
    8f30:	0000adf8 	.word	0x0000adf8
    8f34:	0000ab28 	.word	0x0000ab28
    8f38:	0000ae28 	.word	0x0000ae28
    8f3c:	0000ae40 	.word	0x0000ae40

00008f40 <data_abort_full_except>:
    8f40:	e52de004 	push	{lr}		; (str lr, [sp, #-4]!)
    8f44:	e24dd00c 	sub	sp, sp, #12, 0
    8f48:	e5903040 	ldr	r3, [r0, #64]	; 0x40
    8f4c:	e1530001 	cmp	r3, r1
    8f50:	1a000016 	bne	8fb0 <data_abort_full_except+0x70>
    8f54:	e1a04000 	mov	r4, r0
    8f58:	e1a05001 	mov	r5, r1
    8f5c:	e590303c 	ldr	r3, [r0, #60]	; 0x3c
    8f60:	e1530002 	cmp	r3, r2
    8f64:	1a000019 	bne	8fd0 <data_abort_full_except+0x90>
    8f68:	e59f309c 	ldr	r3, [pc, #156]	; 900c <data_abort_full_except+0xcc>
    8f6c:	e5933004 	ldr	r3, [r3, #4]
    8f70:	e3530000 	cmp	r3, #0, 0
    8f74:	0a00001d 	beq	8ff0 <data_abort_full_except+0xb0>
    8f78:	e1a00001 	mov	r0, r1
    8f7c:	ebffff94 	bl	8dd4 <mode_get>
    8f80:	e3500010 	cmp	r0, #16, 0
    8f84:	0a000003 	beq	8f98 <data_abort_full_except+0x58>
    8f88:	e2842038 	add	r2, r4, #56, 0	; 0x38
    8f8c:	e2841034 	add	r1, r4, #52, 0	; 0x34
    8f90:	e1a00005 	mov	r0, r5
    8f94:	eb0000e8 	bl	933c <priv_get_sp_lr_asm>
    8f98:	e59f306c 	ldr	r3, [pc, #108]	; 900c <data_abort_full_except+0xcc>
    8f9c:	e5933004 	ldr	r3, [r3, #4]
    8fa0:	e1a00004 	mov	r0, r4
    8fa4:	e12fff33 	blx	r3
    8fa8:	e1a00004 	mov	r0, r4
    8fac:	ebffff9f 	bl	8e30 <switchto>
    8fb0:	e59f3058 	ldr	r3, [pc, #88]	; 9010 <data_abort_full_except+0xd0>
    8fb4:	e58d3000 	str	r3, [sp]
    8fb8:	e3a0303e 	mov	r3, #62, 0	; 0x3e
    8fbc:	e59f2050 	ldr	r2, [pc, #80]	; 9014 <data_abort_full_except+0xd4>
    8fc0:	e59f1050 	ldr	r1, [pc, #80]	; 9018 <data_abort_full_except+0xd8>
    8fc4:	e59f0050 	ldr	r0, [pc, #80]	; 901c <data_abort_full_except+0xdc>
    8fc8:	eb0002b9 	bl	9ab4 <printk>
    8fcc:	eb0003e8 	bl	9f74 <clean_reboot>
    8fd0:	e59f3048 	ldr	r3, [pc, #72]	; 9020 <data_abort_full_except+0xe0>
    8fd4:	e58d3000 	str	r3, [sp]
    8fd8:	e3a0303f 	mov	r3, #63, 0	; 0x3f
    8fdc:	e59f2030 	ldr	r2, [pc, #48]	; 9014 <data_abort_full_except+0xd4>
    8fe0:	e59f1030 	ldr	r1, [pc, #48]	; 9018 <data_abort_full_except+0xd8>
    8fe4:	e59f0030 	ldr	r0, [pc, #48]	; 901c <data_abort_full_except+0xdc>
    8fe8:	eb0002b1 	bl	9ab4 <printk>
    8fec:	eb0003e0 	bl	9f74 <clean_reboot>
    8ff0:	e58d2000 	str	r2, [sp]
    8ff4:	e3a03042 	mov	r3, #66, 0	; 0x42
    8ff8:	e59f2014 	ldr	r2, [pc, #20]	; 9014 <data_abort_full_except+0xd4>
    8ffc:	e59f1014 	ldr	r1, [pc, #20]	; 9018 <data_abort_full_except+0xd8>
    9000:	e59f001c 	ldr	r0, [pc, #28]	; 9024 <data_abort_full_except+0xe4>
    9004:	eb0002aa 	bl	9ab4 <printk>
    9008:	eb0003d9 	bl	9f74 <clean_reboot>
    900c:	0000bc0c 	.word	0x0000bc0c
    9010:	0000ae0c 	.word	0x0000ae0c
    9014:	0000b0b4 	.word	0x0000b0b4
    9018:	0000adf8 	.word	0x0000adf8
    901c:	0000ab28 	.word	0x0000ab28
    9020:	0000ae28 	.word	0x0000ae28
    9024:	0000ae78 	.word	0x0000ae78

00009028 <syscall_full_except>:
    9028:	e52de004 	push	{lr}		; (str lr, [sp, #-4]!)
    902c:	e24dd014 	sub	sp, sp, #20, 0
    9030:	e5903040 	ldr	r3, [r0, #64]	; 0x40
    9034:	e1530001 	cmp	r3, r1
    9038:	1a00000c 	bne	9070 <syscall_full_except+0x48>
    903c:	e1a04000 	mov	r4, r0
    9040:	e1a05002 	mov	r5, r2
    9044:	e590303c 	ldr	r3, [r0, #60]	; 0x3c
    9048:	e1530002 	cmp	r3, r2
    904c:	0a00000f 	beq	9090 <syscall_full_except+0x68>
    9050:	e59f30d0 	ldr	r3, [pc, #208]	; 9128 <syscall_full_except+0x100>
    9054:	e58d3000 	str	r3, [sp]
    9058:	e3a0304d 	mov	r3, #77, 0	; 0x4d
    905c:	e59f20c8 	ldr	r2, [pc, #200]	; 912c <syscall_full_except+0x104>
    9060:	e59f10c8 	ldr	r1, [pc, #200]	; 9130 <syscall_full_except+0x108>
    9064:	e59f00c8 	ldr	r0, [pc, #200]	; 9134 <syscall_full_except+0x10c>
    9068:	eb000291 	bl	9ab4 <printk>
    906c:	eb0003c0 	bl	9f74 <clean_reboot>
    9070:	e59f30c0 	ldr	r3, [pc, #192]	; 9138 <syscall_full_except+0x110>
    9074:	e58d3000 	str	r3, [sp]
    9078:	e3a0304c 	mov	r3, #76, 0	; 0x4c
    907c:	e59f20a8 	ldr	r2, [pc, #168]	; 912c <syscall_full_except+0x104>
    9080:	e59f10a8 	ldr	r1, [pc, #168]	; 9130 <syscall_full_except+0x108>
    9084:	e59f00a8 	ldr	r0, [pc, #168]	; 9134 <syscall_full_except+0x10c>
    9088:	eb000289 	bl	9ab4 <printk>
    908c:	eb0003b8 	bl	9f74 <clean_reboot>
    9090:	e1a00001 	mov	r0, r1
    9094:	ebffff4e 	bl	8dd4 <mode_get>
    9098:	e3500010 	cmp	r0, #16, 0
    909c:	1a00000c 	bne	90d4 <syscall_full_except+0xac>
    90a0:	e28d200c 	add	r2, sp, #12, 0
    90a4:	e59f3090 	ldr	r3, [pc, #144]	; 913c <syscall_full_except+0x114>
    90a8:	e1520003 	cmp	r2, r3
    90ac:	9a00000e 	bls	90ec <syscall_full_except+0xc4>
    90b0:	e59f3088 	ldr	r3, [pc, #136]	; 9140 <syscall_full_except+0x118>
    90b4:	e5933008 	ldr	r3, [r3, #8]
    90b8:	e3530000 	cmp	r3, #0, 0
    90bc:	0a000012 	beq	910c <syscall_full_except+0xe4>
    90c0:	e1a00004 	mov	r0, r4
    90c4:	e12fff33 	blx	r3
    90c8:	e5840000 	str	r0, [r4]
    90cc:	e1a00004 	mov	r0, r4
    90d0:	ebffff56 	bl	8e30 <switchto>
    90d4:	e3a03050 	mov	r3, #80, 0	; 0x50
    90d8:	e59f204c 	ldr	r2, [pc, #76]	; 912c <syscall_full_except+0x104>
    90dc:	e59f104c 	ldr	r1, [pc, #76]	; 9130 <syscall_full_except+0x108>
    90e0:	e59f005c 	ldr	r0, [pc, #92]	; 9144 <syscall_full_except+0x11c>
    90e4:	eb000272 	bl	9ab4 <printk>
    90e8:	eb0003a1 	bl	9f74 <clean_reboot>
    90ec:	e59f3054 	ldr	r3, [pc, #84]	; 9148 <syscall_full_except+0x120>
    90f0:	e58d3000 	str	r3, [sp]
    90f4:	e3a03055 	mov	r3, #85, 0	; 0x55
    90f8:	e59f202c 	ldr	r2, [pc, #44]	; 912c <syscall_full_except+0x104>
    90fc:	e59f102c 	ldr	r1, [pc, #44]	; 9130 <syscall_full_except+0x108>
    9100:	e59f0044 	ldr	r0, [pc, #68]	; 914c <syscall_full_except+0x124>
    9104:	eb00026a 	bl	9ab4 <printk>
    9108:	eb000399 	bl	9f74 <clean_reboot>
    910c:	e58d5000 	str	r5, [sp]
    9110:	e3a0305a 	mov	r3, #90, 0	; 0x5a
    9114:	e59f2010 	ldr	r2, [pc, #16]	; 912c <syscall_full_except+0x104>
    9118:	e59f1010 	ldr	r1, [pc, #16]	; 9130 <syscall_full_except+0x108>
    911c:	e59f002c 	ldr	r0, [pc, #44]	; 9150 <syscall_full_except+0x128>
    9120:	eb000263 	bl	9ab4 <printk>
    9124:	eb000392 	bl	9f74 <clean_reboot>
    9128:	0000ae28 	.word	0x0000ae28
    912c:	0000b0cc 	.word	0x0000b0cc
    9130:	0000adf8 	.word	0x0000adf8
    9134:	0000ab28 	.word	0x0000ab28
    9138:	0000ae0c 	.word	0x0000ae0c
    913c:	000186a0 	.word	0x000186a0
    9140:	0000bc0c 	.word	0x0000bc0c
    9144:	0000aeac 	.word	0x0000aeac
    9148:	0000af2c 	.word	0x0000af2c
    914c:	0000aee8 	.word	0x0000aee8
    9150:	0000af44 	.word	0x0000af44

00009154 <full_except_set_prefetch>:
    9154:	e59f300c 	ldr	r3, [pc, #12]	; 9168 <full_except_set_prefetch+0x14>
    9158:	e5932000 	ldr	r2, [r3]
    915c:	e5830000 	str	r0, [r3]
    9160:	e1a00002 	mov	r0, r2
    9164:	e12fff1e 	bx	lr
    9168:	0000bc0c 	.word	0x0000bc0c

0000916c <full_except_set_data_abort>:
    916c:	e59f300c 	ldr	r3, [pc, #12]	; 9180 <full_except_set_data_abort+0x14>
    9170:	e5932004 	ldr	r2, [r3, #4]
    9174:	e5830004 	str	r0, [r3, #4]
    9178:	e1a00002 	mov	r0, r2
    917c:	e12fff1e 	bx	lr
    9180:	0000bc0c 	.word	0x0000bc0c

00009184 <full_except_set_syscall>:
    9184:	e59f300c 	ldr	r3, [pc, #12]	; 9198 <full_except_set_syscall+0x14>
    9188:	e5932008 	ldr	r2, [r3, #8]
    918c:	e5830008 	str	r0, [r3, #8]
    9190:	e1a00002 	mov	r0, r2
    9194:	e12fff1e 	bx	lr
    9198:	0000bc0c 	.word	0x0000bc0c

0000919c <full_except_install>:
    919c:	e52de004 	push	{lr}		; (str lr, [sp, #-4]!)
    91a0:	e24dd00c 	sub	sp, sp, #12, 0
    91a4:	e3500000 	cmp	r0, #0, 0
    91a8:	1a000007 	bne	91cc <full_except_install+0x30>
    91ac:	ee1c3f10 	mrc	15, 0, r3, cr12, cr0, {0}
    91b0:	e3530000 	cmp	r3, #0, 0
    91b4:	0a00002a 	beq	9264 <full_except_install+0xc8>
    91b8:	e59f2158 	ldr	r2, [pc, #344]	; 9318 <full_except_install+0x17c>
    91bc:	e1530002 	cmp	r3, r2
    91c0:	1a00004d 	bne	92fc <full_except_install+0x160>
    91c4:	e28dd00c 	add	sp, sp, #12, 0
    91c8:	e49df004 	pop	{pc}		; (ldr pc, [sp], #4)
    91cc:	e59f3144 	ldr	r3, [pc, #324]	; 9318 <full_except_install+0x17c>
    91d0:	e313001f 	tst	r3, #31, 0
    91d4:	0a000007 	beq	91f8 <full_except_install+0x5c>
    91d8:	e59f3138 	ldr	r3, [pc, #312]	; 9318 <full_except_install+0x17c>
    91dc:	e58d3000 	str	r3, [sp]
    91e0:	e3a0302a 	mov	r3, #42, 0	; 0x2a
    91e4:	e59f2130 	ldr	r2, [pc, #304]	; 931c <full_except_install+0x180>
    91e8:	e59f1130 	ldr	r1, [pc, #304]	; 9320 <full_except_install+0x184>
    91ec:	e59f0130 	ldr	r0, [pc, #304]	; 9324 <full_except_install+0x188>
    91f0:	eb00022f 	bl	9ab4 <printk>
    91f4:	eb00035e 	bl	9f74 <clean_reboot>
    91f8:	ee1c2f10 	mrc	15, 0, r2, cr12, cr0, {0}
    91fc:	e1520003 	cmp	r2, r3
    9200:	0affffef 	beq	91c4 <full_except_install+0x28>
    9204:	e3520000 	cmp	r2, #0, 0
    9208:	1a00000e 	bne	9248 <full_except_install+0xac>
    920c:	ee0c3f10 	mcr	15, 0, r3, cr12, cr0, {0}
    9210:	e3a03000 	mov	r3, #0, 0
    9214:	ee073f95 	mcr	15, 0, r3, cr7, cr5, {4}
    9218:	ee1c3f10 	mrc	15, 0, r3, cr12, cr0, {0}
    921c:	e59f20f4 	ldr	r2, [pc, #244]	; 9318 <full_except_install+0x17c>
    9220:	e1530002 	cmp	r3, r2
    9224:	0affffe6 	beq	91c4 <full_except_install+0x28>
    9228:	e58d3004 	str	r3, [sp, #4]
    922c:	e58d2000 	str	r2, [sp]
    9230:	e3a0303a 	mov	r3, #58, 0	; 0x3a
    9234:	e59f20e0 	ldr	r2, [pc, #224]	; 931c <full_except_install+0x180>
    9238:	e59f10e0 	ldr	r1, [pc, #224]	; 9320 <full_except_install+0x184>
    923c:	e59f00e4 	ldr	r0, [pc, #228]	; 9328 <full_except_install+0x18c>
    9240:	eb00021b 	bl	9ab4 <printk>
    9244:	eb00034a 	bl	9f74 <clean_reboot>
    9248:	e58d2000 	str	r2, [sp]
    924c:	e3a03032 	mov	r3, #50, 0	; 0x32
    9250:	e59f20c4 	ldr	r2, [pc, #196]	; 931c <full_except_install+0x180>
    9254:	e59f10c4 	ldr	r1, [pc, #196]	; 9320 <full_except_install+0x184>
    9258:	e59f00cc 	ldr	r0, [pc, #204]	; 932c <full_except_install+0x190>
    925c:	eb000214 	bl	9ab4 <printk>
    9260:	eb000343 	bl	9f74 <clean_reboot>
    9264:	e59f30ac 	ldr	r3, [pc, #172]	; 9318 <full_except_install+0x17c>
    9268:	e313001f 	tst	r3, #31, 0
    926c:	0a000007 	beq	9290 <full_except_install+0xf4>
    9270:	e59f30a0 	ldr	r3, [pc, #160]	; 9318 <full_except_install+0x17c>
    9274:	e58d3000 	str	r3, [sp]
    9278:	e3a0302a 	mov	r3, #42, 0	; 0x2a
    927c:	e59f2098 	ldr	r2, [pc, #152]	; 931c <full_except_install+0x180>
    9280:	e59f1098 	ldr	r1, [pc, #152]	; 9320 <full_except_install+0x184>
    9284:	e59f0098 	ldr	r0, [pc, #152]	; 9324 <full_except_install+0x188>
    9288:	eb000209 	bl	9ab4 <printk>
    928c:	eb000338 	bl	9f74 <clean_reboot>
    9290:	ee1c2f10 	mrc	15, 0, r2, cr12, cr0, {0}
    9294:	e1520003 	cmp	r2, r3
    9298:	0affffc9 	beq	91c4 <full_except_install+0x28>
    929c:	e3520000 	cmp	r2, #0, 0
    92a0:	1a00000e 	bne	92e0 <full_except_install+0x144>
    92a4:	ee0c3f10 	mcr	15, 0, r3, cr12, cr0, {0}
    92a8:	e3a03000 	mov	r3, #0, 0
    92ac:	ee073f95 	mcr	15, 0, r3, cr7, cr5, {4}
    92b0:	ee1c3f10 	mrc	15, 0, r3, cr12, cr0, {0}
    92b4:	e59f205c 	ldr	r2, [pc, #92]	; 9318 <full_except_install+0x17c>
    92b8:	e1530002 	cmp	r3, r2
    92bc:	0affffc0 	beq	91c4 <full_except_install+0x28>
    92c0:	e58d3004 	str	r3, [sp, #4]
    92c4:	e58d2000 	str	r2, [sp]
    92c8:	e3a0303a 	mov	r3, #58, 0	; 0x3a
    92cc:	e59f2048 	ldr	r2, [pc, #72]	; 931c <full_except_install+0x180>
    92d0:	e59f1048 	ldr	r1, [pc, #72]	; 9320 <full_except_install+0x184>
    92d4:	e59f004c 	ldr	r0, [pc, #76]	; 9328 <full_except_install+0x18c>
    92d8:	eb0001f5 	bl	9ab4 <printk>
    92dc:	eb000324 	bl	9f74 <clean_reboot>
    92e0:	e58d2000 	str	r2, [sp]
    92e4:	e3a03032 	mov	r3, #50, 0	; 0x32
    92e8:	e59f202c 	ldr	r2, [pc, #44]	; 931c <full_except_install+0x180>
    92ec:	e59f102c 	ldr	r1, [pc, #44]	; 9320 <full_except_install+0x184>
    92f0:	e59f0034 	ldr	r0, [pc, #52]	; 932c <full_except_install+0x190>
    92f4:	eb0001ee 	bl	9ab4 <printk>
    92f8:	eb00031d 	bl	9f74 <clean_reboot>
    92fc:	e58d3000 	str	r3, [sp]
    9300:	e3a03089 	mov	r3, #137, 0	; 0x89
    9304:	e59f2024 	ldr	r2, [pc, #36]	; 9330 <full_except_install+0x194>
    9308:	e59f1024 	ldr	r1, [pc, #36]	; 9334 <full_except_install+0x198>
    930c:	e59f0024 	ldr	r0, [pc, #36]	; 9338 <full_except_install+0x19c>
    9310:	eb0001e7 	bl	9ab4 <printk>
    9314:	eb000316 	bl	9f74 <clean_reboot>
    9318:	00009720 	.word	0x00009720
    931c:	0000b0e0 	.word	0x0000b0e0
    9320:	0000af74 	.word	0x0000af74
    9324:	0000afbc 	.word	0x0000afbc
    9328:	0000b01c 	.word	0x0000b01c
    932c:	0000afe4 	.word	0x0000afe4
    9330:	0000b0f0 	.word	0x0000b0f0
    9334:	0000adf8 	.word	0x0000adf8
    9338:	0000b048 	.word	0x0000b048

0000933c <priv_get_sp_lr_asm>:
    933c:	ea000980 	b	b944 <staff_priv_get_sp_lr_asm>
    9340:	e3a0d409 	mov	sp, #150994944	; 0x9000000
    9344:	e24f0004 	sub	r0, pc, #4, 0
    9348:	e28f1000 	add	r1, pc, #0, 0
    934c:	ea0002e1 	b	9ed8 <asm_not_reached_helper>
    9350:	74697773 	.word	0x74697773
    9354:	6f746863 	.word	0x6f746863
    9358:	6d73612d 	.word	0x6d73612d
    935c:	313a532e 	.word	0x313a532e
    9360:	4e3c3a36 	.word	0x4e3c3a36
    9364:	5220544f 	.word	0x5220544f
    9368:	48434145 	.word	0x48434145
    936c:	003e4445 	.word	0x003e4445

00009370 <switchto_user_asm>:
    9370:	ea000950 	b	b8b8 <staff_switchto_user_asm>
    9374:	e3a0d409 	mov	sp, #150994944	; 0x9000000
    9378:	e24f0004 	sub	r0, pc, #4, 0
    937c:	e28f1000 	add	r1, pc, #0, 0
    9380:	ea0002d4 	b	9ed8 <asm_not_reached_helper>
    9384:	74697773 	.word	0x74697773
    9388:	6f746863 	.word	0x6f746863
    938c:	6d73612d 	.word	0x6d73612d
    9390:	323a532e 	.word	0x323a532e
    9394:	4e3c3a37 	.word	0x4e3c3a37
    9398:	5220544f 	.word	0x5220544f
    939c:	48434145 	.word	0x48434145
    93a0:	003e4445 	.word	0x003e4445

000093a4 <switchto_priv_asm>:
    93a4:	ea000955 	b	b900 <staff_switchto_priv_asm>
    93a8:	e3a0d409 	mov	sp, #150994944	; 0x9000000
    93ac:	e24f0004 	sub	r0, pc, #4, 0
    93b0:	e28f1000 	add	r1, pc, #0, 0
    93b4:	ea0002c7 	b	9ed8 <asm_not_reached_helper>
    93b8:	74697773 	.word	0x74697773
    93bc:	6f746863 	.word	0x6f746863
    93c0:	6d73612d 	.word	0x6d73612d
    93c4:	333a532e 	.word	0x333a532e
    93c8:	4e3c3a34 	.word	0x4e3c3a34
    93cc:	5220544f 	.word	0x5220544f
    93d0:	48434145 	.word	0x48434145
    93d4:	003e4445 	.word	0x003e4445

000093d8 <cswitchto_priv_asm>:
    93d8:	ea000986 	b	b9f8 <staff_cswitchto_priv_asm>
    93dc:	ebfffff0 	bl	93a4 <switchto_priv_asm>
    93e0:	e3a0d409 	mov	sp, #150994944	; 0x9000000
    93e4:	e24f0004 	sub	r0, pc, #4, 0
    93e8:	e28f1000 	add	r1, pc, #0, 0
    93ec:	ea0002b9 	b	9ed8 <asm_not_reached_helper>
    93f0:	74697773 	.word	0x74697773
    93f4:	6f746863 	.word	0x6f746863
    93f8:	6d73612d 	.word	0x6d73612d
    93fc:	363a532e 	.word	0x363a532e
    9400:	4e3c3a31 	.word	0x4e3c3a31
    9404:	5220544f 	.word	0x5220544f
    9408:	48434145 	.word	0x48434145
    940c:	003e4445 	.word	0x003e4445

00009410 <cswitchto_user_asm>:
    9410:	ea000978 	b	b9f8 <staff_cswitchto_priv_asm>
    9414:	e3a0d409 	mov	sp, #150994944	; 0x9000000
    9418:	e24f0004 	sub	r0, pc, #4, 0
    941c:	e28f1000 	add	r1, pc, #0, 0
    9420:	ea0002c0 	b	9f28 <asm_todo_helper>
    9424:	74697773 	.word	0x74697773
    9428:	6f746863 	.word	0x6f746863
    942c:	6d73612d 	.word	0x6d73612d
    9430:	373a532e 	.word	0x373a532e
    9434:	223c3a34 	.word	0x223c3a34
    9438:	65766173 	.word	0x65766173
    943c:	65687420 	.word	0x65687420
    9440:	67657220 	.word	0x67657220
    9444:	65747369 	.word	0x65747369
    9448:	203a7372 	.word	0x203a7372
    944c:	6e656469 	.word	0x6e656469
    9450:	61636974 	.word	0x61636974
    9454:	6f74206c 	.word	0x6f74206c
    9458:	77733c20 	.word	0x77733c20
    945c:	68637469 	.word	0x68637469
    9460:	705f6f74 	.word	0x705f6f74
    9464:	5f766972 	.word	0x5f766972
    9468:	3e6d7361 	.word	0x3e6d7361
    946c:	3e22      	.short	0x3e22
    946e:	00          	.byte	0x00
    946f:	00          	.byte	0x00
    9470:	ebffffbe 	bl	9370 <switchto_user_asm>
    9474:	e3a0d409 	mov	sp, #150994944	; 0x9000000
    9478:	e24f0004 	sub	r0, pc, #4, 0
    947c:	e28f1000 	add	r1, pc, #0, 0
    9480:	ea000294 	b	9ed8 <asm_not_reached_helper>
    9484:	74697773 	.word	0x74697773
    9488:	6f746863 	.word	0x6f746863
    948c:	6d73612d 	.word	0x6d73612d
    9490:	373a532e 	.word	0x373a532e
    9494:	4e3c3a36 	.word	0x4e3c3a36
    9498:	5220544f 	.word	0x5220544f
    949c:	48434145 	.word	0x48434145
    94a0:	003e4445 	.word	0x003e4445
	...

000094c0 <reset>:
    94c0:	e24ee004 	sub	lr, lr, #4, 0
    94c4:	e3a0d409 	mov	sp, #150994944	; 0x9000000
    94c8:	e92d5fff 	push	{r0, r1, r2, r3, r4, r5, r6, r7, r8, r9, sl, fp, ip, lr}
    94cc:	e1a0000e 	mov	r0, lr
    94d0:	eb0002fb 	bl	a0c4 <reset_vector>
    94d4:	e8bd5fff 	pop	{r0, r1, r2, r3, r4, r5, r6, r7, r8, r9, sl, fp, ip, lr}
    94d8:	e1b0f00e 	movs	pc, lr

000094dc <undef>:
    94dc:	e24ee004 	sub	lr, lr, #4, 0
    94e0:	e3a0d409 	mov	sp, #150994944	; 0x9000000
    94e4:	e92d5fff 	push	{r0, r1, r2, r3, r4, r5, r6, r7, r8, r9, sl, fp, ip, lr}
    94e8:	e1a0000e 	mov	r0, lr
    94ec:	eb000303 	bl	a100 <undefined_instruction_vector>
    94f0:	e8bd5fff 	pop	{r0, r1, r2, r3, r4, r5, r6, r7, r8, r9, sl, fp, ip, lr}
    94f4:	e1b0f00e 	movs	pc, lr

000094f8 <prefetch_abort>:
    94f8:	e24ee004 	sub	lr, lr, #4, 0
    94fc:	e3a0d409 	mov	sp, #150994944	; 0x9000000
    9500:	e92d5fff 	push	{r0, r1, r2, r3, r4, r5, r6, r7, r8, r9, sl, fp, ip, lr}
    9504:	e1a0000e 	mov	r0, lr
    9508:	eb0002de 	bl	a088 <prefetch_abort_vector>
    950c:	e8bd5fff 	pop	{r0, r1, r2, r3, r4, r5, r6, r7, r8, r9, sl, fp, ip, lr}
    9510:	e1b0f00e 	movs	pc, lr

00009514 <interrupt>:
    9514:	e24ee004 	sub	lr, lr, #4, 0
    9518:	e3a0d409 	mov	sp, #150994944	; 0x9000000
    951c:	e92d5fff 	push	{r0, r1, r2, r3, r4, r5, r6, r7, r8, r9, sl, fp, ip, lr}
    9520:	e1a0000e 	mov	r0, lr
    9524:	eb0002c8 	bl	a04c <int_vector>
    9528:	e8bd5fff 	pop	{r0, r1, r2, r3, r4, r5, r6, r7, r8, r9, sl, fp, ip, lr}
    952c:	e1b0f00e 	movs	pc, lr

00009530 <prefetch_handler_full>:
    9530:	ea000876 	b	b710 <staff_prefetch_trampoline_full>
    9534:	e3a0d409 	mov	sp, #150994944	; 0x9000000
    9538:	e24ee004 	sub	lr, lr, #4, 0
    953c:	e3a0d409 	mov	sp, #150994944	; 0x9000000
    9540:	e24f0004 	sub	r0, pc, #4, 0
    9544:	e28f1000 	add	r1, pc, #0, 0
    9548:	ea000276 	b	9f28 <asm_todo_helper>
    954c:	6c6c7566 	.word	0x6c6c7566
    9550:	6378652d 	.word	0x6378652d
    9554:	2d747065 	.word	0x2d747065
    9558:	2e6d7361 	.word	0x2e6d7361
    955c:	37383a53 	.word	0x37383a53
    9560:	73223c3a 	.word	0x73223c3a
    9564:	20657661 	.word	0x20657661
    9568:	206c6c61 	.word	0x206c6c61
    956c:	20656874 	.word	0x20656874
    9570:	73676572 	.word	0x73676572
    9574:	206e6920 	.word	0x206e6920
    9578:	65722061 	.word	0x65722061
    957c:	20745f67 	.word	0x20745f67
    9580:	74206e6f 	.word	0x74206e6f
    9584:	73206568 	.word	0x73206568
    9588:	6b636174 	.word	0x6b636174
    958c:	3e22      	.short	0x3e22
    958e:	00          	.byte	0x00
    958f:	00          	.byte	0x00
    9590:	e3a0d409 	mov	sp, #150994944	; 0x9000000
    9594:	e24f0004 	sub	r0, pc, #4, 0
    9598:	e28f1000 	add	r1, pc, #0, 0
    959c:	ea000261 	b	9f28 <asm_todo_helper>
    95a0:	6c6c7566 	.word	0x6c6c7566
    95a4:	6378652d 	.word	0x6378652d
    95a8:	2d747065 	.word	0x2d747065
    95ac:	2e6d7361 	.word	0x2e6d7361
    95b0:	38383a53 	.word	0x38383a53
    95b4:	6d223c3a 	.word	0x6d223c3a
    95b8:	7220766f 	.word	0x7220766f
    95bc:	20736765 	.word	0x20736765
    95c0:	6f746e69 	.word	0x6f746e69
    95c4:	2c307220 	.word	0x2c307220
    95c8:	73707320 	.word	0x73707320
    95cc:	6e692072 	.word	0x6e692072
    95d0:	72206f74 	.word	0x72206f74
    95d4:	70202c31 	.word	0x70202c31
    95d8:	6e692063 	.word	0x6e692063
    95dc:	72206f74 	.word	0x72206f74
    95e0:	003e2232 	.word	0x003e2232
    95e4:	ebfffe1b 	bl	8e58 <prefetch_abort_full_except>
    95e8:	e3a0d409 	mov	sp, #150994944	; 0x9000000
    95ec:	e24f0004 	sub	r0, pc, #4, 0
    95f0:	e28f1000 	add	r1, pc, #0, 0
    95f4:	ea000237 	b	9ed8 <asm_not_reached_helper>
    95f8:	6c6c7566 	.word	0x6c6c7566
    95fc:	6378652d 	.word	0x6378652d
    9600:	2d747065 	.word	0x2d747065
    9604:	2e6d7361 	.word	0x2e6d7361
    9608:	31393a53 	.word	0x31393a53
    960c:	4f4e3c3a 	.word	0x4f4e3c3a
    9610:	45522054 	.word	0x45522054
    9614:	45484341 	.word	0x45484341
    9618:	3e44      	.short	0x3e44
	...

0000961c <data_abort_full>:
    961c:	ea000854 	b	b774 <staff_data_abort_trampoline_full>
    9620:	e3a0d409 	mov	sp, #150994944	; 0x9000000
    9624:	e24f0004 	sub	r0, pc, #4, 0
    9628:	e28f1000 	add	r1, pc, #0, 0
    962c:	ea00023d 	b	9f28 <asm_todo_helper>
    9630:	6c6c7566 	.word	0x6c6c7566
    9634:	6378652d 	.word	0x6378652d
    9638:	2d747065 	.word	0x2d747065
    963c:	2e6d7361 	.word	0x2e6d7361
    9640:	30313a53 	.word	0x30313a53
    9644:	223c3a32 	.word	0x223c3a32
    9648:	6c706d69 	.word	0x6c706d69
    964c:	6e656d65 	.word	0x6e656d65
    9650:	003e2274 	.word	0x003e2274
    9654:	ebfffe39 	bl	8f40 <data_abort_full_except>
    9658:	e3a0d409 	mov	sp, #150994944	; 0x9000000
    965c:	e24f0004 	sub	r0, pc, #4, 0
    9660:	e28f1000 	add	r1, pc, #0, 0
    9664:	ea00021b 	b	9ed8 <asm_not_reached_helper>
    9668:	6c6c7566 	.word	0x6c6c7566
    966c:	6378652d 	.word	0x6378652d
    9670:	2d747065 	.word	0x2d747065
    9674:	2e6d7361 	.word	0x2e6d7361
    9678:	30313a53 	.word	0x30313a53
    967c:	4e3c3a34 	.word	0x4e3c3a34
    9680:	5220544f 	.word	0x5220544f
    9684:	48434145 	.word	0x48434145
    9688:	003e4445 	.word	0x003e4445

0000968c <syscall_full>:
    968c:	ea000851 	b	b7d8 <staff_syscall_trampoline_full>
    9690:	e3a0d409 	mov	sp, #150994944	; 0x9000000
    9694:	e24f0004 	sub	r0, pc, #4, 0
    9698:	e28f1000 	add	r1, pc, #0, 0
    969c:	ea000221 	b	9f28 <asm_todo_helper>
    96a0:	6c6c7566 	.word	0x6c6c7566
    96a4:	6378652d 	.word	0x6378652d
    96a8:	2d747065 	.word	0x2d747065
    96ac:	2e6d7361 	.word	0x2e6d7361
    96b0:	31313a53 	.word	0x31313a53
    96b4:	223c3a36 	.word	0x223c3a36
    96b8:	6c706d69 	.word	0x6c706d69
    96bc:	6e656d65 	.word	0x6e656d65
    96c0:	64203a74 	.word	0x64203a74
    96c4:	6f6e206f 	.word	0x6f6e206f
    96c8:	65732074 	.word	0x65732074
    96cc:	70732074 	.word	0x70732074
    96d0:	003e2221 	.word	0x003e2221
    96d4:	ebfffe53 	bl	9028 <syscall_full_except>
    96d8:	e3a0d409 	mov	sp, #150994944	; 0x9000000
    96dc:	e24f0004 	sub	r0, pc, #4, 0
    96e0:	e28f1000 	add	r1, pc, #0, 0
    96e4:	ea0001fb 	b	9ed8 <asm_not_reached_helper>
    96e8:	6c6c7566 	.word	0x6c6c7566
    96ec:	6378652d 	.word	0x6378652d
    96f0:	2d747065 	.word	0x2d747065
    96f4:	2e6d7361 	.word	0x2e6d7361
    96f8:	31313a53 	.word	0x31313a53
    96fc:	4e3c3a39 	.word	0x4e3c3a39
    9700:	5220544f 	.word	0x5220544f
    9704:	48434145 	.word	0x48434145
    9708:	003e4445 	.word	0x003e4445
    970c:	e320f000 	nop	{0}
    9710:	e320f000 	nop	{0}
    9714:	e320f000 	nop	{0}
    9718:	e320f000 	nop	{0}
    971c:	e320f000 	nop	{0}

00009720 <full_except_ints>:
    9720:	eaffff66 	b	94c0 <reset>
    9724:	eaffff6c 	b	94dc <undef>
    9728:	eaffffd7 	b	968c <syscall_full>
    972c:	eaffff7f 	b	9530 <prefetch_handler_full>
    9730:	eaffffb9 	b	961c <data_abort_full>
    9734:	eaffff61 	b	94c0 <reset>
    9738:	eaffff75 	b	9514 <interrupt>
    973c:	eaffffff 	b	9740 <bad_exception>

00009740 <bad_exception>:
    9740:	e3a0d409 	mov	sp, #150994944	; 0x9000000
    9744:	e24f0004 	sub	r0, pc, #4, 0
    9748:	e28f1000 	add	r1, pc, #0, 0
    974c:	ea000202 	b	9f5c <asm_bad_exception_helper>
    9750:	6c6c7566 	.word	0x6c6c7566
    9754:	6378652d 	.word	0x6378652d
    9758:	2d747065 	.word	0x2d747065
    975c:	2e6d7361 	.word	0x2e6d7361
    9760:	34313a53 	.word	0x34313a53
    9764:	223c3a31 	.word	0x223c3a31
    9768:	756f6873 	.word	0x756f6873
    976c:	6e20646c 	.word	0x6e20646c
    9770:	7220746f 	.word	0x7220746f
    9774:	68636165 	.word	0x68636165
    9778:	72656820 	.word	0x72656820
    977c:	003e2265 	.word	0x003e2265

00009780 <syscall_trampoline>:
    9780:	e52de004 	push	{lr}		; (str lr, [sp, #-4]!)
    9784:	ef000001 	svc	0x00000001
    9788:	e49de004 	pop	{lr}		; (ldr lr, [sp], #4)
    978c:	e12fff1e 	bx	lr

00009790 <uart_init>:
    9790:	e92d4010 	push	{r4, lr}
    9794:	e59f407c 	ldr	r4, [pc, #124]	; 9818 <uart_init+0x88>
    9798:	e5940000 	ldr	r0, [r4]
    979c:	ebfffa22 	bl	802c <GET32>
    97a0:	e6ef1070 	uxtb	r1, r0
    97a4:	e3811001 	orr	r1, r1, #1, 0
    97a8:	e5940000 	ldr	r0, [r4]
    97ac:	ebfffa1c 	bl	8024 <PUT32>
    97b0:	e3a01000 	mov	r1, #0, 0
    97b4:	e5940004 	ldr	r0, [r4, #4]
    97b8:	ebfffa19 	bl	8024 <PUT32>
    97bc:	e3a01006 	mov	r1, #6, 0
    97c0:	e5940008 	ldr	r0, [r4, #8]
    97c4:	ebfffa16 	bl	8024 <PUT32>
    97c8:	e3a01000 	mov	r1, #0, 0
    97cc:	e594000c 	ldr	r0, [r4, #12]
    97d0:	ebfffa13 	bl	8024 <PUT32>
    97d4:	e59f1040 	ldr	r1, [pc, #64]	; 981c <uart_init+0x8c>
    97d8:	e5940010 	ldr	r0, [r4, #16]
    97dc:	ebfffa10 	bl	8024 <PUT32>
    97e0:	e3a01003 	mov	r1, #3, 0
    97e4:	e5940014 	ldr	r0, [r4, #20]
    97e8:	ebfffa0d 	bl	8024 <PUT32>
    97ec:	eb000252 	bl	a13c <dev_barrier>
    97f0:	e3a01002 	mov	r1, #2, 0
    97f4:	e3a0000e 	mov	r0, #14, 0
    97f8:	eb0003c7 	bl	a71c <gpio_set_function>
    97fc:	e3a01002 	mov	r1, #2, 0
    9800:	e3a0000f 	mov	r0, #15, 0
    9804:	eb0003c4 	bl	a71c <gpio_set_function>
    9808:	e3a01003 	mov	r1, #3, 0
    980c:	e5940004 	ldr	r0, [r4, #4]
    9810:	ebfffa03 	bl	8024 <PUT32>
    9814:	e8bd8010 	pop	{r4, pc}
    9818:	0000bb34 	.word	0x0000bb34
    981c:	0000010e 	.word	0x0000010e

00009820 <uart_get8>:
    9820:	e92d4010 	push	{r4, lr}
    9824:	e59f3020 	ldr	r3, [pc, #32]	; 984c <uart_get8+0x2c>
    9828:	e5930018 	ldr	r0, [r3, #24]
    982c:	ebfff9fe 	bl	802c <GET32>
    9830:	e3100001 	tst	r0, #1, 0
    9834:	0afffffa 	beq	9824 <uart_get8+0x4>
    9838:	e59f300c 	ldr	r3, [pc, #12]	; 984c <uart_get8+0x2c>
    983c:	e593001c 	ldr	r0, [r3, #28]
    9840:	ebfff9f9 	bl	802c <GET32>
    9844:	e6ef0070 	uxtb	r0, r0
    9848:	e8bd8010 	pop	{r4, pc}
    984c:	0000bb34 	.word	0x0000bb34

00009850 <uart_can_put8>:
    9850:	e92d4010 	push	{r4, lr}
    9854:	e59f301c 	ldr	r3, [pc, #28]	; 9878 <uart_can_put8+0x28>
    9858:	e5930018 	ldr	r0, [r3, #24]
    985c:	ebfff9f2 	bl	802c <GET32>
    9860:	e3100020 	tst	r0, #32, 0
    9864:	1a000001 	bne	9870 <uart_can_put8+0x20>
    9868:	e3a00000 	mov	r0, #0, 0
    986c:	e8bd8010 	pop	{r4, pc}
    9870:	e3a00001 	mov	r0, #1, 0
    9874:	e8bd8010 	pop	{r4, pc}
    9878:	0000bb34 	.word	0x0000bb34

0000987c <uart_put8>:
    987c:	e92d4010 	push	{r4, lr}
    9880:	e1a04000 	mov	r4, r0
    9884:	e59f3024 	ldr	r3, [pc, #36]	; 98b0 <uart_put8+0x34>
    9888:	e5930018 	ldr	r0, [r3, #24]
    988c:	ebfff9e6 	bl	802c <GET32>
    9890:	e3100020 	tst	r0, #32, 0
    9894:	0afffffa 	beq	9884 <uart_put8+0x8>
    9898:	e1a01004 	mov	r1, r4
    989c:	e59f300c 	ldr	r3, [pc, #12]	; 98b0 <uart_put8+0x34>
    98a0:	e593001c 	ldr	r0, [r3, #28]
    98a4:	ebfff9de 	bl	8024 <PUT32>
    98a8:	e3a00000 	mov	r0, #0, 0
    98ac:	e8bd8010 	pop	{r4, pc}
    98b0:	0000bb34 	.word	0x0000bb34

000098b4 <uart_has_data>:
    98b4:	e92d4010 	push	{r4, lr}
    98b8:	e59f301c 	ldr	r3, [pc, #28]	; 98dc <uart_has_data+0x28>
    98bc:	e5930018 	ldr	r0, [r3, #24]
    98c0:	ebfff9d9 	bl	802c <GET32>
    98c4:	e3100001 	tst	r0, #1, 0
    98c8:	1a000001 	bne	98d4 <uart_has_data+0x20>
    98cc:	e3a00000 	mov	r0, #0, 0
    98d0:	e8bd8010 	pop	{r4, pc}
    98d4:	e3a00001 	mov	r0, #1, 0
    98d8:	e8bd8010 	pop	{r4, pc}
    98dc:	0000bb34 	.word	0x0000bb34

000098e0 <uart_get8_async>:
    98e0:	e92d4010 	push	{r4, lr}
    98e4:	ebfffff2 	bl	98b4 <uart_has_data>
    98e8:	e3500000 	cmp	r0, #0, 0
    98ec:	0a000001 	beq	98f8 <uart_get8_async+0x18>
    98f0:	ebffffca 	bl	9820 <uart_get8>
    98f4:	e8bd8010 	pop	{r4, pc}
    98f8:	e3e00000 	mvn	r0, #0, 0
    98fc:	e8bd8010 	pop	{r4, pc}

00009900 <uart_tx_is_empty>:
    9900:	e92d4010 	push	{r4, lr}
    9904:	e59f301c 	ldr	r3, [pc, #28]	; 9928 <uart_tx_is_empty+0x28>
    9908:	e5930018 	ldr	r0, [r3, #24]
    990c:	ebfff9c6 	bl	802c <GET32>
    9910:	e3100040 	tst	r0, #64, 0	; 0x40
    9914:	1a000001 	bne	9920 <uart_tx_is_empty+0x20>
    9918:	e3a00000 	mov	r0, #0, 0
    991c:	e8bd8010 	pop	{r4, pc}
    9920:	e3a00001 	mov	r0, #1, 0
    9924:	e8bd8010 	pop	{r4, pc}
    9928:	0000bb34 	.word	0x0000bb34

0000992c <uart_flush_tx>:
    992c:	e92d4010 	push	{r4, lr}
    9930:	ebfffff2 	bl	9900 <uart_tx_is_empty>
    9934:	e3500000 	cmp	r0, #0, 0
    9938:	0afffffc 	beq	9930 <uart_flush_tx+0x4>
    993c:	e8bd8010 	pop	{r4, pc}

00009940 <uart_disable>:
    9940:	e92d4010 	push	{r4, lr}
    9944:	ebfffff8 	bl	992c <uart_flush_tx>
    9948:	e59f4014 	ldr	r4, [pc, #20]	; 9964 <uart_disable+0x24>
    994c:	e5940000 	ldr	r0, [r4]
    9950:	ebfff9b5 	bl	802c <GET32>
    9954:	e3a01000 	mov	r1, #0, 0
    9958:	e5940000 	ldr	r0, [r4]
    995c:	ebfff9b0 	bl	8024 <PUT32>
    9960:	e8bd8010 	pop	{r4, pc}
    9964:	0000bb34 	.word	0x0000bb34

00009968 <memcpy>:
    9968:	e3100007 	tst	r0, #7, 0
    996c:	1a00000f 	bne	99b0 <memcpy+0x48>
    9970:	e3110007 	tst	r1, #7, 0
    9974:	1a00000d 	bne	99b0 <memcpy+0x48>
    9978:	e2123007 	ands	r3, r2, #7, 0
    997c:	1a00000b 	bne	99b0 <memcpy+0x48>
    9980:	e1a021a2 	lsr	r2, r2, #3
    9984:	e1530002 	cmp	r3, r2
    9988:	212fff1e 	bxcs	lr
    998c:	e92d0030 	push	{r4, r5}
    9990:	e1a0c183 	lsl	ip, r3, #3
    9994:	e18140dc 	ldrd	r4, [r1, ip]
    9998:	e18040fc 	strd	r4, [r0, ip]
    999c:	e2833001 	add	r3, r3, #1, 0
    99a0:	e1530002 	cmp	r3, r2
    99a4:	3afffff9 	bcc	9990 <memcpy+0x28>
    99a8:	e8bd0030 	pop	{r4, r5}
    99ac:	e12fff1e 	bx	lr
    99b0:	e2103003 	ands	r3, r0, #3, 0
    99b4:	1a000011 	bne	9a00 <memcpy+0x98>
    99b8:	e211c003 	ands	ip, r1, #3, 0
    99bc:	1a00000c 	bne	99f4 <memcpy+0x8c>
    99c0:	e2123003 	ands	r3, r2, #3, 0
    99c4:	1a00000f 	bne	9a08 <memcpy+0xa0>
    99c8:	e1a02122 	lsr	r2, r2, #2
    99cc:	ea000002 	b	99dc <memcpy+0x74>
    99d0:	e791c103 	ldr	ip, [r1, r3, lsl #2]
    99d4:	e780c103 	str	ip, [r0, r3, lsl #2]
    99d8:	e2833001 	add	r3, r3, #1, 0
    99dc:	e1530002 	cmp	r3, r2
    99e0:	3afffffa 	bcc	99d0 <memcpy+0x68>
    99e4:	e12fff1e 	bx	lr
    99e8:	e7d1c003 	ldrb	ip, [r1, r3]
    99ec:	e7c0c003 	strb	ip, [r0, r3]
    99f0:	e2833001 	add	r3, r3, #1, 0
    99f4:	e1530002 	cmp	r3, r2
    99f8:	3afffffa 	bcc	99e8 <memcpy+0x80>
    99fc:	e12fff1e 	bx	lr
    9a00:	e3a03000 	mov	r3, #0, 0
    9a04:	eafffffa 	b	99f4 <memcpy+0x8c>
    9a08:	e1a0300c 	mov	r3, ip
    9a0c:	eafffff8 	b	99f4 <memcpy+0x8c>

00009a10 <memcpy_end>:
    9a10:	e12fff1e 	bx	lr

00009a14 <memset>:
    9a14:	e3520000 	cmp	r2, #0, 0
    9a18:	012fff1e 	bxeq	lr
    9a1c:	e3510000 	cmp	r1, #0, 0
    9a20:	1a000007 	bne	9a44 <memset+0x30>
    9a24:	e3100007 	tst	r0, #7, 0
    9a28:	1a000001 	bne	9a34 <memset+0x20>
    9a2c:	e3120007 	tst	r2, #7, 0
    9a30:	0a000011 	beq	9a7c <memset+0x68>
    9a34:	e3100003 	tst	r0, #3, 0
    9a38:	1a000001 	bne	9a44 <memset+0x30>
    9a3c:	e3120003 	tst	r2, #3, 0
    9a40:	0a000001 	beq	9a4c <memset+0x38>
    9a44:	e0802002 	add	r2, r0, r2
    9a48:	ea000008 	b	9a70 <memset+0x5c>
    9a4c:	e1a02122 	lsr	r2, r2, #2
    9a50:	ea000001 	b	9a5c <memset+0x48>
    9a54:	e4801004 	str	r1, [r0], #4
    9a58:	e1a02003 	mov	r2, r3
    9a5c:	e2423001 	sub	r3, r2, #1, 0
    9a60:	e3520000 	cmp	r2, #0, 0
    9a64:	1afffffa 	bne	9a54 <memset+0x40>
    9a68:	e12fff1e 	bx	lr
    9a6c:	e4c01001 	strb	r1, [r0], #1
    9a70:	e1500002 	cmp	r0, r2
    9a74:	3afffffc 	bcc	9a6c <memset+0x58>
    9a78:	e12fff1e 	bx	lr
    9a7c:	e1a021a2 	lsr	r2, r2, #3
    9a80:	e2423001 	sub	r3, r2, #1, 0
    9a84:	e3520000 	cmp	r2, #0, 0
    9a88:	012fff1e 	bxeq	lr
    9a8c:	e92d0030 	push	{r4, r5}
    9a90:	e1a04001 	mov	r4, r1
    9a94:	e1a05fc1 	asr	r5, r1, #31
    9a98:	e0c040f8 	strd	r4, [r0], #8
    9a9c:	e1a02003 	mov	r2, r3
    9aa0:	e2433001 	sub	r3, r3, #1, 0
    9aa4:	e3520000 	cmp	r2, #0, 0
    9aa8:	1afffff8 	bne	9a90 <memset+0x7c>
    9aac:	e8bd0030 	pop	{r4, r5}
    9ab0:	e12fff1e 	bx	lr

00009ab4 <printk>:
    9ab4:	e92d000f 	push	{r0, r1, r2, r3}
    9ab8:	e52de004 	push	{lr}		; (str lr, [sp, #-4]!)
    9abc:	e24dd00c 	sub	sp, sp, #12, 0
    9ac0:	e28d1014 	add	r1, sp, #20, 0
    9ac4:	e58d1004 	str	r1, [sp, #4]
    9ac8:	e59d0010 	ldr	r0, [sp, #16]
    9acc:	eb000047 	bl	9bf0 <vprintk>
    9ad0:	e28dd00c 	add	sp, sp, #12, 0
    9ad4:	e49de004 	pop	{lr}		; (ldr lr, [sp], #4)
    9ad8:	e28dd010 	add	sp, sp, #16, 0
    9adc:	e12fff1e 	bx	lr

00009ae0 <emit_val>:
    9ae0:	e92d4010 	push	{r4, lr}
    9ae4:	e24dd030 	sub	sp, sp, #48, 0	; 0x30
    9ae8:	e350000a 	cmp	r0, #10, 0
    9aec:	0a000014 	beq	9b44 <emit_val+0x64>
    9af0:	e3500010 	cmp	r0, #16, 0
    9af4:	0a000022 	beq	9b84 <emit_val+0xa4>
    9af8:	e3500002 	cmp	r0, #2, 0
    9afc:	0a000006 	beq	9b1c <emit_val+0x3c>
    9b00:	e58d0000 	str	r0, [sp]
    9b04:	e3a0301b 	mov	r3, #27, 0
    9b08:	e59f20c0 	ldr	r2, [pc, #192]	; 9bd0 <emit_val+0xf0>
    9b0c:	e59f10c0 	ldr	r1, [pc, #192]	; 9bd4 <emit_val+0xf4>
    9b10:	e59f00c0 	ldr	r0, [pc, #192]	; 9bd8 <emit_val+0xf8>
    9b14:	ebffffe6 	bl	9ab4 <printk>
    9b18:	eb000115 	bl	9f74 <clean_reboot>
    9b1c:	e28d400c 	add	r4, sp, #12, 0
    9b20:	e2012001 	and	r2, r1, #1, 0
    9b24:	e59f00b0 	ldr	r0, [pc, #176]	; 9bdc <emit_val+0xfc>
    9b28:	e7d02002 	ldrb	r2, [r0, r2]
    9b2c:	e5c42000 	strb	r2, [r4]
    9b30:	e2844001 	add	r4, r4, #1, 0
    9b34:	e3510001 	cmp	r1, #1, 0
    9b38:	e1a010a1 	lsr	r1, r1, #1
    9b3c:	8afffff7 	bhi	9b20 <emit_val+0x40>
    9b40:	ea00001d 	b	9bbc <emit_val+0xdc>
    9b44:	e28d400c 	add	r4, sp, #12, 0
    9b48:	e59f3090 	ldr	r3, [pc, #144]	; 9be0 <emit_val+0x100>
    9b4c:	e0832193 	umull	r2, r3, r3, r1
    9b50:	e1a031a3 	lsr	r3, r3, #3
    9b54:	e1a00003 	mov	r0, r3
    9b58:	e0833103 	add	r3, r3, r3, lsl #2
    9b5c:	e0413083 	sub	r3, r1, r3, lsl #1
    9b60:	e59fc07c 	ldr	ip, [pc, #124]	; 9be4 <emit_val+0x104>
    9b64:	e7dcc003 	ldrb	ip, [ip, r3]
    9b68:	e5c4c000 	strb	ip, [r4]
    9b6c:	e2844001 	add	r4, r4, #1, 0
    9b70:	e1a03001 	mov	r3, r1
    9b74:	e1a01000 	mov	r1, r0
    9b78:	e3530009 	cmp	r3, #9, 0
    9b7c:	8afffff1 	bhi	9b48 <emit_val+0x68>
    9b80:	ea00000d 	b	9bbc <emit_val+0xdc>
    9b84:	e28d400c 	add	r4, sp, #12, 0
    9b88:	e201200f 	and	r2, r1, #15, 0
    9b8c:	e59f0054 	ldr	r0, [pc, #84]	; 9be8 <emit_val+0x108>
    9b90:	e7d02002 	ldrb	r2, [r0, r2]
    9b94:	e5c42000 	strb	r2, [r4]
    9b98:	e2844001 	add	r4, r4, #1, 0
    9b9c:	e351000f 	cmp	r1, #15, 0
    9ba0:	e1a01221 	lsr	r1, r1, #4
    9ba4:	8afffff7 	bhi	9b88 <emit_val+0xa8>
    9ba8:	ea000003 	b	9bbc <emit_val+0xdc>
    9bac:	e59f3038 	ldr	r3, [pc, #56]	; 9bec <emit_val+0x10c>
    9bb0:	e5933000 	ldr	r3, [r3]
    9bb4:	e5740001 	ldrb	r0, [r4, #-1]!
    9bb8:	e12fff33 	blx	r3
    9bbc:	e28d300c 	add	r3, sp, #12, 0
    9bc0:	e1540003 	cmp	r4, r3
    9bc4:	8afffff8 	bhi	9bac <emit_val+0xcc>
    9bc8:	e28dd030 	add	sp, sp, #48, 0	; 0x30
    9bcc:	e8bd8010 	pop	{r4, pc}
    9bd0:	0000b1bc 	.word	0x0000b1bc
    9bd4:	0000b104 	.word	0x0000b104
    9bd8:	0000b114 	.word	0x0000b114
    9bdc:	0000b138 	.word	0x0000b138
    9be0:	cccccccd 	.word	0xcccccccd
    9be4:	0000b13c 	.word	0x0000b13c
    9be8:	0000b148 	.word	0x0000b148
    9bec:	0000bb58 	.word	0x0000bb58

00009bf0 <vprintk>:
    9bf0:	e92d4030 	push	{r4, r5, lr}
    9bf4:	e24dd014 	sub	sp, sp, #20, 0
    9bf8:	e1a04000 	mov	r4, r0
    9bfc:	e58d100c 	str	r1, [sp, #12]
    9c00:	ea000003 	b	9c14 <vprintk+0x24>
    9c04:	e59f3288 	ldr	r3, [pc, #648]	; 9e94 <vprintk+0x2a4>
    9c08:	e5933000 	ldr	r3, [r3]
    9c0c:	e12fff33 	blx	r3
    9c10:	e2844001 	add	r4, r4, #1, 0
    9c14:	e5d40000 	ldrb	r0, [r4]
    9c18:	e3500000 	cmp	r0, #0, 0
    9c1c:	0a00009a 	beq	9e8c <vprintk+0x29c>
    9c20:	e3500025 	cmp	r0, #37, 0	; 0x25
    9c24:	1afffff6 	bne	9c04 <vprintk+0x14>
    9c28:	e2845001 	add	r5, r4, #1, 0
    9c2c:	e5d42001 	ldrb	r2, [r4, #1]
    9c30:	e2423062 	sub	r3, r2, #98, 0	; 0x62
    9c34:	e3530016 	cmp	r3, #22, 0
    9c38:	979ff103 	ldrls	pc, [pc, r3, lsl #2]
    9c3c:	ea00008b 	b	9e70 <vprintk+0x280>
    9c40:	00009c9c 	.word	0x00009c9c
    9c44:	00009cdc 	.word	0x00009cdc
    9c48:	00009df4 	.word	0x00009df4
    9c4c:	00009e70 	.word	0x00009e70
    9c50:	00009e70 	.word	0x00009e70
    9c54:	00009e70 	.word	0x00009e70
    9c58:	00009e70 	.word	0x00009e70
    9c5c:	00009e70 	.word	0x00009e70
    9c60:	00009e70 	.word	0x00009e70
    9c64:	00009e70 	.word	0x00009e70
    9c68:	00009d00 	.word	0x00009d00
    9c6c:	00009e70 	.word	0x00009e70
    9c70:	00009e70 	.word	0x00009e70
    9c74:	00009e70 	.word	0x00009e70
    9c78:	00009db8 	.word	0x00009db8
    9c7c:	00009e70 	.word	0x00009e70
    9c80:	00009e70 	.word	0x00009e70
    9c84:	00009e38 	.word	0x00009e38
    9c88:	00009e70 	.word	0x00009e70
    9c8c:	00009cbc 	.word	0x00009cbc
    9c90:	00009e70 	.word	0x00009e70
    9c94:	00009e70 	.word	0x00009e70
    9c98:	00009db8 	.word	0x00009db8
    9c9c:	e59d300c 	ldr	r3, [sp, #12]
    9ca0:	e2832004 	add	r2, r3, #4, 0
    9ca4:	e58d200c 	str	r2, [sp, #12]
    9ca8:	e5931000 	ldr	r1, [r3]
    9cac:	e3a00002 	mov	r0, #2, 0
    9cb0:	ebffff8a 	bl	9ae0 <emit_val>
    9cb4:	e1a04005 	mov	r4, r5
    9cb8:	eaffffd4 	b	9c10 <vprintk+0x20>
    9cbc:	e59d300c 	ldr	r3, [sp, #12]
    9cc0:	e2832004 	add	r2, r3, #4, 0
    9cc4:	e58d200c 	str	r2, [sp, #12]
    9cc8:	e5931000 	ldr	r1, [r3]
    9ccc:	e3a0000a 	mov	r0, #10, 0
    9cd0:	ebffff82 	bl	9ae0 <emit_val>
    9cd4:	e1a04005 	mov	r4, r5
    9cd8:	eaffffcc 	b	9c10 <vprintk+0x20>
    9cdc:	e59f31b0 	ldr	r3, [pc, #432]	; 9e94 <vprintk+0x2a4>
    9ce0:	e5932000 	ldr	r2, [r3]
    9ce4:	e59d300c 	ldr	r3, [sp, #12]
    9ce8:	e2831004 	add	r1, r3, #4, 0
    9cec:	e58d100c 	str	r1, [sp, #12]
    9cf0:	e5930000 	ldr	r0, [r3]
    9cf4:	e12fff32 	blx	r2
    9cf8:	e1a04005 	mov	r4, r5
    9cfc:	eaffffc3 	b	9c10 <vprintk+0x20>
    9d00:	e2842002 	add	r2, r4, #2, 0
    9d04:	e5d43002 	ldrb	r3, [r4, #2]
    9d08:	e353006c 	cmp	r3, #108, 0	; 0x6c
    9d0c:	1a000018 	bne	9d74 <vprintk+0x184>
    9d10:	e2845003 	add	r5, r4, #3, 0
    9d14:	e5d43003 	ldrb	r3, [r4, #3]
    9d18:	e3530078 	cmp	r3, #120, 0	; 0x78
    9d1c:	1a00001b 	bne	9d90 <vprintk+0x1a0>
    9d20:	e59f416c 	ldr	r4, [pc, #364]	; 9e94 <vprintk+0x2a4>
    9d24:	e5943000 	ldr	r3, [r4]
    9d28:	e3a00030 	mov	r0, #48, 0	; 0x30
    9d2c:	e12fff33 	blx	r3
    9d30:	e5943000 	ldr	r3, [r4]
    9d34:	e3a00078 	mov	r0, #120, 0	; 0x78
    9d38:	e12fff33 	blx	r3
    9d3c:	e59d300c 	ldr	r3, [sp, #12]
    9d40:	e2833007 	add	r3, r3, #7, 0
    9d44:	e3c33007 	bic	r3, r3, #7, 0
    9d48:	e2832008 	add	r2, r3, #8, 0
    9d4c:	e58d200c 	str	r2, [sp, #12]
    9d50:	e5934000 	ldr	r4, [r3]
    9d54:	e5931004 	ldr	r1, [r3, #4]
    9d58:	e3510000 	cmp	r1, #0, 0
    9d5c:	1a000012 	bne	9dac <vprintk+0x1bc>
    9d60:	e1a01004 	mov	r1, r4
    9d64:	e3a00010 	mov	r0, #16, 0
    9d68:	ebffff5c 	bl	9ae0 <emit_val>
    9d6c:	e1a04005 	mov	r4, r5
    9d70:	eaffffa6 	b	9c10 <vprintk+0x20>
    9d74:	e58d2000 	str	r2, [sp]
    9d78:	e3a0303b 	mov	r3, #59, 0	; 0x3b
    9d7c:	e59f2114 	ldr	r2, [pc, #276]	; 9e98 <vprintk+0x2a8>
    9d80:	e59f1114 	ldr	r1, [pc, #276]	; 9e9c <vprintk+0x2ac>
    9d84:	e59f0114 	ldr	r0, [pc, #276]	; 9ea0 <vprintk+0x2b0>
    9d88:	ebffff49 	bl	9ab4 <printk>
    9d8c:	eb000078 	bl	9f74 <clean_reboot>
    9d90:	e58d5000 	str	r5, [sp]
    9d94:	e3a0303e 	mov	r3, #62, 0	; 0x3e
    9d98:	e59f20f8 	ldr	r2, [pc, #248]	; 9e98 <vprintk+0x2a8>
    9d9c:	e59f10f8 	ldr	r1, [pc, #248]	; 9e9c <vprintk+0x2ac>
    9da0:	e59f00f8 	ldr	r0, [pc, #248]	; 9ea0 <vprintk+0x2b0>
    9da4:	ebffff42 	bl	9ab4 <printk>
    9da8:	eb000071 	bl	9f74 <clean_reboot>
    9dac:	e3a00010 	mov	r0, #16, 0
    9db0:	ebffff4a 	bl	9ae0 <emit_val>
    9db4:	eaffffe9 	b	9d60 <vprintk+0x170>
    9db8:	e59f40d4 	ldr	r4, [pc, #212]	; 9e94 <vprintk+0x2a4>
    9dbc:	e5943000 	ldr	r3, [r4]
    9dc0:	e3a00030 	mov	r0, #48, 0	; 0x30
    9dc4:	e12fff33 	blx	r3
    9dc8:	e5943000 	ldr	r3, [r4]
    9dcc:	e3a00078 	mov	r0, #120, 0	; 0x78
    9dd0:	e12fff33 	blx	r3
    9dd4:	e59d300c 	ldr	r3, [sp, #12]
    9dd8:	e2832004 	add	r2, r3, #4, 0
    9ddc:	e58d200c 	str	r2, [sp, #12]
    9de0:	e5931000 	ldr	r1, [r3]
    9de4:	e3a00010 	mov	r0, #16, 0
    9de8:	ebffff3c 	bl	9ae0 <emit_val>
    9dec:	e1a04005 	mov	r4, r5
    9df0:	eaffff86 	b	9c10 <vprintk+0x20>
    9df4:	e59d300c 	ldr	r3, [sp, #12]
    9df8:	e2832004 	add	r2, r3, #4, 0
    9dfc:	e58d200c 	str	r2, [sp, #12]
    9e00:	e5934000 	ldr	r4, [r3]
    9e04:	e3540000 	cmp	r4, #0, 0
    9e08:	ba000004 	blt	9e20 <vprintk+0x230>
    9e0c:	e1a01004 	mov	r1, r4
    9e10:	e3a0000a 	mov	r0, #10, 0
    9e14:	ebffff31 	bl	9ae0 <emit_val>
    9e18:	e1a04005 	mov	r4, r5
    9e1c:	eaffff7b 	b	9c10 <vprintk+0x20>
    9e20:	e59f306c 	ldr	r3, [pc, #108]	; 9e94 <vprintk+0x2a4>
    9e24:	e5933000 	ldr	r3, [r3]
    9e28:	e3a0002d 	mov	r0, #45, 0	; 0x2d
    9e2c:	e12fff33 	blx	r3
    9e30:	e2644000 	rsb	r4, r4, #0, 0
    9e34:	eafffff4 	b	9e0c <vprintk+0x21c>
    9e38:	e59d300c 	ldr	r3, [sp, #12]
    9e3c:	e2832004 	add	r2, r3, #4, 0
    9e40:	e58d200c 	str	r2, [sp, #12]
    9e44:	e5934000 	ldr	r4, [r3]
    9e48:	e5d40000 	ldrb	r0, [r4]
    9e4c:	e3500000 	cmp	r0, #0, 0
    9e50:	0a000004 	beq	9e68 <vprintk+0x278>
    9e54:	e59f3038 	ldr	r3, [pc, #56]	; 9e94 <vprintk+0x2a4>
    9e58:	e5933000 	ldr	r3, [r3]
    9e5c:	e12fff33 	blx	r3
    9e60:	e2844001 	add	r4, r4, #1, 0
    9e64:	eafffff7 	b	9e48 <vprintk+0x258>
    9e68:	e1a04005 	mov	r4, r5
    9e6c:	eaffff67 	b	9c10 <vprintk+0x20>
    9e70:	e58d2000 	str	r2, [sp]
    9e74:	e3a03062 	mov	r3, #98, 0	; 0x62
    9e78:	e59f2018 	ldr	r2, [pc, #24]	; 9e98 <vprintk+0x2a8>
    9e7c:	e59f1018 	ldr	r1, [pc, #24]	; 9e9c <vprintk+0x2ac>
    9e80:	e59f001c 	ldr	r0, [pc, #28]	; 9ea4 <vprintk+0x2b4>
    9e84:	ebffff0a 	bl	9ab4 <printk>
    9e88:	eb000039 	bl	9f74 <clean_reboot>
    9e8c:	e28dd014 	add	sp, sp, #20, 0
    9e90:	e8bd8030 	pop	{r4, r5, pc}
    9e94:	0000bb58 	.word	0x0000bb58
    9e98:	0000b1c8 	.word	0x0000b1c8
    9e9c:	0000b104 	.word	0x0000b104
    9ea0:	0000b15c 	.word	0x0000b15c
    9ea4:	0000b194 	.word	0x0000b194

00009ea8 <default_putchar>:
    9ea8:	e92d4010 	push	{r4, lr}
    9eac:	e1a04000 	mov	r4, r0
    9eb0:	e6ef0070 	uxtb	r0, r0
    9eb4:	ebfffe70 	bl	987c <uart_put8>
    9eb8:	e1a00004 	mov	r0, r4
    9ebc:	e8bd8010 	pop	{r4, pc}

00009ec0 <rpi_putchar_set>:
    9ec0:	e59f300c 	ldr	r3, [pc, #12]	; 9ed4 <rpi_putchar_set+0x14>
    9ec4:	e5932000 	ldr	r2, [r3]
    9ec8:	e5830000 	str	r0, [r3]
    9ecc:	e1a00002 	mov	r0, r2
    9ed0:	e12fff1e 	bx	lr
    9ed4:	0000bb58 	.word	0x0000bb58

00009ed8 <asm_not_reached_helper>:
    9ed8:	e92d4010 	push	{r4, lr}
    9edc:	e1a04000 	mov	r4, r0
    9ee0:	e59f0010 	ldr	r0, [pc, #16]	; 9ef8 <asm_not_reached_helper+0x20>
    9ee4:	ebfffef2 	bl	9ab4 <printk>
    9ee8:	e1a01004 	mov	r1, r4
    9eec:	e59f0008 	ldr	r0, [pc, #8]	; 9efc <asm_not_reached_helper+0x24>
    9ef0:	ebfffeef 	bl	9ab4 <printk>
    9ef4:	eb00001e 	bl	9f74 <clean_reboot>
    9ef8:	0000b1d0 	.word	0x0000b1d0
    9efc:	0000b204 	.word	0x0000b204

00009f00 <asm_not_implemented_helper>:
    9f00:	e92d4010 	push	{r4, lr}
    9f04:	e1a04000 	mov	r4, r0
    9f08:	e59f0010 	ldr	r0, [pc, #16]	; 9f20 <asm_not_implemented_helper+0x20>
    9f0c:	ebfffee8 	bl	9ab4 <printk>
    9f10:	e1a01004 	mov	r1, r4
    9f14:	e59f0008 	ldr	r0, [pc, #8]	; 9f24 <asm_not_implemented_helper+0x24>
    9f18:	ebfffee5 	bl	9ab4 <printk>
    9f1c:	eb000014 	bl	9f74 <clean_reboot>
    9f20:	0000b238 	.word	0x0000b238
    9f24:	0000b204 	.word	0x0000b204

00009f28 <asm_todo_helper>:
    9f28:	e92d4010 	push	{r4, lr}
    9f2c:	e1a04001 	mov	r4, r1
    9f30:	e59f0018 	ldr	r0, [pc, #24]	; 9f50 <asm_todo_helper+0x28>
    9f34:	ebfffede 	bl	9ab4 <printk>
    9f38:	e59f0014 	ldr	r0, [pc, #20]	; 9f54 <asm_todo_helper+0x2c>
    9f3c:	ebfffedc 	bl	9ab4 <printk>
    9f40:	e1a01004 	mov	r1, r4
    9f44:	e59f000c 	ldr	r0, [pc, #12]	; 9f58 <asm_todo_helper+0x30>
    9f48:	ebfffed9 	bl	9ab4 <printk>
    9f4c:	eb000008 	bl	9f74 <clean_reboot>
    9f50:	0000b264 	.word	0x0000b264
    9f54:	0000b29c 	.word	0x0000b29c
    9f58:	0000b2d0 	.word	0x0000b2d0

00009f5c <asm_bad_exception_helper>:
    9f5c:	e92d4010 	push	{r4, lr}
    9f60:	e1a02000 	mov	r2, r0
    9f64:	e59f0004 	ldr	r0, [pc, #4]	; 9f70 <asm_bad_exception_helper+0x14>
    9f68:	ebfffed1 	bl	9ab4 <printk>
    9f6c:	eb000000 	bl	9f74 <clean_reboot>
    9f70:	0000b2d8 	.word	0x0000b2d8

00009f74 <clean_reboot>:
    9f74:	e92d4010 	push	{r4, lr}
    9f78:	e59f0010 	ldr	r0, [pc, #16]	; 9f90 <clean_reboot+0x1c>
    9f7c:	eb000247 	bl	a8a0 <putk>
    9f80:	ebfffe69 	bl	992c <uart_flush_tx>
    9f84:	e3a0000a 	mov	r0, #10, 0
    9f88:	eb0000a6 	bl	a228 <delay_ms>
    9f8c:	eb00007b 	bl	a180 <rpi_reboot>
    9f90:	0000b2f8 	.word	0x0000b2f8

00009f94 <uart_destroy>:
    9f94:	e92d4010 	push	{r4, lr}
    9f98:	eb000067 	bl	a13c <dev_barrier>
    9f9c:	e3a01001 	mov	r1, #1, 0
    9fa0:	e59f0060 	ldr	r0, [pc, #96]	; a008 <uart_destroy+0x74>
    9fa4:	ebfff81e 	bl	8024 <PUT32>
    9fa8:	eb000063 	bl	a13c <dev_barrier>
    9fac:	eb000062 	bl	a13c <dev_barrier>
    9fb0:	e3a01000 	mov	r1, #0, 0
    9fb4:	e3a0000e 	mov	r0, #14, 0
    9fb8:	eb0001d7 	bl	a71c <gpio_set_function>
    9fbc:	e3a01000 	mov	r1, #0, 0
    9fc0:	e3a0000f 	mov	r0, #15, 0
    9fc4:	eb0001d4 	bl	a71c <gpio_set_function>
    9fc8:	eb00005b 	bl	a13c <dev_barrier>
    9fcc:	e3a04000 	mov	r4, #0, 0
    9fd0:	ea000004 	b	9fe8 <uart_destroy+0x54>
    9fd4:	e3a01000 	mov	r1, #0, 0
    9fd8:	e59f002c 	ldr	r0, [pc, #44]	; a00c <uart_destroy+0x78>
    9fdc:	e0800104 	add	r0, r0, r4, lsl #2
    9fe0:	ebfff80f 	bl	8024 <PUT32>
    9fe4:	e2844001 	add	r4, r4, #1, 0
    9fe8:	e354000a 	cmp	r4, #10, 0
    9fec:	9afffff8 	bls	9fd4 <uart_destroy+0x40>
    9ff0:	eb000051 	bl	a13c <dev_barrier>
    9ff4:	e3a01000 	mov	r1, #0, 0
    9ff8:	e59f0008 	ldr	r0, [pc, #8]	; a008 <uart_destroy+0x74>
    9ffc:	ebfff808 	bl	8024 <PUT32>
    a000:	eb00004d 	bl	a13c <dev_barrier>
    a004:	e8bd8010 	pop	{r4, pc}
    a008:	20215004 	.word	0x20215004
    a00c:	20215040 	.word	0x20215040

0000a010 <_cstart>:
    a010:	e92d4010 	push	{r4, lr}
    a014:	e59f3028 	ldr	r3, [pc, #40]	; a044 <_cstart+0x34>
    a018:	e59f2028 	ldr	r2, [pc, #40]	; a048 <_cstart+0x38>
    a01c:	e1530002 	cmp	r3, r2
    a020:	33a02000 	movcc	r2, #0, 0
    a024:	34832004 	strcc	r2, [r3], #4
    a028:	3afffffa 	bcc	a018 <_cstart+0x8>
    a02c:	e3a03001 	mov	r3, #1, 0
    a030:	ee0f3f1c 	mcr	15, 0, r3, cr15, cr12, {0}
    a034:	ebffffd6 	bl	9f94 <uart_destroy>
    a038:	ebfffdd4 	bl	9790 <uart_init>
    a03c:	ebfff86a 	bl	81ec <notmain>
    a040:	ebffffcb 	bl	9f74 <clean_reboot>
    a044:	0000bb68 	.word	0x0000bb68
    a048:	0000bc20 	.word	0x0000bc20

0000a04c <int_vector>:
    a04c:	e52de004 	push	{lr}		; (str lr, [sp, #-4]!)
    a050:	e24dd00c 	sub	sp, sp, #12, 0
    a054:	e58d0004 	str	r0, [sp, #4]
    a058:	e59f3018 	ldr	r3, [pc, #24]	; a078 <int_vector+0x2c>
    a05c:	e58d3000 	str	r3, [sp]
    a060:	e3a03003 	mov	r3, #3, 0
    a064:	e59f2010 	ldr	r2, [pc, #16]	; a07c <int_vector+0x30>
    a068:	e59f1010 	ldr	r1, [pc, #16]	; a080 <int_vector+0x34>
    a06c:	e59f0010 	ldr	r0, [pc, #16]	; a084 <int_vector+0x38>
    a070:	ebfffe8f 	bl	9ab4 <printk>
    a074:	ebffffbe 	bl	9f74 <clean_reboot>
    a078:	0000b374 	.word	0x0000b374
    a07c:	0000b380 	.word	0x0000b380
    a080:	0000b304 	.word	0x0000b304
    a084:	0000b328 	.word	0x0000b328

0000a088 <prefetch_abort_vector>:
    a088:	e52de004 	push	{lr}		; (str lr, [sp, #-4]!)
    a08c:	e24dd00c 	sub	sp, sp, #12, 0
    a090:	e58d0004 	str	r0, [sp, #4]
    a094:	e59f3018 	ldr	r3, [pc, #24]	; a0b4 <prefetch_abort_vector+0x2c>
    a098:	e58d3000 	str	r3, [sp]
    a09c:	e3a03002 	mov	r3, #2, 0
    a0a0:	e59f2010 	ldr	r2, [pc, #16]	; a0b8 <prefetch_abort_vector+0x30>
    a0a4:	e59f1010 	ldr	r1, [pc, #16]	; a0bc <prefetch_abort_vector+0x34>
    a0a8:	e59f0010 	ldr	r0, [pc, #16]	; a0c0 <prefetch_abort_vector+0x38>
    a0ac:	ebfffe80 	bl	9ab4 <printk>
    a0b0:	ebffffaf 	bl	9f74 <clean_reboot>
    a0b4:	0000b3b4 	.word	0x0000b3b4
    a0b8:	0000b3c4 	.word	0x0000b3c4
    a0bc:	0000b38c 	.word	0x0000b38c
    a0c0:	0000b328 	.word	0x0000b328

0000a0c4 <reset_vector>:
    a0c4:	e52de004 	push	{lr}		; (str lr, [sp, #-4]!)
    a0c8:	e24dd00c 	sub	sp, sp, #12, 0
    a0cc:	e58d0004 	str	r0, [sp, #4]
    a0d0:	e59f3018 	ldr	r3, [pc, #24]	; a0f0 <reset_vector+0x2c>
    a0d4:	e58d3000 	str	r3, [sp]
    a0d8:	e3a03002 	mov	r3, #2, 0
    a0dc:	e59f2010 	ldr	r2, [pc, #16]	; a0f4 <reset_vector+0x30>
    a0e0:	e59f1010 	ldr	r1, [pc, #16]	; a0f8 <reset_vector+0x34>
    a0e4:	e59f0010 	ldr	r0, [pc, #16]	; a0fc <reset_vector+0x38>
    a0e8:	ebfffe71 	bl	9ab4 <printk>
    a0ec:	ebffffa0 	bl	9f74 <clean_reboot>
    a0f0:	0000b400 	.word	0x0000b400
    a0f4:	0000b408 	.word	0x0000b408
    a0f8:	0000b3dc 	.word	0x0000b3dc
    a0fc:	0000b328 	.word	0x0000b328

0000a100 <undefined_instruction_vector>:
    a100:	e52de004 	push	{lr}		; (str lr, [sp, #-4]!)
    a104:	e24dd00c 	sub	sp, sp, #12, 0
    a108:	e58d0004 	str	r0, [sp, #4]
    a10c:	e59f3018 	ldr	r3, [pc, #24]	; a12c <undefined_instruction_vector+0x2c>
    a110:	e58d3000 	str	r3, [sp]
    a114:	e3a03002 	mov	r3, #2, 0
    a118:	e59f2010 	ldr	r2, [pc, #16]	; a130 <undefined_instruction_vector+0x30>
    a11c:	e59f1010 	ldr	r1, [pc, #16]	; a134 <undefined_instruction_vector+0x34>
    a120:	e59f0010 	ldr	r0, [pc, #16]	; a138 <undefined_instruction_vector+0x38>
    a124:	ebfffe62 	bl	9ab4 <printk>
    a128:	ebffff91 	bl	9f74 <clean_reboot>
    a12c:	0000b448 	.word	0x0000b448
    a130:	0000b458 	.word	0x0000b458
    a134:	0000b418 	.word	0x0000b418
    a138:	0000b328 	.word	0x0000b328

0000a13c <dev_barrier>:
    a13c:	ea000002 	b	a14c <dsb>

0000a140 <dmb>:
    a140:	e3a00000 	mov	r0, #0, 0
    a144:	ee070fba 	mcr	15, 0, r0, cr7, cr10, {5}
    a148:	e12fff1e 	bx	lr

0000a14c <dsb>:
    a14c:	ee070f9a 	mcr	15, 0, r0, cr7, cr10, {4}
    a150:	e12fff1e 	bx	lr

0000a154 <at_user_level>:
    a154:	e10f0000 	mrs	r0, CPSR
    a158:	e200001f 	and	r0, r0, #31, 0
    a15c:	e3500010 	cmp	r0, #16, 0
    a160:	13a00000 	movne	r0, #0, 0
    a164:	03a00001 	moveq	r0, #1, 0
    a168:	e12fff1e 	bx	lr

0000a16c <set_user_level>:
    a16c:	e10f3000 	mrs	r3, CPSR
    a170:	e3c3301f 	bic	r3, r3, #31, 0
    a174:	e3833010 	orr	r3, r3, #16, 0
    a178:	e129f003 	msr	CPSR_fc, r3
    a17c:	e12fff1e 	bx	lr

0000a180 <rpi_reboot>:
    a180:	e92d4010 	push	{r4, lr}
    a184:	ebfffff2 	bl	a154 <at_user_level>
    a188:	e3500000 	cmp	r0, #0, 0
    a18c:	1a00000a 	bne	a1bc <rpi_reboot+0x3c>
    a190:	eb0001cf 	bl	a8d4 <reboot_callout>
    a194:	ebfffde4 	bl	992c <uart_flush_tx>
    a198:	e3a0000a 	mov	r0, #10, 0
    a19c:	eb000021 	bl	a228 <delay_ms>
    a1a0:	e59f101c 	ldr	r1, [pc, #28]	; a1c4 <rpi_reboot+0x44>
    a1a4:	e59f001c 	ldr	r0, [pc, #28]	; a1c8 <rpi_reboot+0x48>
    a1a8:	ebfff79d 	bl	8024 <PUT32>
    a1ac:	e59f1018 	ldr	r1, [pc, #24]	; a1cc <rpi_reboot+0x4c>
    a1b0:	e59f0018 	ldr	r0, [pc, #24]	; a1d0 <rpi_reboot+0x50>
    a1b4:	ebfff79a 	bl	8024 <PUT32>
    a1b8:	eafffffe 	b	a1b8 <rpi_reboot+0x38>
    a1bc:	ebffffea 	bl	a16c <set_user_level>
    a1c0:	eafffff2 	b	a190 <rpi_reboot+0x10>
    a1c4:	5a000001 	.word	0x5a000001
    a1c8:	20100024 	.word	0x20100024
    a1cc:	5a000020 	.word	0x5a000020
    a1d0:	2010001c 	.word	0x2010001c

0000a1d4 <timer_get_usec_raw>:
    a1d4:	e92d4010 	push	{r4, lr}
    a1d8:	e59f0004 	ldr	r0, [pc, #4]	; a1e4 <timer_get_usec_raw+0x10>
    a1dc:	ebfff792 	bl	802c <GET32>
    a1e0:	e8bd8010 	pop	{r4, pc}
    a1e4:	20003004 	.word	0x20003004

0000a1e8 <timer_get_usec>:
    a1e8:	e92d4010 	push	{r4, lr}
    a1ec:	ebffffd2 	bl	a13c <dev_barrier>
    a1f0:	ebfffff7 	bl	a1d4 <timer_get_usec_raw>
    a1f4:	e1a04000 	mov	r4, r0
    a1f8:	ebffffcf 	bl	a13c <dev_barrier>
    a1fc:	e1a00004 	mov	r0, r4
    a200:	e8bd8010 	pop	{r4, pc}

0000a204 <delay_us>:
    a204:	e92d4070 	push	{r4, r5, r6, lr}
    a208:	e1a05000 	mov	r5, r0
    a20c:	ebfffff5 	bl	a1e8 <timer_get_usec>
    a210:	e1a04000 	mov	r4, r0
    a214:	ebfffff3 	bl	a1e8 <timer_get_usec>
    a218:	e0400004 	sub	r0, r0, r4
    a21c:	e1500005 	cmp	r0, r5
    a220:	3afffffb 	bcc	a214 <delay_us+0x10>
    a224:	e8bd8070 	pop	{r4, r5, r6, pc}

0000a228 <delay_ms>:
    a228:	e92d4010 	push	{r4, lr}
    a22c:	e0603280 	rsb	r3, r0, r0, lsl #5
    a230:	e0800103 	add	r0, r0, r3, lsl #2
    a234:	e1a00180 	lsl	r0, r0, #3
    a238:	ebfffff1 	bl	a204 <delay_us>
    a23c:	e8bd8010 	pop	{r4, pc}

0000a240 <delay_sec>:
    a240:	e92d4010 	push	{r4, lr}
    a244:	e0603280 	rsb	r3, r0, r0, lsl #5
    a248:	e0800103 	add	r0, r0, r3, lsl #2
    a24c:	e1a00180 	lsl	r0, r0, #3
    a250:	ebfffff4 	bl	a228 <delay_ms>
    a254:	e8bd8010 	pop	{r4, pc}

0000a258 <kmalloc_heap_end>:
    a258:	e59f3004 	ldr	r3, [pc, #4]	; a264 <kmalloc_heap_end+0xc>
    a25c:	e5930000 	ldr	r0, [r3]
    a260:	e12fff1e 	bx	lr
    a264:	0000bb5c 	.word	0x0000bb5c

0000a268 <kmalloc_heap_start>:
    a268:	e59f3004 	ldr	r3, [pc, #4]	; a274 <kmalloc_heap_start+0xc>
    a26c:	e5930004 	ldr	r0, [r3, #4]
    a270:	e12fff1e 	bx	lr
    a274:	0000bb5c 	.word	0x0000bb5c

0000a278 <kmalloc_heap_ptr>:
    a278:	e59f3004 	ldr	r3, [pc, #4]	; a284 <kmalloc_heap_ptr+0xc>
    a27c:	e5930008 	ldr	r0, [r3, #8]
    a280:	e12fff1e 	bx	lr
    a284:	0000bb5c 	.word	0x0000bb5c

0000a288 <kmalloc_init_set_start>:
    a288:	e52de004 	push	{lr}		; (str lr, [sp, #-4]!)
    a28c:	e24dd00c 	sub	sp, sp, #12, 0
    a290:	e59f30a8 	ldr	r3, [pc, #168]	; a340 <kmalloc_init_set_start+0xb8>
    a294:	e5933000 	ldr	r3, [r3]
    a298:	e3530000 	cmp	r3, #0, 0
    a29c:	1a00000f 	bne	a2e0 <kmalloc_init_set_start+0x58>
    a2a0:	e59f3098 	ldr	r3, [pc, #152]	; a340 <kmalloc_init_set_start+0xb8>
    a2a4:	e3a02001 	mov	r2, #1, 0
    a2a8:	e5832000 	str	r2, [r3]
    a2ac:	e3510000 	cmp	r1, #0, 0
    a2b0:	0a000010 	beq	a2f8 <kmalloc_init_set_start+0x70>
    a2b4:	e59f3088 	ldr	r3, [pc, #136]	; a344 <kmalloc_init_set_start+0xbc>
    a2b8:	e5933008 	ldr	r3, [r3, #8]
    a2bc:	e1530000 	cmp	r3, r0
    a2c0:	8a000014 	bhi	a318 <kmalloc_init_set_start+0x90>
    a2c4:	e59f3078 	ldr	r3, [pc, #120]	; a344 <kmalloc_init_set_start+0xbc>
    a2c8:	e5830008 	str	r0, [r3, #8]
    a2cc:	e5830004 	str	r0, [r3, #4]
    a2d0:	e0800001 	add	r0, r0, r1
    a2d4:	e5830000 	str	r0, [r3]
    a2d8:	e28dd00c 	add	sp, sp, #12, 0
    a2dc:	e49df004 	pop	{pc}		; (ldr pc, [sp], #4)
    a2e0:	e3a03031 	mov	r3, #49, 0	; 0x31
    a2e4:	e59f205c 	ldr	r2, [pc, #92]	; a348 <kmalloc_init_set_start+0xc0>
    a2e8:	e59f105c 	ldr	r1, [pc, #92]	; a34c <kmalloc_init_set_start+0xc4>
    a2ec:	e59f005c 	ldr	r0, [pc, #92]	; a350 <kmalloc_init_set_start+0xc8>
    a2f0:	ebfffdef 	bl	9ab4 <printk>
    a2f4:	ebffff1e 	bl	9f74 <clean_reboot>
    a2f8:	e59f3054 	ldr	r3, [pc, #84]	; a354 <kmalloc_init_set_start+0xcc>
    a2fc:	e58d3000 	str	r3, [sp]
    a300:	e3a03036 	mov	r3, #54, 0	; 0x36
    a304:	e59f203c 	ldr	r2, [pc, #60]	; a348 <kmalloc_init_set_start+0xc0>
    a308:	e59f103c 	ldr	r1, [pc, #60]	; a34c <kmalloc_init_set_start+0xc4>
    a30c:	e59f0044 	ldr	r0, [pc, #68]	; a358 <kmalloc_init_set_start+0xd0>
    a310:	ebfffde7 	bl	9ab4 <printk>
    a314:	ebffff16 	bl	9f74 <clean_reboot>
    a318:	e59f3024 	ldr	r3, [pc, #36]	; a344 <kmalloc_init_set_start+0xbc>
    a31c:	e5933000 	ldr	r3, [r3]
    a320:	e58d3004 	str	r3, [sp, #4]
    a324:	e58d0000 	str	r0, [sp]
    a328:	e3a0303a 	mov	r3, #58, 0	; 0x3a
    a32c:	e59f2014 	ldr	r2, [pc, #20]	; a348 <kmalloc_init_set_start+0xc0>
    a330:	e59f1014 	ldr	r1, [pc, #20]	; a34c <kmalloc_init_set_start+0xc4>
    a334:	e59f0020 	ldr	r0, [pc, #32]	; a35c <kmalloc_init_set_start+0xd4>
    a338:	ebfffddd 	bl	9ab4 <printk>
    a33c:	ebffff0c 	bl	9f74 <clean_reboot>
    a340:	0000bc18 	.word	0x0000bc18
    a344:	0000bb5c 	.word	0x0000bb5c
    a348:	0000b64c 	.word	0x0000b64c
    a34c:	0000b478 	.word	0x0000b478
    a350:	0000b484 	.word	0x0000b484
    a354:	0000b4b8 	.word	0x0000b4b8
    a358:	0000ab28 	.word	0x0000ab28
    a35c:	0000b4c4 	.word	0x0000b4c4

0000a360 <kmalloc_notzero>:
    a360:	e52de004 	push	{lr}		; (str lr, [sp, #-4]!)
    a364:	e24dd00c 	sub	sp, sp, #12, 0
    a368:	e3500000 	cmp	r0, #0, 0
    a36c:	0a00000d 	beq	a3a8 <kmalloc_notzero+0x48>
    a370:	e2800007 	add	r0, r0, #7, 0
    a374:	e3c03007 	bic	r3, r0, #7, 0
    a378:	e59f208c 	ldr	r2, [pc, #140]	; a40c <kmalloc_notzero+0xac>
    a37c:	e5920008 	ldr	r0, [r2, #8]
    a380:	e3100007 	tst	r0, #7, 0
    a384:	1a00000f 	bne	a3c8 <kmalloc_notzero+0x68>
    a388:	e0802003 	add	r2, r0, r3
    a38c:	e59f1078 	ldr	r1, [pc, #120]	; a40c <kmalloc_notzero+0xac>
    a390:	e5812008 	str	r2, [r1, #8]
    a394:	e5911000 	ldr	r1, [r1]
    a398:	e1520001 	cmp	r2, r1
    a39c:	8a000011 	bhi	a3e8 <kmalloc_notzero+0x88>
    a3a0:	e28dd00c 	add	sp, sp, #12, 0
    a3a4:	e49df004 	pop	{pc}		; (ldr pc, [sp], #4)
    a3a8:	e59f3060 	ldr	r3, [pc, #96]	; a410 <kmalloc_notzero+0xb0>
    a3ac:	e58d3000 	str	r3, [sp]
    a3b0:	e3a03053 	mov	r3, #83, 0	; 0x53
    a3b4:	e59f2058 	ldr	r2, [pc, #88]	; a414 <kmalloc_notzero+0xb4>
    a3b8:	e59f1058 	ldr	r1, [pc, #88]	; a418 <kmalloc_notzero+0xb8>
    a3bc:	e59f0058 	ldr	r0, [pc, #88]	; a41c <kmalloc_notzero+0xbc>
    a3c0:	ebfffdbb 	bl	9ab4 <printk>
    a3c4:	ebfffeea 	bl	9f74 <clean_reboot>
    a3c8:	e59f3050 	ldr	r3, [pc, #80]	; a420 <kmalloc_notzero+0xc0>
    a3cc:	e58d3000 	str	r3, [sp]
    a3d0:	e3a03056 	mov	r3, #86, 0	; 0x56
    a3d4:	e59f2038 	ldr	r2, [pc, #56]	; a414 <kmalloc_notzero+0xb4>
    a3d8:	e59f1038 	ldr	r1, [pc, #56]	; a418 <kmalloc_notzero+0xb8>
    a3dc:	e59f0038 	ldr	r0, [pc, #56]	; a41c <kmalloc_notzero+0xbc>
    a3e0:	ebfffdb3 	bl	9ab4 <printk>
    a3e4:	ebfffee2 	bl	9f74 <clean_reboot>
    a3e8:	e0422001 	sub	r2, r2, r1
    a3ec:	e58d2004 	str	r2, [sp, #4]
    a3f0:	e58d3000 	str	r3, [sp]
    a3f4:	e3a0305b 	mov	r3, #91, 0	; 0x5b
    a3f8:	e59f2014 	ldr	r2, [pc, #20]	; a414 <kmalloc_notzero+0xb4>
    a3fc:	e59f1014 	ldr	r1, [pc, #20]	; a418 <kmalloc_notzero+0xb8>
    a400:	e59f001c 	ldr	r0, [pc, #28]	; a424 <kmalloc_notzero+0xc4>
    a404:	ebfffdaa 	bl	9ab4 <printk>
    a408:	ebfffed9 	bl	9f74 <clean_reboot>
    a40c:	0000bb5c 	.word	0x0000bb5c
    a410:	0000b4bc 	.word	0x0000b4bc
    a414:	0000b664 	.word	0x0000b664
    a418:	0000b478 	.word	0x0000b478
    a41c:	0000ab28 	.word	0x0000ab28
    a420:	0000b508 	.word	0x0000b508
    a424:	0000b520 	.word	0x0000b520

0000a428 <kmalloc>:
    a428:	e92d4030 	push	{r4, r5, lr}
    a42c:	e24dd00c 	sub	sp, sp, #12, 0
    a430:	e2504000 	subs	r4, r0, #0, 0
    a434:	0a000008 	beq	a45c <kmalloc+0x34>
    a438:	e1a00004 	mov	r0, r4
    a43c:	ebffffc7 	bl	a360 <kmalloc_notzero>
    a440:	e1a05000 	mov	r5, r0
    a444:	e1a02004 	mov	r2, r4
    a448:	e3a01000 	mov	r1, #0, 0
    a44c:	ebfffd70 	bl	9a14 <memset>
    a450:	e1a00005 	mov	r0, r5
    a454:	e28dd00c 	add	sp, sp, #12, 0
    a458:	e8bd8030 	pop	{r4, r5, pc}
    a45c:	e59f3018 	ldr	r3, [pc, #24]	; a47c <kmalloc+0x54>
    a460:	e58d3000 	str	r3, [sp]
    a464:	e3a03062 	mov	r3, #98, 0	; 0x62
    a468:	e59f2010 	ldr	r2, [pc, #16]	; a480 <kmalloc+0x58>
    a46c:	e59f1010 	ldr	r1, [pc, #16]	; a484 <kmalloc+0x5c>
    a470:	e59f0010 	ldr	r0, [pc, #16]	; a488 <kmalloc+0x60>
    a474:	ebfffd8e 	bl	9ab4 <printk>
    a478:	ebfffebd 	bl	9f74 <clean_reboot>
    a47c:	0000b4bc 	.word	0x0000b4bc
    a480:	0000b674 	.word	0x0000b674
    a484:	0000b478 	.word	0x0000b478
    a488:	0000ab28 	.word	0x0000ab28

0000a48c <kmalloc_aligned>:
    a48c:	e52de004 	push	{lr}		; (str lr, [sp, #-4]!)
    a490:	e24dd00c 	sub	sp, sp, #12, 0
    a494:	e3500000 	cmp	r0, #0, 0
    a498:	0a000014 	beq	a4f0 <kmalloc_aligned+0x64>
    a49c:	e2613000 	rsb	r3, r1, #0, 0
    a4a0:	e1d13003 	bics	r3, r1, r3
    a4a4:	1a000019 	bne	a510 <kmalloc_aligned+0x84>
    a4a8:	e3510008 	cmp	r1, #8, 0
    a4ac:	33a01008 	movcc	r1, #8, 0
    a4b0:	e59f30b8 	ldr	r3, [pc, #184]	; a570 <kmalloc_aligned+0xe4>
    a4b4:	e5932008 	ldr	r2, [r3, #8]
    a4b8:	e2613000 	rsb	r3, r1, #0, 0
    a4bc:	e1d1c003 	bics	ip, r1, r3
    a4c0:	1a00001a 	bne	a530 <kmalloc_aligned+0xa4>
    a4c4:	e0822001 	add	r2, r2, r1
    a4c8:	e2422001 	sub	r2, r2, #1, 0
    a4cc:	e0033002 	and	r3, r3, r2
    a4d0:	e2411001 	sub	r1, r1, #1, 0
    a4d4:	e1110003 	tst	r1, r3
    a4d8:	1a00001c 	bne	a550 <kmalloc_aligned+0xc4>
    a4dc:	e59f208c 	ldr	r2, [pc, #140]	; a570 <kmalloc_aligned+0xe4>
    a4e0:	e5823008 	str	r3, [r2, #8]
    a4e4:	ebffffcf 	bl	a428 <kmalloc>
    a4e8:	e28dd00c 	add	sp, sp, #12, 0
    a4ec:	e49df004 	pop	{pc}		; (ldr pc, [sp], #4)
    a4f0:	e59f307c 	ldr	r3, [pc, #124]	; a574 <kmalloc_aligned+0xe8>
    a4f4:	e58d3000 	str	r3, [sp]
    a4f8:	e3a0306d 	mov	r3, #109, 0	; 0x6d
    a4fc:	e59f2074 	ldr	r2, [pc, #116]	; a578 <kmalloc_aligned+0xec>
    a500:	e59f1074 	ldr	r1, [pc, #116]	; a57c <kmalloc_aligned+0xf0>
    a504:	e59f0074 	ldr	r0, [pc, #116]	; a580 <kmalloc_aligned+0xf4>
    a508:	ebfffd69 	bl	9ab4 <printk>
    a50c:	ebfffe98 	bl	9f74 <clean_reboot>
    a510:	e59f306c 	ldr	r3, [pc, #108]	; a584 <kmalloc_aligned+0xf8>
    a514:	e58d3000 	str	r3, [sp]
    a518:	e3a0306e 	mov	r3, #110, 0	; 0x6e
    a51c:	e59f2054 	ldr	r2, [pc, #84]	; a578 <kmalloc_aligned+0xec>
    a520:	e59f1054 	ldr	r1, [pc, #84]	; a57c <kmalloc_aligned+0xf0>
    a524:	e59f005c 	ldr	r0, [pc, #92]	; a588 <kmalloc_aligned+0xfc>
    a528:	ebfffd61 	bl	9ab4 <printk>
    a52c:	ebfffe90 	bl	9f74 <clean_reboot>
    a530:	e59f3054 	ldr	r3, [pc, #84]	; a58c <kmalloc_aligned+0x100>
    a534:	e58d3000 	str	r3, [sp]
    a538:	e3a03011 	mov	r3, #17, 0
    a53c:	e59f204c 	ldr	r2, [pc, #76]	; a590 <kmalloc_aligned+0x104>
    a540:	e59f1034 	ldr	r1, [pc, #52]	; a57c <kmalloc_aligned+0xf0>
    a544:	e59f0034 	ldr	r0, [pc, #52]	; a580 <kmalloc_aligned+0xf4>
    a548:	ebfffd59 	bl	9ab4 <printk>
    a54c:	ebfffe88 	bl	9f74 <clean_reboot>
    a550:	e59f303c 	ldr	r3, [pc, #60]	; a594 <kmalloc_aligned+0x108>
    a554:	e58d3000 	str	r3, [sp]
    a558:	e3a03076 	mov	r3, #118, 0	; 0x76
    a55c:	e59f2014 	ldr	r2, [pc, #20]	; a578 <kmalloc_aligned+0xec>
    a560:	e59f1014 	ldr	r1, [pc, #20]	; a57c <kmalloc_aligned+0xf0>
    a564:	e59f002c 	ldr	r0, [pc, #44]	; a598 <kmalloc_aligned+0x10c>
    a568:	ebfffd51 	bl	9ab4 <printk>
    a56c:	ebfffe80 	bl	9f74 <clean_reboot>
    a570:	0000bb5c 	.word	0x0000bb5c
    a574:	0000b4bc 	.word	0x0000b4bc
    a578:	0000b67c 	.word	0x0000b67c
    a57c:	0000b478 	.word	0x0000b478
    a580:	0000ab28 	.word	0x0000ab28
    a584:	0000b5a8 	.word	0x0000b5a8
    a588:	0000b568 	.word	0x0000b568
    a58c:	0000b5bc 	.word	0x0000b5bc
    a590:	0000b68c 	.word	0x0000b68c
    a594:	0000b600 	.word	0x0000b600
    a598:	0000b5c8 	.word	0x0000b5c8

0000a59c <kfree_all>:
    a59c:	e59f3008 	ldr	r3, [pc, #8]	; a5ac <kfree_all+0x10>
    a5a0:	e5932004 	ldr	r2, [r3, #4]
    a5a4:	e5832008 	str	r2, [r3, #8]
    a5a8:	e12fff1e 	bx	lr
    a5ac:	0000bb5c 	.word	0x0000bb5c

0000a5b0 <kfree_pop>:
    a5b0:	e59f3048 	ldr	r3, [pc, #72]	; a600 <kfree_pop+0x50>
    a5b4:	e5933004 	ldr	r3, [r3, #4]
    a5b8:	e1530000 	cmp	r3, r0
    a5bc:	8a000006 	bhi	a5dc <kfree_pop+0x2c>
    a5c0:	e59f3038 	ldr	r3, [pc, #56]	; a600 <kfree_pop+0x50>
    a5c4:	e5933000 	ldr	r3, [r3]
    a5c8:	e1530000 	cmp	r3, r0
    a5cc:	3a000002 	bcc	a5dc <kfree_pop+0x2c>
    a5d0:	e59f3028 	ldr	r3, [pc, #40]	; a600 <kfree_pop+0x50>
    a5d4:	e5830008 	str	r0, [r3, #8]
    a5d8:	e12fff1e 	bx	lr
    a5dc:	e52de004 	push	{lr}		; (str lr, [sp, #-4]!)
    a5e0:	e24dd00c 	sub	sp, sp, #12, 0
    a5e4:	e58d0000 	str	r0, [sp]
    a5e8:	e3a03085 	mov	r3, #133, 0	; 0x85
    a5ec:	e59f2010 	ldr	r2, [pc, #16]	; a604 <kfree_pop+0x54>
    a5f0:	e59f1010 	ldr	r1, [pc, #16]	; a608 <kfree_pop+0x58>
    a5f4:	e59f0010 	ldr	r0, [pc, #16]	; a60c <kfree_pop+0x5c>
    a5f8:	ebfffd2d 	bl	9ab4 <printk>
    a5fc:	ebfffe5c 	bl	9f74 <clean_reboot>
    a600:	0000bb5c 	.word	0x0000bb5c
    a604:	0000b694 	.word	0x0000b694
    a608:	0000b478 	.word	0x0000b478
    a60c:	0000b61c 	.word	0x0000b61c

0000a610 <gpio_set_on>:
    a610:	e350002f 	cmp	r0, #47, 0	; 0x2f
    a614:	1350001f 	cmpne	r0, #31, 0
    a618:	812fff1e 	bxhi	lr
    a61c:	e52de004 	push	{lr}		; (str lr, [sp, #-4]!)
    a620:	e24dd00c 	sub	sp, sp, #12, 0
    a624:	e350002f 	cmp	r0, #47, 0	; 0x2f
    a628:	0a000005 	beq	a644 <gpio_set_on+0x34>
    a62c:	e3a01001 	mov	r1, #1, 0
    a630:	e1a01011 	lsl	r1, r1, r0
    a634:	e59f002c 	ldr	r0, [pc, #44]	; a668 <gpio_set_on+0x58>
    a638:	ebfff679 	bl	8024 <PUT32>
    a63c:	e28dd00c 	add	sp, sp, #12, 0
    a640:	e49df004 	pop	{pc}		; (ldr pc, [sp], #4)
    a644:	e59f3020 	ldr	r3, [pc, #32]	; a66c <gpio_set_on+0x5c>
    a648:	e58d3004 	str	r3, [sp, #4]
    a64c:	e59d3004 	ldr	r3, [sp, #4]
    a650:	e2401020 	sub	r1, r0, #32, 0
    a654:	e3a02001 	mov	r2, #1, 0
    a658:	e1a01112 	lsl	r1, r2, r1
    a65c:	e1a00003 	mov	r0, r3
    a660:	ebfff66f 	bl	8024 <PUT32>
    a664:	eafffff4 	b	a63c <gpio_set_on+0x2c>
    a668:	2020001c 	.word	0x2020001c
    a66c:	20200020 	.word	0x20200020

0000a670 <gpio_set_off>:
    a670:	e350002f 	cmp	r0, #47, 0	; 0x2f
    a674:	1350001f 	cmpne	r0, #31, 0
    a678:	812fff1e 	bxhi	lr
    a67c:	e52de004 	push	{lr}		; (str lr, [sp, #-4]!)
    a680:	e24dd00c 	sub	sp, sp, #12, 0
    a684:	e350002f 	cmp	r0, #47, 0	; 0x2f
    a688:	0a000005 	beq	a6a4 <gpio_set_off+0x34>
    a68c:	e3a01001 	mov	r1, #1, 0
    a690:	e1a01011 	lsl	r1, r1, r0
    a694:	e59f002c 	ldr	r0, [pc, #44]	; a6c8 <gpio_set_off+0x58>
    a698:	ebfff661 	bl	8024 <PUT32>
    a69c:	e28dd00c 	add	sp, sp, #12, 0
    a6a0:	e49df004 	pop	{pc}		; (ldr pc, [sp], #4)
    a6a4:	e59f3020 	ldr	r3, [pc, #32]	; a6cc <gpio_set_off+0x5c>
    a6a8:	e58d3004 	str	r3, [sp, #4]
    a6ac:	e59d3004 	ldr	r3, [sp, #4]
    a6b0:	e2401020 	sub	r1, r0, #32, 0
    a6b4:	e3a02001 	mov	r2, #1, 0
    a6b8:	e1a01112 	lsl	r1, r2, r1
    a6bc:	e1a00003 	mov	r0, r3
    a6c0:	ebfff657 	bl	8024 <PUT32>
    a6c4:	eafffff4 	b	a69c <gpio_set_off+0x2c>
    a6c8:	20200028 	.word	0x20200028
    a6cc:	2020002c 	.word	0x2020002c

0000a6d0 <gpio_write>:
    a6d0:	e92d4010 	push	{r4, lr}
    a6d4:	e3510000 	cmp	r1, #0, 0
    a6d8:	0a000001 	beq	a6e4 <gpio_write+0x14>
    a6dc:	ebffffcb 	bl	a610 <gpio_set_on>
    a6e0:	e8bd8010 	pop	{r4, pc}
    a6e4:	ebffffe1 	bl	a670 <gpio_set_off>
    a6e8:	e8bd8010 	pop	{r4, pc}

0000a6ec <gpio_read>:
    a6ec:	e350001f 	cmp	r0, #31, 0
    a6f0:	8a000006 	bhi	a710 <gpio_read+0x24>
    a6f4:	e92d4010 	push	{r4, lr}
    a6f8:	e1a04000 	mov	r4, r0
    a6fc:	e59f0014 	ldr	r0, [pc, #20]	; a718 <gpio_read+0x2c>
    a700:	ebfff649 	bl	802c <GET32>
    a704:	e1a00450 	asr	r0, r0, r4
    a708:	e2000001 	and	r0, r0, #1, 0
    a70c:	e8bd8010 	pop	{r4, pc}
    a710:	e3e00000 	mvn	r0, #0, 0
    a714:	e12fff1e 	bx	lr
    a718:	20200034 	.word	0x20200034

0000a71c <gpio_set_function>:
    a71c:	e3510007 	cmp	r1, #7, 0
    a720:	812fff1e 	bxhi	lr
    a724:	e92d4030 	push	{r4, r5, lr}
    a728:	e24dd01c 	sub	sp, sp, #28, 0
    a72c:	e1a04000 	mov	r4, r0
    a730:	e1a05001 	mov	r5, r1
    a734:	e350002f 	cmp	r0, #47, 0	; 0x2f
    a738:	1350001f 	cmpne	r0, #31, 0
    a73c:	8a000021 	bhi	a7c8 <gpio_set_function+0xac>
    a740:	e3500009 	cmp	r0, #9, 0
    a744:	9a000014 	bls	a79c <gpio_set_function+0x80>
    a748:	e3500013 	cmp	r0, #19, 0
    a74c:	9a00001f 	bls	a7d0 <gpio_set_function+0xb4>
    a750:	e350001d 	cmp	r0, #29, 0
    a754:	9a00002a 	bls	a804 <gpio_set_function+0xe8>
    a758:	e350001f 	cmp	r0, #31, 0
    a75c:	9a000035 	bls	a838 <gpio_set_function+0x11c>
    a760:	e350002f 	cmp	r0, #47, 0	; 0x2f
    a764:	1a000017 	bne	a7c8 <gpio_set_function+0xac>
    a768:	e59f30fc 	ldr	r3, [pc, #252]	; a86c <gpio_set_function+0x150>
    a76c:	e58d3014 	str	r3, [sp, #20]
    a770:	e59d0014 	ldr	r0, [sp, #20]
    a774:	ebfff62c 	bl	802c <GET32>
    a778:	e1a01000 	mov	r1, r0
    a77c:	e0844084 	add	r4, r4, r4, lsl #1
    a780:	e2444078 	sub	r4, r4, #120, 0	; 0x78
    a784:	e59d0014 	ldr	r0, [sp, #20]
    a788:	e3a03007 	mov	r3, #7, 0
    a78c:	e1c11413 	bic	r1, r1, r3, lsl r4
    a790:	e1811415 	orr	r1, r1, r5, lsl r4
    a794:	ebfff622 	bl	8024 <PUT32>
    a798:	ea00000a 	b	a7c8 <gpio_set_function+0xac>
    a79c:	e59f30cc 	ldr	r3, [pc, #204]	; a870 <gpio_set_function+0x154>
    a7a0:	e58d3004 	str	r3, [sp, #4]
    a7a4:	e59d0004 	ldr	r0, [sp, #4]
    a7a8:	ebfff61f 	bl	802c <GET32>
    a7ac:	e1a03000 	mov	r3, r0
    a7b0:	e0844084 	add	r4, r4, r4, lsl #1
    a7b4:	e59d0004 	ldr	r0, [sp, #4]
    a7b8:	e3a01007 	mov	r1, #7, 0
    a7bc:	e1c31411 	bic	r1, r3, r1, lsl r4
    a7c0:	e1811415 	orr	r1, r1, r5, lsl r4
    a7c4:	ebfff616 	bl	8024 <PUT32>
    a7c8:	e28dd01c 	add	sp, sp, #28, 0
    a7cc:	e8bd8030 	pop	{r4, r5, pc}
    a7d0:	e59f309c 	ldr	r3, [pc, #156]	; a874 <gpio_set_function+0x158>
    a7d4:	e58d3008 	str	r3, [sp, #8]
    a7d8:	e59d0008 	ldr	r0, [sp, #8]
    a7dc:	ebfff612 	bl	802c <GET32>
    a7e0:	e1a01000 	mov	r1, r0
    a7e4:	e0844084 	add	r4, r4, r4, lsl #1
    a7e8:	e244401e 	sub	r4, r4, #30, 0
    a7ec:	e59d0008 	ldr	r0, [sp, #8]
    a7f0:	e3a03007 	mov	r3, #7, 0
    a7f4:	e1c11413 	bic	r1, r1, r3, lsl r4
    a7f8:	e1811415 	orr	r1, r1, r5, lsl r4
    a7fc:	ebfff608 	bl	8024 <PUT32>
    a800:	eafffff0 	b	a7c8 <gpio_set_function+0xac>
    a804:	e59f306c 	ldr	r3, [pc, #108]	; a878 <gpio_set_function+0x15c>
    a808:	e58d300c 	str	r3, [sp, #12]
    a80c:	e59d000c 	ldr	r0, [sp, #12]
    a810:	ebfff605 	bl	802c <GET32>
    a814:	e1a01000 	mov	r1, r0
    a818:	e0844084 	add	r4, r4, r4, lsl #1
    a81c:	e244403c 	sub	r4, r4, #60, 0	; 0x3c
    a820:	e59d000c 	ldr	r0, [sp, #12]
    a824:	e3a03007 	mov	r3, #7, 0
    a828:	e1c11413 	bic	r1, r1, r3, lsl r4
    a82c:	e1811415 	orr	r1, r1, r5, lsl r4
    a830:	ebfff5fb 	bl	8024 <PUT32>
    a834:	eaffffe3 	b	a7c8 <gpio_set_function+0xac>
    a838:	e59f303c 	ldr	r3, [pc, #60]	; a87c <gpio_set_function+0x160>
    a83c:	e58d3010 	str	r3, [sp, #16]
    a840:	e59d0010 	ldr	r0, [sp, #16]
    a844:	ebfff5f8 	bl	802c <GET32>
    a848:	e1a01000 	mov	r1, r0
    a84c:	e0844084 	add	r4, r4, r4, lsl #1
    a850:	e244405a 	sub	r4, r4, #90, 0	; 0x5a
    a854:	e59d0010 	ldr	r0, [sp, #16]
    a858:	e3a03007 	mov	r3, #7, 0
    a85c:	e1c11413 	bic	r1, r1, r3, lsl r4
    a860:	e1811415 	orr	r1, r1, r5, lsl r4
    a864:	ebfff5ee 	bl	8024 <PUT32>
    a868:	eaffffd6 	b	a7c8 <gpio_set_function+0xac>
    a86c:	20200010 	.word	0x20200010
    a870:	20200000 	.word	0x20200000
    a874:	20200004 	.word	0x20200004
    a878:	20200008 	.word	0x20200008
    a87c:	2020000c 	.word	0x2020000c

0000a880 <gpio_set_output>:
    a880:	e92d4010 	push	{r4, lr}
    a884:	e3a01001 	mov	r1, #1, 0
    a888:	ebffffa3 	bl	a71c <gpio_set_function>
    a88c:	e8bd8010 	pop	{r4, pc}

0000a890 <gpio_set_input>:
    a890:	e92d4010 	push	{r4, lr}
    a894:	e3a01000 	mov	r1, #0, 0
    a898:	ebffff9f 	bl	a71c <gpio_set_function>
    a89c:	e8bd8010 	pop	{r4, pc}

0000a8a0 <putk>:
    a8a0:	e92d4010 	push	{r4, lr}
    a8a4:	e1a04000 	mov	r4, r0
    a8a8:	e5d40000 	ldrb	r0, [r4]
    a8ac:	e3500000 	cmp	r0, #0, 0
    a8b0:	0a000004 	beq	a8c8 <putk+0x28>
    a8b4:	e59f3014 	ldr	r3, [pc, #20]	; a8d0 <putk+0x30>
    a8b8:	e5933000 	ldr	r3, [r3]
    a8bc:	e12fff33 	blx	r3
    a8c0:	e2844001 	add	r4, r4, #1, 0
    a8c4:	eafffff7 	b	a8a8 <putk+0x8>
    a8c8:	e3a00001 	mov	r0, #1, 0
    a8cc:	e8bd8010 	pop	{r4, pc}
    a8d0:	0000bb58 	.word	0x0000bb58

0000a8d4 <reboot_callout>:
    a8d4:	e12fff1e 	bx	lr
