
act-blink.elf:     file format elf32-littlearm


Disassembly of section .text:

00008000 <__code_start__>:
    8000:	e3a00013 	mov	r0, #19, 0
    8004:	e3800080 	orr	r0, r0, #128, 0	; 0x80
    8008:	e129f000 	msr	CPSR_fc, r0
    800c:	e3a01000 	mov	r1, #0, 0
    8010:	ee071f95 	mcr	15, 0, r1, cr7, cr5, {4}
    8014:	e3a0d302 	mov	sp, #134217728	; 0x8000000
    8018:	e3a0b000 	mov	fp, #0, 0
    801c:	eb0000af 	bl	82e0 <_cstart>
    8020:	eb0000cf 	bl	8364 <rpi_reboot>

00008024 <PUT32>:
    8024:	e5801000 	str	r1, [r0]
    8028:	e12fff1e 	bx	lr

0000802c <GET32>:
    802c:	e5900000 	ldr	r0, [r0]
    8030:	e12fff1e 	bx	lr

00008034 <BRANCHTO>:
    8034:	e12fff10 	bx	r0

00008038 <act_init>:
    8038:	e92d4010 	push	{r4, lr}
    803c:	e3a0002f 	mov	r0, #47, 0	; 0x2f
    8040:	eb00009e 	bl	82c0 <gpio_set_output>
    8044:	e8bd8010 	pop	{r4, pc}

00008048 <act_on>:
    8048:	e92d4010 	push	{r4, lr}
    804c:	e3a01000 	mov	r1, #0, 0
    8050:	e3a0002f 	mov	r0, #47, 0	; 0x2f
    8054:	eb000042 	bl	8164 <gpio_write>
    8058:	e8bd8010 	pop	{r4, pc}

0000805c <act_off>:
    805c:	e92d4010 	push	{r4, lr}
    8060:	e3a01001 	mov	r1, #1, 0
    8064:	e3a0002f 	mov	r0, #47, 0	; 0x2f
    8068:	eb00003d 	bl	8164 <gpio_write>
    806c:	e8bd8010 	pop	{r4, pc}

00008070 <notmain>:
    8070:	e92d4070 	push	{r4, r5, r6, lr}
    8074:	ebffffef 	bl	8038 <act_init>
    8078:	e3a04000 	mov	r4, #0, 0
    807c:	e3540009 	cmp	r4, #9, 0
    8080:	c8bd8070 	popgt	{r4, r5, r6, pc}
    8084:	ebffffef 	bl	8048 <act_on>
    8088:	e59f5018 	ldr	r5, [pc, #24]	; 80a8 <notmain+0x38>
    808c:	e1a00005 	mov	r0, r5
    8090:	eb0000a2 	bl	8320 <delay_cycles>
    8094:	ebfffff0 	bl	805c <act_off>
    8098:	e1a00005 	mov	r0, r5
    809c:	eb00009f 	bl	8320 <delay_cycles>
    80a0:	e2844001 	add	r4, r4, #1, 0
    80a4:	eafffff4 	b	807c <notmain+0xc>
    80a8:	000f4240 	.word	0x000f4240

000080ac <gpio_set_on>:
    80ac:	e350001f 	cmp	r0, #31, 0
    80b0:	812fff1e 	bxhi	lr
    80b4:	e52de004 	push	{lr}		; (str lr, [sp, #-4]!)
    80b8:	e24dd00c 	sub	sp, sp, #12, 0
    80bc:	e350002f 	cmp	r0, #47, 0	; 0x2f
    80c0:	0a000005 	beq	80dc <gpio_set_on+0x30>
    80c4:	e3a01001 	mov	r1, #1, 0
    80c8:	e1a01011 	lsl	r1, r1, r0
    80cc:	e59f002c 	ldr	r0, [pc, #44]	; 8100 <gpio_set_on+0x54>
    80d0:	ebffffd3 	bl	8024 <PUT32>
    80d4:	e28dd00c 	add	sp, sp, #12, 0
    80d8:	e49df004 	pop	{pc}		; (ldr pc, [sp], #4)
    80dc:	e59f3020 	ldr	r3, [pc, #32]	; 8104 <gpio_set_on+0x58>
    80e0:	e58d3004 	str	r3, [sp, #4]
    80e4:	e59d3004 	ldr	r3, [sp, #4]
    80e8:	e2401020 	sub	r1, r0, #32, 0
    80ec:	e3a02001 	mov	r2, #1, 0
    80f0:	e1a01112 	lsl	r1, r2, r1
    80f4:	e1a00003 	mov	r0, r3
    80f8:	ebffffc9 	bl	8024 <PUT32>
    80fc:	eafffff4 	b	80d4 <gpio_set_on+0x28>
    8100:	2020001c 	.word	0x2020001c
    8104:	20200020 	.word	0x20200020

00008108 <gpio_set_off>:
    8108:	e350001f 	cmp	r0, #31, 0
    810c:	812fff1e 	bxhi	lr
    8110:	e52de004 	push	{lr}		; (str lr, [sp, #-4]!)
    8114:	e24dd00c 	sub	sp, sp, #12, 0
    8118:	e350002f 	cmp	r0, #47, 0	; 0x2f
    811c:	0a000005 	beq	8138 <gpio_set_off+0x30>
    8120:	e3a01001 	mov	r1, #1, 0
    8124:	e1a01011 	lsl	r1, r1, r0
    8128:	e59f002c 	ldr	r0, [pc, #44]	; 815c <gpio_set_off+0x54>
    812c:	ebffffbc 	bl	8024 <PUT32>
    8130:	e28dd00c 	add	sp, sp, #12, 0
    8134:	e49df004 	pop	{pc}		; (ldr pc, [sp], #4)
    8138:	e59f3020 	ldr	r3, [pc, #32]	; 8160 <gpio_set_off+0x58>
    813c:	e58d3004 	str	r3, [sp, #4]
    8140:	e59d3004 	ldr	r3, [sp, #4]
    8144:	e2401020 	sub	r1, r0, #32, 0
    8148:	e3a02001 	mov	r2, #1, 0
    814c:	e1a01112 	lsl	r1, r2, r1
    8150:	e1a00003 	mov	r0, r3
    8154:	ebffffb2 	bl	8024 <PUT32>
    8158:	eafffff4 	b	8130 <gpio_set_off+0x28>
    815c:	20200028 	.word	0x20200028
    8160:	2020002c 	.word	0x2020002c

00008164 <gpio_write>:
    8164:	e92d4010 	push	{r4, lr}
    8168:	e3510000 	cmp	r1, #0, 0
    816c:	0a000001 	beq	8178 <gpio_write+0x14>
    8170:	ebffffcd 	bl	80ac <gpio_set_on>
    8174:	e8bd8010 	pop	{r4, pc}
    8178:	ebffffe2 	bl	8108 <gpio_set_off>
    817c:	e8bd8010 	pop	{r4, pc}

00008180 <gpio_read>:
    8180:	e350001f 	cmp	r0, #31, 0
    8184:	9a000001 	bls	8190 <gpio_read+0x10>
    8188:	e3a00000 	mov	r0, #0, 0
    818c:	e12fff1e 	bx	lr
    8190:	e92d4010 	push	{r4, lr}
    8194:	e1a04000 	mov	r4, r0
    8198:	e59f000c 	ldr	r0, [pc, #12]	; 81ac <gpio_read+0x2c>
    819c:	ebffffa2 	bl	802c <GET32>
    81a0:	e1a00450 	asr	r0, r0, r4
    81a4:	e2000001 	and	r0, r0, #1, 0
    81a8:	e8bd8010 	pop	{r4, pc}
    81ac:	20200034 	.word	0x20200034

000081b0 <gpio_set_function>:
    81b0:	e350001f 	cmp	r0, #31, 0
    81b4:	812fff1e 	bxhi	lr
    81b8:	e92d4030 	push	{r4, r5, lr}
    81bc:	e24dd014 	sub	sp, sp, #20, 0
    81c0:	e1a04000 	mov	r4, r0
    81c4:	e1a05001 	mov	r5, r1
    81c8:	e3500009 	cmp	r0, #9, 0
    81cc:	9a000010 	bls	8214 <gpio_set_function+0x64>
    81d0:	e3500013 	cmp	r0, #19, 0
    81d4:	9a00001b 	bls	8248 <gpio_set_function+0x98>
    81d8:	e350001d 	cmp	r0, #29, 0
    81dc:	8a000026 	bhi	827c <gpio_set_function+0xcc>
    81e0:	e59f30c8 	ldr	r3, [pc, #200]	; 82b0 <gpio_set_function+0x100>
    81e4:	e58d3008 	str	r3, [sp, #8]
    81e8:	e59d0008 	ldr	r0, [sp, #8]
    81ec:	ebffff8e 	bl	802c <GET32>
    81f0:	e1a01000 	mov	r1, r0
    81f4:	e0844084 	add	r4, r4, r4, lsl #1
    81f8:	e244403c 	sub	r4, r4, #60, 0	; 0x3c
    81fc:	e59d0008 	ldr	r0, [sp, #8]
    8200:	e3a03007 	mov	r3, #7, 0
    8204:	e1c11413 	bic	r1, r1, r3, lsl r4
    8208:	e1811415 	orr	r1, r1, r5, lsl r4
    820c:	ebffff84 	bl	8024 <PUT32>
    8210:	ea00000a 	b	8240 <gpio_set_function+0x90>
    8214:	e59f3098 	ldr	r3, [pc, #152]	; 82b4 <gpio_set_function+0x104>
    8218:	e58d3000 	str	r3, [sp]
    821c:	e59d0000 	ldr	r0, [sp]
    8220:	ebffff81 	bl	802c <GET32>
    8224:	e1a03000 	mov	r3, r0
    8228:	e0844084 	add	r4, r4, r4, lsl #1
    822c:	e59d0000 	ldr	r0, [sp]
    8230:	e3a01007 	mov	r1, #7, 0
    8234:	e1c31411 	bic	r1, r3, r1, lsl r4
    8238:	e1811415 	orr	r1, r1, r5, lsl r4
    823c:	ebffff78 	bl	8024 <PUT32>
    8240:	e28dd014 	add	sp, sp, #20, 0
    8244:	e8bd8030 	pop	{r4, r5, pc}
    8248:	e59f3068 	ldr	r3, [pc, #104]	; 82b8 <gpio_set_function+0x108>
    824c:	e58d3004 	str	r3, [sp, #4]
    8250:	e59d0004 	ldr	r0, [sp, #4]
    8254:	ebffff74 	bl	802c <GET32>
    8258:	e1a01000 	mov	r1, r0
    825c:	e0844084 	add	r4, r4, r4, lsl #1
    8260:	e244401e 	sub	r4, r4, #30, 0
    8264:	e59d0004 	ldr	r0, [sp, #4]
    8268:	e3a03007 	mov	r3, #7, 0
    826c:	e1c11413 	bic	r1, r1, r3, lsl r4
    8270:	e1811415 	orr	r1, r1, r5, lsl r4
    8274:	ebffff6a 	bl	8024 <PUT32>
    8278:	eafffff0 	b	8240 <gpio_set_function+0x90>
    827c:	e59f3038 	ldr	r3, [pc, #56]	; 82bc <gpio_set_function+0x10c>
    8280:	e58d300c 	str	r3, [sp, #12]
    8284:	e59d000c 	ldr	r0, [sp, #12]
    8288:	ebffff67 	bl	802c <GET32>
    828c:	e1a01000 	mov	r1, r0
    8290:	e0844084 	add	r4, r4, r4, lsl #1
    8294:	e244405a 	sub	r4, r4, #90, 0	; 0x5a
    8298:	e59d000c 	ldr	r0, [sp, #12]
    829c:	e3a03007 	mov	r3, #7, 0
    82a0:	e1c11413 	bic	r1, r1, r3, lsl r4
    82a4:	e1811415 	orr	r1, r1, r5, lsl r4
    82a8:	ebffff5d 	bl	8024 <PUT32>
    82ac:	eaffffe3 	b	8240 <gpio_set_function+0x90>
    82b0:	20200008 	.word	0x20200008
    82b4:	20200000 	.word	0x20200000
    82b8:	20200004 	.word	0x20200004
    82bc:	2020000c 	.word	0x2020000c

000082c0 <gpio_set_output>:
    82c0:	e92d4010 	push	{r4, lr}
    82c4:	e3a01001 	mov	r1, #1, 0
    82c8:	ebffffb8 	bl	81b0 <gpio_set_function>
    82cc:	e8bd8010 	pop	{r4, pc}

000082d0 <gpio_set_input>:
    82d0:	e92d4010 	push	{r4, lr}
    82d4:	e3a01000 	mov	r1, #0, 0
    82d8:	ebffffb4 	bl	81b0 <gpio_set_function>
    82dc:	e8bd8010 	pop	{r4, pc}

000082e0 <_cstart>:
    82e0:	e92d4010 	push	{r4, lr}
    82e4:	eb00000c 	bl	831c <custom_loader>
    82e8:	e59f3024 	ldr	r3, [pc, #36]	; 8314 <_cstart+0x34>
    82ec:	e59f2024 	ldr	r2, [pc, #36]	; 8318 <_cstart+0x38>
    82f0:	e1530002 	cmp	r3, r2
    82f4:	33a02000 	movcc	r2, #0, 0
    82f8:	34832004 	strcc	r2, [r3], #4
    82fc:	3afffffa 	bcc	82ec <_cstart+0xc>
    8300:	eb00005d 	bl	847c <uart_init>
    8304:	e3a03001 	mov	r3, #1, 0
    8308:	ee0f3f1c 	mcr	15, 0, r3, cr15, cr12, {0}
    830c:	ebffff57 	bl	8070 <notmain>
    8310:	eb0000ce 	bl	8650 <clean_reboot>
    8314:	00008708 	.word	0x00008708
    8318:	00008708 	.word	0x00008708

0000831c <custom_loader>:
    831c:	e12fff1e 	bx	lr

00008320 <delay_cycles>:
    8320:	e2403001 	sub	r3, r0, #1, 0
    8324:	e3500000 	cmp	r0, #0, 0
    8328:	012fff1e 	bxeq	lr
    832c:	e2811000 	add	r1, r1, #0, 0
    8330:	e1a00003 	mov	r0, r3
    8334:	eafffff9 	b	8320 <delay_cycles>

00008338 <at_user_level>:
    8338:	e10f0000 	mrs	r0, CPSR
    833c:	e200001f 	and	r0, r0, #31, 0
    8340:	e3500010 	cmp	r0, #16, 0
    8344:	13a00000 	movne	r0, #0, 0
    8348:	03a00001 	moveq	r0, #1, 0
    834c:	e12fff1e 	bx	lr

00008350 <set_user_level>:
    8350:	e10f3000 	mrs	r3, CPSR
    8354:	e3c3301f 	bic	r3, r3, #31, 0
    8358:	e3833010 	orr	r3, r3, #16, 0
    835c:	e129f003 	msr	CPSR_fc, r3
    8360:	e12fff1e 	bx	lr

00008364 <rpi_reboot>:
    8364:	e92d4010 	push	{r4, lr}
    8368:	ebfffff2 	bl	8338 <at_user_level>
    836c:	e3500000 	cmp	r0, #0, 0
    8370:	1a00000a 	bne	83a0 <rpi_reboot+0x3c>
    8374:	eb0000bd 	bl	8670 <reboot_callout>
    8378:	eb0000a3 	bl	860c <uart_flush_tx>
    837c:	e3a0000a 	mov	r0, #10, 0
    8380:	eb000021 	bl	840c <delay_ms>
    8384:	e59f101c 	ldr	r1, [pc, #28]	; 83a8 <rpi_reboot+0x44>
    8388:	e59f001c 	ldr	r0, [pc, #28]	; 83ac <rpi_reboot+0x48>
    838c:	ebffff24 	bl	8024 <PUT32>
    8390:	e59f1018 	ldr	r1, [pc, #24]	; 83b0 <rpi_reboot+0x4c>
    8394:	e59f0018 	ldr	r0, [pc, #24]	; 83b4 <rpi_reboot+0x50>
    8398:	ebffff21 	bl	8024 <PUT32>
    839c:	eafffffe 	b	839c <rpi_reboot+0x38>
    83a0:	ebffffea 	bl	8350 <set_user_level>
    83a4:	eafffff2 	b	8374 <rpi_reboot+0x10>
    83a8:	5a000001 	.word	0x5a000001
    83ac:	20100024 	.word	0x20100024
    83b0:	5a000020 	.word	0x5a000020
    83b4:	2010001c 	.word	0x2010001c

000083b8 <timer_get_usec_raw>:
    83b8:	e92d4010 	push	{r4, lr}
    83bc:	e59f0004 	ldr	r0, [pc, #4]	; 83c8 <timer_get_usec_raw+0x10>
    83c0:	ebffff19 	bl	802c <GET32>
    83c4:	e8bd8010 	pop	{r4, pc}
    83c8:	20003004 	.word	0x20003004

000083cc <timer_get_usec>:
    83cc:	e92d4010 	push	{r4, lr}
    83d0:	eb0000a7 	bl	8674 <dev_barrier>
    83d4:	ebfffff7 	bl	83b8 <timer_get_usec_raw>
    83d8:	e1a04000 	mov	r4, r0
    83dc:	eb0000a4 	bl	8674 <dev_barrier>
    83e0:	e1a00004 	mov	r0, r4
    83e4:	e8bd8010 	pop	{r4, pc}

000083e8 <delay_us>:
    83e8:	e92d4070 	push	{r4, r5, r6, lr}
    83ec:	e1a05000 	mov	r5, r0
    83f0:	ebfffff5 	bl	83cc <timer_get_usec>
    83f4:	e1a04000 	mov	r4, r0
    83f8:	ebfffff3 	bl	83cc <timer_get_usec>
    83fc:	e0400004 	sub	r0, r0, r4
    8400:	e1500005 	cmp	r0, r5
    8404:	3afffffb 	bcc	83f8 <delay_us+0x10>
    8408:	e8bd8070 	pop	{r4, r5, r6, pc}

0000840c <delay_ms>:
    840c:	e92d4010 	push	{r4, lr}
    8410:	e0603280 	rsb	r3, r0, r0, lsl #5
    8414:	e0800103 	add	r0, r0, r3, lsl #2
    8418:	e1a00180 	lsl	r0, r0, #3
    841c:	ebfffff1 	bl	83e8 <delay_us>
    8420:	e8bd8010 	pop	{r4, pc}

00008424 <delay_sec>:
    8424:	e92d4010 	push	{r4, lr}
    8428:	e0603280 	rsb	r3, r0, r0, lsl #5
    842c:	e0800103 	add	r0, r0, r3, lsl #2
    8430:	e1a00180 	lsl	r0, r0, #3
    8434:	ebfffff4 	bl	840c <delay_ms>
    8438:	e8bd8010 	pop	{r4, pc}

0000843c <and_in32>:
    843c:	e92d4070 	push	{r4, r5, r6, lr}
    8440:	e1a04000 	mov	r4, r0
    8444:	e1a05001 	mov	r5, r1
    8448:	ebfffef7 	bl	802c <GET32>
    844c:	e0001005 	and	r1, r0, r5
    8450:	e1a00004 	mov	r0, r4
    8454:	ebfffef2 	bl	8024 <PUT32>
    8458:	e8bd8070 	pop	{r4, r5, r6, pc}

0000845c <or_in32>:
    845c:	e92d4070 	push	{r4, r5, r6, lr}
    8460:	e1a04000 	mov	r4, r0
    8464:	e1a05001 	mov	r5, r1
    8468:	ebfffeef 	bl	802c <GET32>
    846c:	e1801005 	orr	r1, r0, r5
    8470:	e1a00004 	mov	r0, r4
    8474:	ebfffeea 	bl	8024 <PUT32>
    8478:	e8bd8070 	pop	{r4, r5, r6, pc}

0000847c <uart_init>:
    847c:	e92d4010 	push	{r4, lr}
    8480:	eb00007b 	bl	8674 <dev_barrier>
    8484:	e3a01002 	mov	r1, #2, 0
    8488:	e3a0000e 	mov	r0, #14, 0
    848c:	ebffff47 	bl	81b0 <gpio_set_function>
    8490:	e3a01002 	mov	r1, #2, 0
    8494:	e3a0000f 	mov	r0, #15, 0
    8498:	ebffff44 	bl	81b0 <gpio_set_function>
    849c:	eb000074 	bl	8674 <dev_barrier>
    84a0:	e3a01001 	mov	r1, #1, 0
    84a4:	e59f0064 	ldr	r0, [pc, #100]	; 8510 <uart_init+0x94>
    84a8:	ebffffeb 	bl	845c <or_in32>
    84ac:	eb000070 	bl	8674 <dev_barrier>
    84b0:	e59f405c 	ldr	r4, [pc, #92]	; 8514 <uart_init+0x98>
    84b4:	e3a01000 	mov	r1, #0, 0
    84b8:	e1a00004 	mov	r0, r4
    84bc:	ebfffed8 	bl	8024 <PUT32>
    84c0:	e3a01000 	mov	r1, #0, 0
    84c4:	e59f004c 	ldr	r0, [pc, #76]	; 8518 <uart_init+0x9c>
    84c8:	ebfffed5 	bl	8024 <PUT32>
    84cc:	e3a01003 	mov	r1, #3, 0
    84d0:	e59f0044 	ldr	r0, [pc, #68]	; 851c <uart_init+0xa0>
    84d4:	ebfffed2 	bl	8024 <PUT32>
    84d8:	e3a01000 	mov	r1, #0, 0
    84dc:	e59f003c 	ldr	r0, [pc, #60]	; 8520 <uart_init+0xa4>
    84e0:	ebfffecf 	bl	8024 <PUT32>
    84e4:	e3a01006 	mov	r1, #6, 0
    84e8:	e59f0034 	ldr	r0, [pc, #52]	; 8524 <uart_init+0xa8>
    84ec:	ebfffecc 	bl	8024 <PUT32>
    84f0:	e59f1030 	ldr	r1, [pc, #48]	; 8528 <uart_init+0xac>
    84f4:	e59f0030 	ldr	r0, [pc, #48]	; 852c <uart_init+0xb0>
    84f8:	ebfffec9 	bl	8024 <PUT32>
    84fc:	e3a01003 	mov	r1, #3, 0
    8500:	e1a00004 	mov	r0, r4
    8504:	ebfffec6 	bl	8024 <PUT32>
    8508:	eb000059 	bl	8674 <dev_barrier>
    850c:	e8bd8010 	pop	{r4, pc}
    8510:	20215004 	.word	0x20215004
    8514:	20215060 	.word	0x20215060
    8518:	20215044 	.word	0x20215044
    851c:	2021504c 	.word	0x2021504c
    8520:	20215050 	.word	0x20215050
    8524:	20215048 	.word	0x20215048
    8528:	0000010e 	.word	0x0000010e
    852c:	20215068 	.word	0x20215068

00008530 <uart_can_getc>:
    8530:	e92d4010 	push	{r4, lr}
    8534:	e59f0008 	ldr	r0, [pc, #8]	; 8544 <uart_can_getc+0x14>
    8538:	ebfffebb 	bl	802c <GET32>
    853c:	e2000001 	and	r0, r0, #1, 0
    8540:	e8bd8010 	pop	{r4, pc}
    8544:	20215064 	.word	0x20215064

00008548 <uart_can_putc>:
    8548:	e92d4010 	push	{r4, lr}
    854c:	e59f0010 	ldr	r0, [pc, #16]	; 8564 <uart_can_putc+0x1c>
    8550:	ebfffeb5 	bl	802c <GET32>
    8554:	e3100002 	tst	r0, #2, 0
    8558:	13a00001 	movne	r0, #1, 0
    855c:	03a00000 	moveq	r0, #0, 0
    8560:	e8bd8010 	pop	{r4, pc}
    8564:	20215064 	.word	0x20215064

00008568 <uart_get8>:
    8568:	e92d4010 	push	{r4, lr}
    856c:	eb000040 	bl	8674 <dev_barrier>
    8570:	ea000000 	b	8578 <uart_get8+0x10>
    8574:	eb000044 	bl	868c <rpi_wait>
    8578:	ebffffec 	bl	8530 <uart_can_getc>
    857c:	e3500000 	cmp	r0, #0, 0
    8580:	0afffffb 	beq	8574 <uart_get8+0xc>
    8584:	e59f0010 	ldr	r0, [pc, #16]	; 859c <uart_get8+0x34>
    8588:	ebfffea7 	bl	802c <GET32>
    858c:	e6ef4070 	uxtb	r4, r0
    8590:	eb000037 	bl	8674 <dev_barrier>
    8594:	e1a00004 	mov	r0, r4
    8598:	e8bd8010 	pop	{r4, pc}
    859c:	20215040 	.word	0x20215040

000085a0 <uart_put8>:
    85a0:	e92d4010 	push	{r4, lr}
    85a4:	e1a04000 	mov	r4, r0
    85a8:	eb000031 	bl	8674 <dev_barrier>
    85ac:	ea000000 	b	85b4 <uart_put8+0x14>
    85b0:	eb000035 	bl	868c <rpi_wait>
    85b4:	ebffffe3 	bl	8548 <uart_can_putc>
    85b8:	e3500000 	cmp	r0, #0, 0
    85bc:	0afffffb 	beq	85b0 <uart_put8+0x10>
    85c0:	e1a01004 	mov	r1, r4
    85c4:	e59f000c 	ldr	r0, [pc, #12]	; 85d8 <uart_put8+0x38>
    85c8:	ebfffe95 	bl	8024 <PUT32>
    85cc:	eb000028 	bl	8674 <dev_barrier>
    85d0:	e3a00001 	mov	r0, #1, 0
    85d4:	e8bd8010 	pop	{r4, pc}
    85d8:	20215040 	.word	0x20215040

000085dc <uart_has_data>:
    85dc:	e92d4010 	push	{r4, lr}
    85e0:	eb000023 	bl	8674 <dev_barrier>
    85e4:	ebffffd1 	bl	8530 <uart_can_getc>
    85e8:	e8bd8010 	pop	{r4, pc}

000085ec <uart_tx_is_empty>:
    85ec:	e92d4010 	push	{r4, lr}
    85f0:	eb00001f 	bl	8674 <dev_barrier>
    85f4:	e59f000c 	ldr	r0, [pc, #12]	; 8608 <uart_tx_is_empty+0x1c>
    85f8:	ebfffe8b 	bl	802c <GET32>
    85fc:	e1a004a0 	lsr	r0, r0, #9
    8600:	e2000001 	and	r0, r0, #1, 0
    8604:	e8bd8010 	pop	{r4, pc}
    8608:	20215064 	.word	0x20215064

0000860c <uart_flush_tx>:
    860c:	e92d4010 	push	{r4, lr}
    8610:	ea000000 	b	8618 <uart_flush_tx+0xc>
    8614:	eb00001c 	bl	868c <rpi_wait>
    8618:	ebfffff3 	bl	85ec <uart_tx_is_empty>
    861c:	e3500000 	cmp	r0, #0, 0
    8620:	0afffffb 	beq	8614 <uart_flush_tx+0x8>
    8624:	e8bd8010 	pop	{r4, pc}

00008628 <uart_disable>:
    8628:	e92d4010 	push	{r4, lr}
    862c:	ebfffff6 	bl	860c <uart_flush_tx>
    8630:	eb00000f 	bl	8674 <dev_barrier>
    8634:	e3e01001 	mvn	r1, #1, 0
    8638:	e59f0008 	ldr	r0, [pc, #8]	; 8648 <uart_disable+0x20>
    863c:	ebffff7e 	bl	843c <and_in32>
    8640:	eb00000b 	bl	8674 <dev_barrier>
    8644:	e8bd8010 	pop	{r4, pc}
    8648:	20215004 	.word	0x20215004

0000864c <using_staff_uart>:
    864c:	e12fff1e 	bx	lr

00008650 <clean_reboot>:
    8650:	e92d4010 	push	{r4, lr}
    8654:	e59f0010 	ldr	r0, [pc, #16]	; 866c <clean_reboot+0x1c>
    8658:	eb00000c 	bl	8690 <putk>
    865c:	ebffffea 	bl	860c <uart_flush_tx>
    8660:	e3a0000a 	mov	r0, #10, 0
    8664:	ebffff68 	bl	840c <delay_ms>
    8668:	ebffff3d 	bl	8364 <rpi_reboot>
    866c:	000086f8 	.word	0x000086f8

00008670 <reboot_callout>:
    8670:	e12fff1e 	bx	lr

00008674 <dev_barrier>:
    8674:	ea000002 	b	8684 <dsb>

00008678 <dmb>:
    8678:	e3a00000 	mov	r0, #0, 0
    867c:	ee070fba 	mcr	15, 0, r0, cr7, cr10, {5}
    8680:	e12fff1e 	bx	lr

00008684 <dsb>:
    8684:	ee070f9a 	mcr	15, 0, r0, cr7, cr10, {4}
    8688:	e12fff1e 	bx	lr

0000868c <rpi_wait>:
    868c:	e12fff1e 	bx	lr

00008690 <putk>:
    8690:	e92d4010 	push	{r4, lr}
    8694:	e1a04000 	mov	r4, r0
    8698:	e5d40000 	ldrb	r0, [r4]
    869c:	e3500000 	cmp	r0, #0, 0
    86a0:	0a000004 	beq	86b8 <putk+0x28>
    86a4:	e59f3014 	ldr	r3, [pc, #20]	; 86c0 <putk+0x30>
    86a8:	e5933000 	ldr	r3, [r3]
    86ac:	e12fff33 	blx	r3
    86b0:	e2844001 	add	r4, r4, #1, 0
    86b4:	eafffff7 	b	8698 <putk+0x8>
    86b8:	e3a00001 	mov	r0, #1, 0
    86bc:	e8bd8010 	pop	{r4, pc}
    86c0:	00008704 	.word	0x00008704

000086c4 <default_putchar>:
    86c4:	e92d4010 	push	{r4, lr}
    86c8:	e1a04000 	mov	r4, r0
    86cc:	e6ef0070 	uxtb	r0, r0
    86d0:	ebffffb2 	bl	85a0 <uart_put8>
    86d4:	e1a00004 	mov	r0, r4
    86d8:	e8bd8010 	pop	{r4, pc}

000086dc <rpi_putchar_set>:
    86dc:	e59f300c 	ldr	r3, [pc, #12]	; 86f0 <rpi_putchar_set+0x14>
    86e0:	e5932000 	ldr	r2, [r3]
    86e4:	e5830000 	str	r0, [r3]
    86e8:	e1a00002 	mov	r0, r2
    86ec:	e12fff1e 	bx	lr
    86f0:	00008704 	.word	0x00008704

000086f4 <__code_end__>:
    86f4:	00000000 	.word	0x00000000
