
tests/2-fat32-jump.elf:     file format elf32-littlearm


Disassembly of section .text:

00008000 <__code_start__>:
    8000:	e3a00013 	mov	r0, #19, 0
    8004:	e3800080 	orr	r0, r0, #128, 0	; 0x80
    8008:	e129f000 	msr	CPSR_fc, r0
    800c:	e3a01000 	mov	r1, #0, 0
    8010:	ee071f95 	mcr	15, 0, r1, cr7, cr5, {4}
    8014:	e3a0d302 	mov	sp, #134217728	; 0x8000000
    8018:	e3a0b000 	mov	fp, #0, 0
    801c:	eb00141e 	bl	d09c <_cstart>
    8020:	eb00145a 	bl	d190 <rpi_reboot>

00008024 <PUT32>:
    8024:	e5801000 	str	r1, [r0]
    8028:	e12fff1e 	bx	lr

0000802c <GET32>:
    802c:	e5900000 	ldr	r0, [r0]
    8030:	e12fff1e 	bx	lr

00008034 <BRANCHTO>:
    8034:	e12fff10 	bx	r0

00008038 <fast_hash_inc32>:
    8038:	e1a0c000 	mov	ip, r0
    803c:	e16f0f10 	clz	r0, r0
    8040:	e1a002a0 	lsr	r0, r0, #5
    8044:	e3510000 	cmp	r1, #0, 0
    8048:	03a00001 	moveq	r0, #1, 0
    804c:	e3500000 	cmp	r0, #0, 0
    8050:	1a000033 	bne	8124 <fast_hash_inc32+0xec>
    8054:	e52de004 	push	{lr}		; (str lr, [sp, #-4]!)
    8058:	e201e003 	and	lr, r1, #3, 0
    805c:	e1a01121 	lsr	r1, r1, #2
    8060:	e3510000 	cmp	r1, #0, 0
    8064:	0a00000c 	beq	809c <fast_hash_inc32+0x64>
    8068:	e5dc0001 	ldrb	r0, [ip, #1]
    806c:	e5dc3000 	ldrb	r3, [ip]
    8070:	e1833400 	orr	r3, r3, r0, lsl #8
    8074:	e0823003 	add	r3, r2, r3
    8078:	e5dc0003 	ldrb	r0, [ip, #3]
    807c:	e5dc2002 	ldrb	r2, [ip, #2]
    8080:	e1822400 	orr	r2, r2, r0, lsl #8
    8084:	e0232582 	eor	r2, r3, r2, lsl #11
    8088:	e0222803 	eor	r2, r2, r3, lsl #16
    808c:	e28cc004 	add	ip, ip, #4, 0
    8090:	e08225a2 	add	r2, r2, r2, lsr #11
    8094:	e2411001 	sub	r1, r1, #1, 0
    8098:	eafffff0 	b	8060 <fast_hash_inc32+0x28>
    809c:	e35e0002 	cmp	lr, #2, 0
    80a0:	0a000013 	beq	80f4 <fast_hash_inc32+0xbc>
    80a4:	e35e0003 	cmp	lr, #3, 0
    80a8:	0a000008 	beq	80d0 <fast_hash_inc32+0x98>
    80ac:	e35e0001 	cmp	lr, #1, 0
    80b0:	0a000016 	beq	8110 <fast_hash_inc32+0xd8>
    80b4:	e0222182 	eor	r2, r2, r2, lsl #3
    80b8:	e08202a2 	add	r0, r2, r2, lsr #5
    80bc:	e0200200 	eor	r0, r0, r0, lsl #4
    80c0:	e08008a0 	add	r0, r0, r0, lsr #17
    80c4:	e0200c80 	eor	r0, r0, r0, lsl #25
    80c8:	e0800320 	add	r0, r0, r0, lsr #6
    80cc:	e49df004 	pop	{pc}		; (ldr pc, [sp], #4)
    80d0:	e5dc1001 	ldrb	r1, [ip, #1]
    80d4:	e5dc3000 	ldrb	r3, [ip]
    80d8:	e1833401 	orr	r3, r3, r1, lsl #8
    80dc:	e0822003 	add	r2, r2, r3
    80e0:	e0222802 	eor	r2, r2, r2, lsl #16
    80e4:	e1dc30d2 	ldrsb	r3, [ip, #2]
    80e8:	e0222903 	eor	r2, r2, r3, lsl #18
    80ec:	e08225a2 	add	r2, r2, r2, lsr #11
    80f0:	eaffffef 	b	80b4 <fast_hash_inc32+0x7c>
    80f4:	e5dc1001 	ldrb	r1, [ip, #1]
    80f8:	e5dc3000 	ldrb	r3, [ip]
    80fc:	e1833401 	orr	r3, r3, r1, lsl #8
    8100:	e0822003 	add	r2, r2, r3
    8104:	e0222582 	eor	r2, r2, r2, lsl #11
    8108:	e08228a2 	add	r2, r2, r2, lsr #17
    810c:	eaffffe8 	b	80b4 <fast_hash_inc32+0x7c>
    8110:	e1dc30d0 	ldrsb	r3, [ip]
    8114:	e0832002 	add	r2, r3, r2
    8118:	e0222502 	eor	r2, r2, r2, lsl #10
    811c:	e08220a2 	add	r2, r2, r2, lsr #1
    8120:	eaffffe3 	b	80b4 <fast_hash_inc32+0x7c>
    8124:	e3a00000 	mov	r0, #0, 0
    8128:	e12fff1e 	bx	lr

0000812c <notmain>:
    812c:	e92d4070 	push	{r4, r5, r6, lr}
    8130:	e24dd060 	sub	sp, sp, #96, 0	; 0x60
    8134:	eb0014b5 	bl	d410 <uart_init>
    8138:	e3a01301 	mov	r1, #67108864	; 0x4000000
    813c:	e3a00601 	mov	r0, #1048576	; 0x100000
    8140:	eb001536 	bl	d620 <kmalloc_init_set_start>
    8144:	eb0003e7 	bl	90e8 <pi_sd_init>
    8148:	e59f02a0 	ldr	r0, [pc, #672]	; 83f0 <notmain+0x2c4>
    814c:	eb00129a 	bl	cbbc <printk>
    8150:	eb0000bc 	bl	8448 <mbr_read>
    8154:	e1a04000 	mov	r4, r0
    8158:	e59f0294 	ldr	r0, [pc, #660]	; 83f4 <notmain+0x2c8>
    815c:	eb001296 	bl	cbbc <printk>
    8160:	e3a02010 	mov	r2, #16, 0
    8164:	e2841f6f 	add	r1, r4, #444	; 0x1bc
    8168:	e2811002 	add	r1, r1, #2, 0
    816c:	e28d0050 	add	r0, sp, #80, 0	; 0x50
    8170:	eb001232 	bl	ca40 <memcpy>
    8174:	e5dd3054 	ldrb	r3, [sp, #84]	; 0x54
    8178:	e243300b 	sub	r3, r3, #11, 0
    817c:	e3530001 	cmp	r3, #1, 0
    8180:	9a000007 	bls	81a4 <notmain+0x78>
    8184:	e59f326c 	ldr	r3, [pc, #620]	; 83f8 <notmain+0x2cc>
    8188:	e58d3000 	str	r3, [sp]
    818c:	e3a03011 	mov	r3, #17, 0
    8190:	e59f2264 	ldr	r2, [pc, #612]	; 83fc <notmain+0x2d0>
    8194:	e59f1264 	ldr	r1, [pc, #612]	; 8400 <notmain+0x2d4>
    8198:	e59f0264 	ldr	r0, [pc, #612]	; 8404 <notmain+0x2d8>
    819c:	eb001286 	bl	cbbc <printk>
    81a0:	eb0013b5 	bl	d07c <clean_reboot>
    81a4:	e59f025c 	ldr	r0, [pc, #604]	; 8408 <notmain+0x2dc>
    81a8:	eb001283 	bl	cbbc <printk>
    81ac:	e28d1050 	add	r1, sp, #80, 0	; 0x50
    81b0:	e28d0034 	add	r0, sp, #52, 0	; 0x34
    81b4:	eb00012e 	bl	8674 <fat32_mk>
    81b8:	e59f024c 	ldr	r0, [pc, #588]	; 840c <notmain+0x2e0>
    81bc:	eb00127e 	bl	cbbc <printk>
    81c0:	e28d1034 	add	r1, sp, #52, 0	; 0x34
    81c4:	e28d0008 	add	r0, sp, #8, 0
    81c8:	eb0001d0 	bl	8910 <fat32_get_root>
    81cc:	e59f423c 	ldr	r4, [pc, #572]	; 8410 <notmain+0x2e4>
    81d0:	e1a01004 	mov	r1, r4
    81d4:	e59f0238 	ldr	r0, [pc, #568]	; 8414 <notmain+0x2e8>
    81d8:	eb001277 	bl	cbbc <printk>
    81dc:	e1a02004 	mov	r2, r4
    81e0:	e28d1008 	add	r1, sp, #8, 0
    81e4:	e28d0034 	add	r0, sp, #52, 0	; 0x34
    81e8:	eb000252 	bl	8b38 <fat32_stat>
    81ec:	e3500000 	cmp	r0, #0, 0
    81f0:	0a000034 	beq	82c8 <notmain+0x19c>
    81f4:	e59f4214 	ldr	r4, [pc, #532]	; 8410 <notmain+0x2e4>
    81f8:	e1a01004 	mov	r1, r4
    81fc:	e59f0214 	ldr	r0, [pc, #532]	; 8418 <notmain+0x2ec>
    8200:	eb00126d 	bl	cbbc <printk>
    8204:	e1a02004 	mov	r2, r4
    8208:	e28d1008 	add	r1, sp, #8, 0
    820c:	e28d0034 	add	r0, sp, #52, 0	; 0x34
    8210:	eb000288 	bl	8c38 <fat32_read>
    8214:	e3500000 	cmp	r0, #0, 0
    8218:	0a000032 	beq	82e8 <notmain+0x1bc>
    821c:	e5904008 	ldr	r4, [r0, #8]
    8220:	e1a02004 	mov	r2, r4
    8224:	e1a01004 	mov	r1, r4
    8228:	e5900000 	ldr	r0, [r0]
    822c:	ebffff81 	bl	8038 <fast_hash_inc32>
    8230:	e1a03000 	mov	r3, r0
    8234:	e1a02004 	mov	r2, r4
    8238:	e59f11d0 	ldr	r1, [pc, #464]	; 8410 <notmain+0x2e4>
    823c:	e59f01d8 	ldr	r0, [pc, #472]	; 841c <notmain+0x2f0>
    8240:	eb00125d 	bl	cbbc <printk>
    8244:	e59f41d4 	ldr	r4, [pc, #468]	; 8420 <notmain+0x2f4>
    8248:	e1a01004 	mov	r1, r4
    824c:	e59f01c0 	ldr	r0, [pc, #448]	; 8414 <notmain+0x2e8>
    8250:	eb001259 	bl	cbbc <printk>
    8254:	e1a02004 	mov	r2, r4
    8258:	e28d1008 	add	r1, sp, #8, 0
    825c:	e28d0034 	add	r0, sp, #52, 0	; 0x34
    8260:	eb000234 	bl	8b38 <fat32_stat>
    8264:	e3500000 	cmp	r0, #0, 0
    8268:	0a000026 	beq	8308 <notmain+0x1dc>
    826c:	e59f41ac 	ldr	r4, [pc, #428]	; 8420 <notmain+0x2f4>
    8270:	e1a01004 	mov	r1, r4
    8274:	e59f019c 	ldr	r0, [pc, #412]	; 8418 <notmain+0x2ec>
    8278:	eb00124f 	bl	cbbc <printk>
    827c:	e1a02004 	mov	r2, r4
    8280:	e28d1008 	add	r1, sp, #8, 0
    8284:	e28d0034 	add	r0, sp, #52, 0	; 0x34
    8288:	eb00026a 	bl	8c38 <fat32_read>
    828c:	e2505000 	subs	r5, r0, #0, 0
    8290:	0a000024 	beq	8328 <notmain+0x1fc>
    8294:	e5954008 	ldr	r4, [r5, #8]
    8298:	e1a02004 	mov	r2, r4
    829c:	e1a01004 	mov	r1, r4
    82a0:	e5950000 	ldr	r0, [r5]
    82a4:	ebffff63 	bl	8038 <fast_hash_inc32>
    82a8:	e1a03000 	mov	r3, r0
    82ac:	e1a02004 	mov	r2, r4
    82b0:	e59f1168 	ldr	r1, [pc, #360]	; 8420 <notmain+0x2f4>
    82b4:	e59f0160 	ldr	r0, [pc, #352]	; 841c <notmain+0x2f0>
    82b8:	eb00123f 	bl	cbbc <printk>
    82bc:	e5956000 	ldr	r6, [r5]
    82c0:	e3a04000 	mov	r4, #0, 0
    82c4:	ea000025 	b	8360 <notmain+0x234>
    82c8:	e59f3154 	ldr	r3, [pc, #340]	; 8424 <notmain+0x2f8>
    82cc:	e58d3000 	str	r3, [sp]
    82d0:	e3a0302a 	mov	r3, #42, 0	; 0x2a
    82d4:	e59f2120 	ldr	r2, [pc, #288]	; 83fc <notmain+0x2d0>
    82d8:	e59f1120 	ldr	r1, [pc, #288]	; 8400 <notmain+0x2d4>
    82dc:	e59f0144 	ldr	r0, [pc, #324]	; 8428 <notmain+0x2fc>
    82e0:	eb001235 	bl	cbbc <printk>
    82e4:	eb001364 	bl	d07c <clean_reboot>
    82e8:	e59f313c 	ldr	r3, [pc, #316]	; 842c <notmain+0x300>
    82ec:	e58d3000 	str	r3, [sp]
    82f0:	e3a0302e 	mov	r3, #46, 0	; 0x2e
    82f4:	e59f2100 	ldr	r2, [pc, #256]	; 83fc <notmain+0x2d0>
    82f8:	e59f1100 	ldr	r1, [pc, #256]	; 8400 <notmain+0x2d4>
    82fc:	e59f0100 	ldr	r0, [pc, #256]	; 8404 <notmain+0x2d8>
    8300:	eb00122d 	bl	cbbc <printk>
    8304:	eb00135c 	bl	d07c <clean_reboot>
    8308:	e59f3114 	ldr	r3, [pc, #276]	; 8424 <notmain+0x2f8>
    830c:	e58d3000 	str	r3, [sp]
    8310:	e3a03036 	mov	r3, #54, 0	; 0x36
    8314:	e59f20e0 	ldr	r2, [pc, #224]	; 83fc <notmain+0x2d0>
    8318:	e59f10e0 	ldr	r1, [pc, #224]	; 8400 <notmain+0x2d4>
    831c:	e59f010c 	ldr	r0, [pc, #268]	; 8430 <notmain+0x304>
    8320:	eb001225 	bl	cbbc <printk>
    8324:	eb001354 	bl	d07c <clean_reboot>
    8328:	e59f30fc 	ldr	r3, [pc, #252]	; 842c <notmain+0x300>
    832c:	e58d3000 	str	r3, [sp]
    8330:	e3a0303a 	mov	r3, #58, 0	; 0x3a
    8334:	e59f20c0 	ldr	r2, [pc, #192]	; 83fc <notmain+0x2d0>
    8338:	e59f10c0 	ldr	r1, [pc, #192]	; 8400 <notmain+0x2d4>
    833c:	e59f00c0 	ldr	r0, [pc, #192]	; 8404 <notmain+0x2d8>
    8340:	eb00121d 	bl	cbbc <printk>
    8344:	eb00134c 	bl	d07c <clean_reboot>
    8348:	e7962104 	ldr	r2, [r6, r4, lsl #2]
    834c:	e1a03002 	mov	r3, r2
    8350:	e1a01004 	mov	r1, r4
    8354:	e59f00d8 	ldr	r0, [pc, #216]	; 8434 <notmain+0x308>
    8358:	eb001217 	bl	cbbc <printk>
    835c:	e2844001 	add	r4, r4, #1, 0
    8360:	e3540003 	cmp	r4, #3, 0
    8364:	dafffff7 	ble	8348 <notmain+0x21c>
    8368:	e5962000 	ldr	r2, [r6]
    836c:	e59f30c4 	ldr	r3, [pc, #196]	; 8438 <notmain+0x30c>
    8370:	e1520003 	cmp	r2, r3
    8374:	1a00000a 	bne	83a4 <notmain+0x278>
    8378:	e5964008 	ldr	r4, [r6, #8]
    837c:	e3540809 	cmp	r4, #589824	; 0x90000
    8380:	0a00000f 	beq	83c4 <notmain+0x298>
    8384:	e59f30b0 	ldr	r3, [pc, #176]	; 843c <notmain+0x310>
    8388:	e58d3000 	str	r3, [sp]
    838c:	e3a03048 	mov	r3, #72, 0	; 0x48
    8390:	e59f2064 	ldr	r2, [pc, #100]	; 83fc <notmain+0x2d0>
    8394:	e59f1064 	ldr	r1, [pc, #100]	; 8400 <notmain+0x2d4>
    8398:	e59f0064 	ldr	r0, [pc, #100]	; 8404 <notmain+0x2d8>
    839c:	eb001206 	bl	cbbc <printk>
    83a0:	eb001335 	bl	d07c <clean_reboot>
    83a4:	e59f3094 	ldr	r3, [pc, #148]	; 8440 <notmain+0x314>
    83a8:	e58d3000 	str	r3, [sp]
    83ac:	e3a03044 	mov	r3, #68, 0	; 0x44
    83b0:	e59f2044 	ldr	r2, [pc, #68]	; 83fc <notmain+0x2d0>
    83b4:	e59f1044 	ldr	r1, [pc, #68]	; 8400 <notmain+0x2d4>
    83b8:	e59f0044 	ldr	r0, [pc, #68]	; 8404 <notmain+0x2d8>
    83bc:	eb0011fe 	bl	cbbc <printk>
    83c0:	eb00132d 	bl	d07c <clean_reboot>
    83c4:	e5952008 	ldr	r2, [r5, #8]
    83c8:	e5951000 	ldr	r1, [r5]
    83cc:	e1a00004 	mov	r0, r4
    83d0:	eb00119a 	bl	ca40 <memcpy>
    83d4:	e5960004 	ldr	r0, [r6, #4]
    83d8:	e0800004 	add	r0, r0, r4
    83dc:	ebffff14 	bl	8034 <BRANCHTO>
    83e0:	e59f1018 	ldr	r1, [pc, #24]	; 8400 <notmain+0x2d4>
    83e4:	e59f0058 	ldr	r0, [pc, #88]	; 8444 <notmain+0x318>
    83e8:	eb0011f3 	bl	cbbc <printk>
    83ec:	eb001322 	bl	d07c <clean_reboot>
    83f0:	0000d9e8 	.word	0x0000d9e8
    83f4:	0000d9fc 	.word	0x0000d9fc
    83f8:	0000da64 	.word	0x0000da64
    83fc:	0000dbec 	.word	0x0000dbec
    8400:	0000da1c 	.word	0x0000da1c
    8404:	0000da34 	.word	0x0000da34
    8408:	0000da8c 	.word	0x0000da8c
    840c:	0000daa0 	.word	0x0000daa0
    8410:	0000dac0 	.word	0x0000dac0
    8414:	0000dad0 	.word	0x0000dad0
    8418:	0000db30 	.word	0x0000db30
    841c:	0000db40 	.word	0x0000db40
    8420:	0000db5c 	.word	0x0000db5c
    8424:	0000db2c 	.word	0x0000db2c
    8428:	0000dae4 	.word	0x0000dae4
    842c:	0000db3c 	.word	0x0000db3c
    8430:	0000db68 	.word	0x0000db68
    8434:	0000dbac 	.word	0x0000dbac
    8438:	12345678 	.word	0x12345678
    843c:	0000dbd0 	.word	0x0000dbd0
    8440:	0000dbbc 	.word	0x0000dbbc
    8444:	0000dbe0 	.word	0x0000dbe0

00008448 <mbr_read>:
    8448:	e92d4010 	push	{r4, lr}
    844c:	eb000325 	bl	90e8 <pi_sd_init>
    8450:	e3a01001 	mov	r1, #1, 0
    8454:	e3a00000 	mov	r0, #0, 0
    8458:	eb000386 	bl	9278 <pi_sec_read>
    845c:	e1a04000 	mov	r4, r0
    8460:	eb00057f 	bl	9a64 <mbr_check>
    8464:	e1a00004 	mov	r0, r4
    8468:	e8bd8010 	pop	{r4, pc}

0000846c <cluster_to_lba>:
    846c:	e3510001 	cmp	r1, #1, 0
    8470:	9a000004 	bls	8488 <cluster_to_lba+0x1c>
    8474:	e5903008 	ldr	r3, [r0, #8]
    8478:	e590000c 	ldr	r0, [r0, #12]
    847c:	e2411002 	sub	r1, r1, #2, 0
    8480:	e0203190 	mla	r0, r0, r1, r3
    8484:	e12fff1e 	bx	lr
    8488:	e52de004 	push	{lr}		; (str lr, [sp, #-4]!)
    848c:	e24dd00c 	sub	sp, sp, #12, 0
    8490:	e59f3018 	ldr	r3, [pc, #24]	; 84b0 <cluster_to_lba+0x44>
    8494:	e58d3000 	str	r3, [sp]
    8498:	e3a0306e 	mov	r3, #110, 0	; 0x6e
    849c:	e59f2010 	ldr	r2, [pc, #16]	; 84b4 <cluster_to_lba+0x48>
    84a0:	e59f1010 	ldr	r1, [pc, #16]	; 84b8 <cluster_to_lba+0x4c>
    84a4:	e59f0010 	ldr	r0, [pc, #16]	; 84bc <cluster_to_lba+0x50>
    84a8:	eb0011c3 	bl	cbbc <printk>
    84ac:	eb0012f2 	bl	d07c <clean_reboot>
    84b0:	0000dbfc 	.word	0x0000dbfc
    84b4:	0000ded0 	.word	0x0000ded0
    84b8:	0000dbf4 	.word	0x0000dbf4
    84bc:	0000da34 	.word	0x0000da34

000084c0 <get_cluster_chain_length>:
    84c0:	e92d4070 	push	{r4, r5, r6, lr}
    84c4:	e1a06000 	mov	r6, r0
    84c8:	e1a04001 	mov	r4, r1
    84cc:	e3a05000 	mov	r5, #0, 0
    84d0:	e1a00004 	mov	r0, r4
    84d4:	eb000812 	bl	a524 <fat32_fat_entry_type>
    84d8:	e370028f 	cmn	r0, #-268435448	; 0xf0000008
    84dc:	15963014 	ldrne	r3, [r6, #20]
    84e0:	17934104 	ldrne	r4, [r3, r4, lsl #2]
    84e4:	12855001 	addne	r5, r5, #1, 0
    84e8:	1afffff8 	bne	84d0 <get_cluster_chain_length+0x10>
    84ec:	e1a00005 	mov	r0, r5
    84f0:	e8bd8070 	pop	{r4, r5, r6, pc}

000084f4 <read_cluster_chain>:
    84f4:	e92d4070 	push	{r4, r5, r6, lr}
    84f8:	e1a05000 	mov	r5, r0
    84fc:	e1a04001 	mov	r4, r1
    8500:	e1a06002 	mov	r6, r2
    8504:	e1a00004 	mov	r0, r4
    8508:	eb000805 	bl	a524 <fat32_fat_entry_type>
    850c:	e370028f 	cmn	r0, #-268435448	; 0xf0000008
    8510:	08bd8070 	popeq	{r4, r5, r6, pc}
    8514:	e1a01004 	mov	r1, r4
    8518:	e1a00005 	mov	r0, r5
    851c:	ebffffd2 	bl	846c <cluster_to_lba>
    8520:	e1a01000 	mov	r1, r0
    8524:	e595200c 	ldr	r2, [r5, #12]
    8528:	e1a00006 	mov	r0, r6
    852c:	eb0002ff 	bl	9130 <pi_sd_read>
    8530:	e595100c 	ldr	r1, [r5, #12]
    8534:	e59f2018 	ldr	r2, [pc, #24]	; 8554 <read_cluster_chain+0x60>
    8538:	e5d2300b 	ldrb	r3, [r2, #11]
    853c:	e5d2200c 	ldrb	r2, [r2, #12]
    8540:	e1833402 	orr	r3, r3, r2, lsl #8
    8544:	e0266193 	mla	r6, r3, r1, r6
    8548:	e5953014 	ldr	r3, [r5, #20]
    854c:	e7934104 	ldr	r4, [r3, r4, lsl #2]
    8550:	eaffffeb 	b	8504 <read_cluster_chain+0x10>
    8554:	000102e0 	.word	0x000102e0

00008558 <get_dirents>:
    8558:	e92d41f0 	push	{r4, r5, r6, r7, r8, lr}
    855c:	e1a06000 	mov	r6, r0
    8560:	e1a08001 	mov	r8, r1
    8564:	e1a07002 	mov	r7, r2
    8568:	ebffffd4 	bl	84c0 <get_cluster_chain_length>
    856c:	e596400c 	ldr	r4, [r6, #12]
    8570:	e0000490 	mul	r0, r0, r4
    8574:	e59f3038 	ldr	r3, [pc, #56]	; 85b4 <get_dirents+0x5c>
    8578:	e5d3400b 	ldrb	r4, [r3, #11]
    857c:	e5d3300c 	ldrb	r3, [r3, #12]
    8580:	e1844403 	orr	r4, r4, r3, lsl #8
    8584:	e0040094 	mul	r4, r4, r0
    8588:	e1a00004 	mov	r0, r4
    858c:	eb00148b 	bl	d7c0 <kmalloc>
    8590:	e1a05000 	mov	r5, r0
    8594:	e1a02000 	mov	r2, r0
    8598:	e1a01008 	mov	r1, r8
    859c:	e1a00006 	mov	r0, r6
    85a0:	ebffffd3 	bl	84f4 <read_cluster_chain>
    85a4:	e1a042a4 	lsr	r4, r4, #5
    85a8:	e5874000 	str	r4, [r7]
    85ac:	e1a00005 	mov	r0, r5
    85b0:	e8bd81f0 	pop	{r4, r5, r6, r7, r8, pc}
    85b4:	000102e0 	.word	0x000102e0

000085b8 <dirent_convert>:
    85b8:	e92d4030 	push	{r4, r5, lr}
    85bc:	e24dd034 	sub	sp, sp, #52, 0	; 0x34
    85c0:	e1a05000 	mov	r5, r0
    85c4:	e1a04001 	mov	r4, r1
    85c8:	e3a0202c 	mov	r2, #44, 0	; 0x2c
    85cc:	e3a01000 	mov	r1, #0, 0
    85d0:	e28d0004 	add	r0, sp, #4, 0
    85d4:	eb001150 	bl	cb1c <memset>
    85d8:	e5d43014 	ldrb	r3, [r4, #20]
    85dc:	e5d42015 	ldrb	r2, [r4, #21]
    85e0:	e1832402 	orr	r2, r3, r2, lsl #8
    85e4:	e5d4301a 	ldrb	r3, [r4, #26]
    85e8:	e5d4101b 	ldrb	r1, [r4, #27]
    85ec:	e1833401 	orr	r3, r3, r1, lsl #8
    85f0:	e1833802 	orr	r3, r3, r2, lsl #16
    85f4:	e58d3024 	str	r3, [sp, #36]	; 0x24
    85f8:	e5d4300b 	ldrb	r3, [r4, #11]
    85fc:	e3530010 	cmp	r3, #16, 0
    8600:	13a03000 	movne	r3, #0, 0
    8604:	03a03001 	moveq	r3, #1, 0
    8608:	e58d3028 	str	r3, [sp, #40]	; 0x28
    860c:	e5d4301c 	ldrb	r3, [r4, #28]
    8610:	e5d4201d 	ldrb	r2, [r4, #29]
    8614:	e1833402 	orr	r3, r3, r2, lsl #8
    8618:	e5d4201e 	ldrb	r2, [r4, #30]
    861c:	e1833802 	orr	r3, r3, r2, lsl #16
    8620:	e5d4201f 	ldrb	r2, [r4, #31]
    8624:	e1833c02 	orr	r3, r3, r2, lsl #24
    8628:	e58d302c 	str	r3, [sp, #44]	; 0x2c
    862c:	e3a0200b 	mov	r2, #11, 0
    8630:	e1a01004 	mov	r1, r4
    8634:	e28d0014 	add	r0, sp, #20, 0
    8638:	eb001100 	bl	ca40 <memcpy>
    863c:	e28d1004 	add	r1, sp, #4, 0
    8640:	e1a00004 	mov	r0, r4
    8644:	eb000861 	bl	a7d0 <fat32_dirent_name>
    8648:	e1a0e005 	mov	lr, r5
    864c:	e28dc004 	add	ip, sp, #4, 0
    8650:	e8bc000f 	ldm	ip!, {r0, r1, r2, r3}
    8654:	e8ae000f 	stmia	lr!, {r0, r1, r2, r3}
    8658:	e8bc000f 	ldm	ip!, {r0, r1, r2, r3}
    865c:	e8ae000f 	stmia	lr!, {r0, r1, r2, r3}
    8660:	e89c0007 	ldm	ip, {r0, r1, r2}
    8664:	e88e0007 	stm	lr, {r0, r1, r2}
    8668:	e1a00005 	mov	r0, r5
    866c:	e28dd034 	add	sp, sp, #52, 0	; 0x34
    8670:	e8bd8030 	pop	{r4, r5, pc}

00008674 <fat32_mk>:
    8674:	e92d4ff0 	push	{r4, r5, r6, r7, r8, r9, sl, fp, lr}
    8678:	e24ddf83 	sub	sp, sp, #524	; 0x20c
    867c:	e59f3254 	ldr	r3, [pc, #596]	; 88d8 <fat32_mk+0x264>
    8680:	e5933000 	ldr	r3, [r3]
    8684:	e3530000 	cmp	r3, #0, 0
    8688:	1a000082 	bne	8898 <fat32_mk+0x224>
    868c:	e1a05000 	mov	r5, r0
    8690:	e1a04001 	mov	r4, r1
    8694:	e3a00c02 	mov	r0, #512	; 0x200
    8698:	eb001448 	bl	d7c0 <kmalloc>
    869c:	e1a07000 	mov	r7, r0
    86a0:	e5d43008 	ldrb	r3, [r4, #8]
    86a4:	e5d41009 	ldrb	r1, [r4, #9]
    86a8:	e1833401 	orr	r3, r3, r1, lsl #8
    86ac:	e5d4100a 	ldrb	r1, [r4, #10]
    86b0:	e1833801 	orr	r3, r3, r1, lsl #16
    86b4:	e5d4100b 	ldrb	r1, [r4, #11]
    86b8:	e3a02001 	mov	r2, #1, 0
    86bc:	e1831c01 	orr	r1, r3, r1, lsl #24
    86c0:	eb00029a 	bl	9130 <pi_sd_read>
    86c4:	e59f6210 	ldr	r6, [pc, #528]	; 88dc <fat32_mk+0x268>
    86c8:	e3a02c02 	mov	r2, #512	; 0x200
    86cc:	e1a01007 	mov	r1, r7
    86d0:	e1a00006 	mov	r0, r6
    86d4:	eb0010d9 	bl	ca40 <memcpy>
    86d8:	e1a00006 	mov	r0, r6
    86dc:	eb0005c2 	bl	9dec <fat32_volume_id_check>
    86e0:	e5d63030 	ldrb	r3, [r6, #48]	; 0x30
    86e4:	e5d62031 	ldrb	r2, [r6, #49]	; 0x31
    86e8:	e1833402 	orr	r3, r3, r2, lsl #8
    86ec:	e3530001 	cmp	r3, #1, 0
    86f0:	1a000070 	bne	88b8 <fat32_mk+0x244>
    86f4:	e3a00c02 	mov	r0, #512	; 0x200
    86f8:	eb001430 	bl	d7c0 <kmalloc>
    86fc:	e1a06000 	mov	r6, r0
    8700:	e5d41008 	ldrb	r1, [r4, #8]
    8704:	e5d43009 	ldrb	r3, [r4, #9]
    8708:	e1811403 	orr	r1, r1, r3, lsl #8
    870c:	e5d4300a 	ldrb	r3, [r4, #10]
    8710:	e1811803 	orr	r1, r1, r3, lsl #16
    8714:	e5d4300b 	ldrb	r3, [r4, #11]
    8718:	e1811c03 	orr	r1, r1, r3, lsl #24
    871c:	e3a02001 	mov	r2, #1, 0
    8720:	e0811002 	add	r1, r1, r2
    8724:	eb000281 	bl	9130 <pi_sd_read>
    8728:	e3a02c02 	mov	r2, #512	; 0x200
    872c:	e1a01006 	mov	r1, r6
    8730:	e28d0008 	add	r0, sp, #8, 0
    8734:	eb0010c1 	bl	ca40 <memcpy>
    8738:	e28d0008 	add	r0, sp, #8, 0
    873c:	eb000721 	bl	a3c8 <fat32_fsinfo_check>
    8740:	e28d1008 	add	r1, sp, #8, 0
    8744:	e59f0194 	ldr	r0, [pc, #404]	; 88e0 <fat32_mk+0x26c>
    8748:	eb000703 	bl	a35c <fat32_fsinfo_print>
    874c:	e5d48008 	ldrb	r8, [r4, #8]
    8750:	e5d43009 	ldrb	r3, [r4, #9]
    8754:	e1888403 	orr	r8, r8, r3, lsl #8
    8758:	e5d4300a 	ldrb	r3, [r4, #10]
    875c:	e1888803 	orr	r8, r8, r3, lsl #16
    8760:	e5d4300b 	ldrb	r3, [r4, #11]
    8764:	e1888c03 	orr	r8, r8, r3, lsl #24
    8768:	e59f416c 	ldr	r4, [pc, #364]	; 88dc <fat32_mk+0x268>
    876c:	e5d4700e 	ldrb	r7, [r4, #14]
    8770:	e5d4300f 	ldrb	r3, [r4, #15]
    8774:	e1877403 	orr	r7, r7, r3, lsl #8
    8778:	e0877008 	add	r7, r7, r8
    877c:	e5d49010 	ldrb	r9, [r4, #16]
    8780:	e5d40024 	ldrb	r0, [r4, #36]	; 0x24
    8784:	e5d43025 	ldrb	r3, [r4, #37]	; 0x25
    8788:	e1800403 	orr	r0, r0, r3, lsl #8
    878c:	e5d43026 	ldrb	r3, [r4, #38]	; 0x26
    8790:	e1800803 	orr	r0, r0, r3, lsl #16
    8794:	e5d43027 	ldrb	r3, [r4, #39]	; 0x27
    8798:	e1800c03 	orr	r0, r0, r3, lsl #24
    879c:	e0297990 	mla	r9, r0, r9, r7
    87a0:	e5d4a00d 	ldrb	sl, [r4, #13]
    87a4:	e5d4602c 	ldrb	r6, [r4, #44]	; 0x2c
    87a8:	e5d4302d 	ldrb	r3, [r4, #45]	; 0x2d
    87ac:	e1866403 	orr	r6, r6, r3, lsl #8
    87b0:	e5d4302e 	ldrb	r3, [r4, #46]	; 0x2e
    87b4:	e1866803 	orr	r6, r6, r3, lsl #16
    87b8:	e5d4302f 	ldrb	r3, [r4, #47]	; 0x2f
    87bc:	e1866c03 	orr	r6, r6, r3, lsl #24
    87c0:	e5d4300b 	ldrb	r3, [r4, #11]
    87c4:	e5d4200c 	ldrb	r2, [r4, #12]
    87c8:	e1833402 	orr	r3, r3, r2, lsl #8
    87cc:	e0000093 	mul	r0, r3, r0
    87d0:	e1a0b120 	lsr	fp, r0, #2
    87d4:	eb0013f9 	bl	d7c0 <kmalloc>
    87d8:	e5d43024 	ldrb	r3, [r4, #36]	; 0x24
    87dc:	e5d41025 	ldrb	r1, [r4, #37]	; 0x25
    87e0:	e1833401 	orr	r3, r3, r1, lsl #8
    87e4:	e5d41026 	ldrb	r1, [r4, #38]	; 0x26
    87e8:	e1833801 	orr	r3, r3, r1, lsl #16
    87ec:	e5d41027 	ldrb	r1, [r4, #39]	; 0x27
    87f0:	e1831c01 	orr	r1, r3, r1, lsl #24
    87f4:	e1a00007 	mov	r0, r7
    87f8:	eb00029e 	bl	9278 <pi_sec_read>
    87fc:	e5858000 	str	r8, [r5]
    8800:	e5857004 	str	r7, [r5, #4]
    8804:	e5859008 	str	r9, [r5, #8]
    8808:	e585a00c 	str	sl, [r5, #12]
    880c:	e5856010 	str	r6, [r5, #16]
    8810:	e5850014 	str	r0, [r5, #20]
    8814:	e585b018 	str	fp, [r5, #24]
    8818:	e59f80c4 	ldr	r8, [pc, #196]	; 88e4 <fat32_mk+0x270>
    881c:	e59f40c4 	ldr	r4, [pc, #196]	; 88e8 <fat32_mk+0x274>
    8820:	e1a01008 	mov	r1, r8
    8824:	e1a00004 	mov	r0, r4
    8828:	eb0010e3 	bl	cbbc <printk>
    882c:	e1a01007 	mov	r1, r7
    8830:	e59f00b4 	ldr	r0, [pc, #180]	; 88ec <fat32_mk+0x278>
    8834:	eb0010e0 	bl	cbbc <printk>
    8838:	e1a01008 	mov	r1, r8
    883c:	e1a00004 	mov	r0, r4
    8840:	eb0010dd 	bl	cbbc <printk>
    8844:	e1a01009 	mov	r1, r9
    8848:	e59f00a0 	ldr	r0, [pc, #160]	; 88f0 <fat32_mk+0x27c>
    884c:	eb0010da 	bl	cbbc <printk>
    8850:	e1a01008 	mov	r1, r8
    8854:	e1a00004 	mov	r0, r4
    8858:	eb0010d7 	bl	cbbc <printk>
    885c:	e1a0100a 	mov	r1, sl
    8860:	e59f008c 	ldr	r0, [pc, #140]	; 88f4 <fat32_mk+0x280>
    8864:	eb0010d4 	bl	cbbc <printk>
    8868:	e1a01008 	mov	r1, r8
    886c:	e1a00004 	mov	r0, r4
    8870:	eb0010d1 	bl	cbbc <printk>
    8874:	e1a01006 	mov	r1, r6
    8878:	e59f0078 	ldr	r0, [pc, #120]	; 88f8 <fat32_mk+0x284>
    887c:	eb0010ce 	bl	cbbc <printk>
    8880:	e59f3050 	ldr	r3, [pc, #80]	; 88d8 <fat32_mk+0x264>
    8884:	e3a02001 	mov	r2, #1, 0
    8888:	e5832000 	str	r2, [r3]
    888c:	e1a00005 	mov	r0, r5
    8890:	e28ddf83 	add	sp, sp, #524	; 0x20c
    8894:	e8bd8ff0 	pop	{r4, r5, r6, r7, r8, r9, sl, fp, pc}
    8898:	e59f305c 	ldr	r3, [pc, #92]	; 88fc <fat32_mk+0x288>
    889c:	e58d3000 	str	r3, [sp]
    88a0:	e3a0300f 	mov	r3, #15, 0
    88a4:	e59f2038 	ldr	r2, [pc, #56]	; 88e4 <fat32_mk+0x270>
    88a8:	e59f1050 	ldr	r1, [pc, #80]	; 8900 <fat32_mk+0x28c>
    88ac:	e59f0050 	ldr	r0, [pc, #80]	; 8904 <fat32_mk+0x290>
    88b0:	eb0010c1 	bl	cbbc <printk>
    88b4:	eb0011f0 	bl	d07c <clean_reboot>
    88b8:	e59f3048 	ldr	r3, [pc, #72]	; 8908 <fat32_mk+0x294>
    88bc:	e58d3000 	str	r3, [sp]
    88c0:	e3a0301d 	mov	r3, #29, 0
    88c4:	e59f2018 	ldr	r2, [pc, #24]	; 88e4 <fat32_mk+0x270>
    88c8:	e59f1030 	ldr	r1, [pc, #48]	; 8900 <fat32_mk+0x28c>
    88cc:	e59f0038 	ldr	r0, [pc, #56]	; 890c <fat32_mk+0x298>
    88d0:	eb0010b9 	bl	cbbc <printk>
    88d4:	eb0011e8 	bl	d07c <clean_reboot>
    88d8:	0000ffb8 	.word	0x0000ffb8
    88dc:	000102e0 	.word	0x000102e0
    88e0:	0000dc8c 	.word	0x0000dc8c
    88e4:	0000dee0 	.word	0x0000dee0
    88e8:	0000dca4 	.word	0x0000dca4
    88ec:	0000dcb8 	.word	0x0000dcb8
    88f0:	0000dcb0 	.word	0x0000dcb0
    88f4:	0000dcc8 	.word	0x0000dcc8
    88f8:	0000dce4 	.word	0x0000dce4
    88fc:	0000dc64 	.word	0x0000dc64
    8900:	0000dbf4 	.word	0x0000dbf4
    8904:	0000dc10 	.word	0x0000dc10
    8908:	0000dc6c 	.word	0x0000dc6c
    890c:	0000da34 	.word	0x0000da34

00008910 <fat32_get_root>:
    8910:	e59f3070 	ldr	r3, [pc, #112]	; 8988 <fat32_get_root+0x78>
    8914:	e5933000 	ldr	r3, [r3]
    8918:	e3530000 	cmp	r3, #0, 0
    891c:	0a00000f 	beq	8960 <fat32_get_root+0x50>
    8920:	e5911010 	ldr	r1, [r1, #16]
    8924:	e3a03000 	mov	r3, #0, 0
    8928:	e1a02000 	mov	r2, r0
    892c:	e4823004 	str	r3, [r2], #4
    8930:	e5803004 	str	r3, [r0, #4]
    8934:	e5823004 	str	r3, [r2, #4]
    8938:	e5823008 	str	r3, [r2, #8]
    893c:	e5803010 	str	r3, [r0, #16]
    8940:	e5803014 	str	r3, [r0, #20]
    8944:	e5803018 	str	r3, [r0, #24]
    8948:	e580301c 	str	r3, [r0, #28]
    894c:	e5801020 	str	r1, [r0, #32]
    8950:	e3a02001 	mov	r2, #1, 0
    8954:	e5802024 	str	r2, [r0, #36]	; 0x24
    8958:	e5803028 	str	r3, [r0, #40]	; 0x28
    895c:	e12fff1e 	bx	lr
    8960:	e52de004 	push	{lr}		; (str lr, [sp, #-4]!)
    8964:	e24dd00c 	sub	sp, sp, #12, 0
    8968:	e59f301c 	ldr	r3, [pc, #28]	; 898c <fat32_get_root+0x7c>
    896c:	e58d3000 	str	r3, [sp]
    8970:	e3a0307a 	mov	r3, #122, 0	; 0x7a
    8974:	e59f2014 	ldr	r2, [pc, #20]	; 8990 <fat32_get_root+0x80>
    8978:	e59f1014 	ldr	r1, [pc, #20]	; 8994 <fat32_get_root+0x84>
    897c:	e59f0014 	ldr	r0, [pc, #20]	; 8998 <fat32_get_root+0x88>
    8980:	eb00108d 	bl	cbbc <printk>
    8984:	eb0011bc 	bl	d07c <clean_reboot>
    8988:	0000ffb8 	.word	0x0000ffb8
    898c:	0000dd48 	.word	0x0000dd48
    8990:	0000deec 	.word	0x0000deec
    8994:	0000dbf4 	.word	0x0000dbf4
    8998:	0000dd04 	.word	0x0000dd04

0000899c <fat32_readdir>:
    899c:	e92d43f0 	push	{r4, r5, r6, r7, r8, r9, lr}
    89a0:	e24dd044 	sub	sp, sp, #68, 0	; 0x44
    89a4:	e1a03002 	mov	r3, r2
    89a8:	e59f2114 	ldr	r2, [pc, #276]	; 8ac4 <fat32_readdir+0x128>
    89ac:	e5922000 	ldr	r2, [r2]
    89b0:	e3520000 	cmp	r2, #0, 0
    89b4:	0a000011 	beq	8a00 <fat32_readdir+0x64>
    89b8:	e1a09000 	mov	r9, r0
    89bc:	e1a00001 	mov	r0, r1
    89c0:	e5932024 	ldr	r2, [r3, #36]	; 0x24
    89c4:	e3520000 	cmp	r2, #0, 0
    89c8:	0a000014 	beq	8a20 <fat32_readdir+0x84>
    89cc:	e28d203c 	add	r2, sp, #60, 0	; 0x3c
    89d0:	e5931020 	ldr	r1, [r3, #32]
    89d4:	ebfffedf 	bl	8558 <get_dirents>
    89d8:	e1a06000 	mov	r6, r0
    89dc:	e59d003c 	ldr	r0, [sp, #60]	; 0x3c
    89e0:	e0803100 	add	r3, r0, r0, lsl #2
    89e4:	e0800083 	add	r0, r0, r3, lsl #1
    89e8:	e1a00100 	lsl	r0, r0, #2
    89ec:	eb001373 	bl	d7c0 <kmalloc>
    89f0:	e1a08000 	mov	r8, r0
    89f4:	e3a05000 	mov	r5, #0, 0
    89f8:	e1a07005 	mov	r7, r5
    89fc:	ea00001e 	b	8a7c <fat32_readdir+0xe0>
    8a00:	e59f30c0 	ldr	r3, [pc, #192]	; 8ac8 <fat32_readdir+0x12c>
    8a04:	e58d3000 	str	r3, [sp]
    8a08:	e3a030d7 	mov	r3, #215, 0	; 0xd7
    8a0c:	e59f20b8 	ldr	r2, [pc, #184]	; 8acc <fat32_readdir+0x130>
    8a10:	e59f10b8 	ldr	r1, [pc, #184]	; 8ad0 <fat32_readdir+0x134>
    8a14:	e59f00b8 	ldr	r0, [pc, #184]	; 8ad4 <fat32_readdir+0x138>
    8a18:	eb001067 	bl	cbbc <printk>
    8a1c:	eb001196 	bl	d07c <clean_reboot>
    8a20:	e59f30b0 	ldr	r3, [pc, #176]	; 8ad8 <fat32_readdir+0x13c>
    8a24:	e58d3000 	str	r3, [sp]
    8a28:	e3a030d8 	mov	r3, #216, 0	; 0xd8
    8a2c:	e59f2098 	ldr	r2, [pc, #152]	; 8acc <fat32_readdir+0x130>
    8a30:	e59f1098 	ldr	r1, [pc, #152]	; 8ad0 <fat32_readdir+0x134>
    8a34:	e59f00a0 	ldr	r0, [pc, #160]	; 8adc <fat32_readdir+0x140>
    8a38:	eb00105f 	bl	cbbc <printk>
    8a3c:	eb00118e 	bl	d07c <clean_reboot>
    8a40:	e087c107 	add	ip, r7, r7, lsl #2
    8a44:	e087c08c 	add	ip, r7, ip, lsl #1
    8a48:	e088410c 	add	r4, r8, ip, lsl #2
    8a4c:	e28d0008 	add	r0, sp, #8, 0
    8a50:	ebfffed8 	bl	85b8 <dirent_convert>
    8a54:	e1a0c004 	mov	ip, r4
    8a58:	e28de008 	add	lr, sp, #8, 0
    8a5c:	e8be000f 	ldm	lr!, {r0, r1, r2, r3}
    8a60:	e8ac000f 	stmia	ip!, {r0, r1, r2, r3}
    8a64:	e8be000f 	ldm	lr!, {r0, r1, r2, r3}
    8a68:	e8ac000f 	stmia	ip!, {r0, r1, r2, r3}
    8a6c:	e89e0007 	ldm	lr, {r0, r1, r2}
    8a70:	e88c0007 	stm	ip, {r0, r1, r2}
    8a74:	e2877001 	add	r7, r7, #1, 0
    8a78:	e2855001 	add	r5, r5, #1, 0
    8a7c:	e59d303c 	ldr	r3, [sp, #60]	; 0x3c
    8a80:	e1550003 	cmp	r5, r3
    8a84:	2a000009 	bcs	8ab0 <fat32_readdir+0x114>
    8a88:	e0861285 	add	r1, r6, r5, lsl #5
    8a8c:	e7d63285 	ldrb	r3, [r6, r5, lsl #5]
    8a90:	e3530000 	cmp	r3, #0, 0
    8a94:	0afffff7 	beq	8a78 <fat32_readdir+0xdc>
    8a98:	e5d1300b 	ldrb	r3, [r1, #11]
    8a9c:	e353000f 	cmp	r3, #15, 0
    8aa0:	0afffff4 	beq	8a78 <fat32_readdir+0xdc>
    8aa4:	e3530008 	cmp	r3, #8, 0
    8aa8:	1affffe4 	bne	8a40 <fat32_readdir+0xa4>
    8aac:	eafffff1 	b	8a78 <fat32_readdir+0xdc>
    8ab0:	e5898000 	str	r8, [r9]
    8ab4:	e5897004 	str	r7, [r9, #4]
    8ab8:	e1a00009 	mov	r0, r9
    8abc:	e28dd044 	add	sp, sp, #68, 0	; 0x44
    8ac0:	e8bd83f0 	pop	{r4, r5, r6, r7, r8, r9, pc}
    8ac4:	0000ffb8 	.word	0x0000ffb8
    8ac8:	0000dd48 	.word	0x0000dd48
    8acc:	0000defc 	.word	0x0000defc
    8ad0:	0000dbf4 	.word	0x0000dbf4
    8ad4:	0000dd04 	.word	0x0000dd04
    8ad8:	0000dd98 	.word	0x0000dd98
    8adc:	0000dd50 	.word	0x0000dd50

00008ae0 <find_dirent_with_name>:
    8ae0:	e92d40f0 	push	{r4, r5, r6, r7, lr}
    8ae4:	e24dd014 	sub	sp, sp, #20, 0
    8ae8:	e1a07000 	mov	r7, r0
    8aec:	e1a05001 	mov	r5, r1
    8af0:	e1a06002 	mov	r6, r2
    8af4:	e3a04000 	mov	r4, #0, 0
    8af8:	e1540005 	cmp	r4, r5
    8afc:	aa000009 	bge	8b28 <find_dirent_with_name+0x48>
    8b00:	e28d1004 	add	r1, sp, #4, 0
    8b04:	e0870284 	add	r0, r7, r4, lsl #5
    8b08:	eb000730 	bl	a7d0 <fat32_dirent_name>
    8b0c:	e1a01006 	mov	r1, r6
    8b10:	e28d0004 	add	r0, sp, #4, 0
    8b14:	eb00113e 	bl	d014 <strcmp>
    8b18:	e3500000 	cmp	r0, #0, 0
    8b1c:	0a000002 	beq	8b2c <find_dirent_with_name+0x4c>
    8b20:	e2844001 	add	r4, r4, #1, 0
    8b24:	eafffff3 	b	8af8 <find_dirent_with_name+0x18>
    8b28:	e3e04000 	mvn	r4, #0, 0
    8b2c:	e1a00004 	mov	r0, r4
    8b30:	e28dd014 	add	sp, sp, #20, 0
    8b34:	e8bd80f0 	pop	{r4, r5, r6, r7, pc}

00008b38 <fat32_stat>:
    8b38:	e92d4070 	push	{r4, r5, r6, lr}
    8b3c:	e24dd040 	sub	sp, sp, #64, 0	; 0x40
    8b40:	e59f30cc 	ldr	r3, [pc, #204]	; 8c14 <fat32_stat+0xdc>
    8b44:	e5933000 	ldr	r3, [r3]
    8b48:	e3530000 	cmp	r3, #0, 0
    8b4c:	0a00001e 	beq	8bcc <fat32_stat+0x94>
    8b50:	e1a04002 	mov	r4, r2
    8b54:	e5913024 	ldr	r3, [r1, #36]	; 0x24
    8b58:	e3530000 	cmp	r3, #0, 0
    8b5c:	0a000022 	beq	8bec <fat32_stat+0xb4>
    8b60:	e28d203c 	add	r2, sp, #60, 0	; 0x3c
    8b64:	e5911020 	ldr	r1, [r1, #32]
    8b68:	ebfffe7a 	bl	8558 <get_dirents>
    8b6c:	e1a06000 	mov	r6, r0
    8b70:	e1a02004 	mov	r2, r4
    8b74:	e59d103c 	ldr	r1, [sp, #60]	; 0x3c
    8b78:	ebffffd8 	bl	8ae0 <find_dirent_with_name>
    8b7c:	e1a04000 	mov	r4, r0
    8b80:	e3700001 	cmn	r0, #1, 0
    8b84:	0a000020 	beq	8c0c <fat32_stat+0xd4>
    8b88:	e3a0002c 	mov	r0, #44, 0	; 0x2c
    8b8c:	eb00130b 	bl	d7c0 <kmalloc>
    8b90:	e1a05000 	mov	r5, r0
    8b94:	e0861284 	add	r1, r6, r4, lsl #5
    8b98:	e28d0008 	add	r0, sp, #8, 0
    8b9c:	ebfffe85 	bl	85b8 <dirent_convert>
    8ba0:	e1a0e005 	mov	lr, r5
    8ba4:	e28dc008 	add	ip, sp, #8, 0
    8ba8:	e8bc000f 	ldm	ip!, {r0, r1, r2, r3}
    8bac:	e8ae000f 	stmia	lr!, {r0, r1, r2, r3}
    8bb0:	e8bc000f 	ldm	ip!, {r0, r1, r2, r3}
    8bb4:	e8ae000f 	stmia	lr!, {r0, r1, r2, r3}
    8bb8:	e89c0007 	ldm	ip, {r0, r1, r2}
    8bbc:	e88e0007 	stm	lr, {r0, r1, r2}
    8bc0:	e1a00005 	mov	r0, r5
    8bc4:	e28dd040 	add	sp, sp, #64, 0	; 0x40
    8bc8:	e8bd8070 	pop	{r4, r5, r6, pc}
    8bcc:	e59f3044 	ldr	r3, [pc, #68]	; 8c18 <fat32_stat+0xe0>
    8bd0:	e58d3000 	str	r3, [sp]
    8bd4:	e59f3040 	ldr	r3, [pc, #64]	; 8c1c <fat32_stat+0xe4>
    8bd8:	e59f2040 	ldr	r2, [pc, #64]	; 8c20 <fat32_stat+0xe8>
    8bdc:	e59f1040 	ldr	r1, [pc, #64]	; 8c24 <fat32_stat+0xec>
    8be0:	e59f0040 	ldr	r0, [pc, #64]	; 8c28 <fat32_stat+0xf0>
    8be4:	eb000ff4 	bl	cbbc <printk>
    8be8:	eb001123 	bl	d07c <clean_reboot>
    8bec:	e59f3038 	ldr	r3, [pc, #56]	; 8c2c <fat32_stat+0xf4>
    8bf0:	e58d3000 	str	r3, [sp]
    8bf4:	e59f3034 	ldr	r3, [pc, #52]	; 8c30 <fat32_stat+0xf8>
    8bf8:	e59f2020 	ldr	r2, [pc, #32]	; 8c20 <fat32_stat+0xe8>
    8bfc:	e59f1020 	ldr	r1, [pc, #32]	; 8c24 <fat32_stat+0xec>
    8c00:	e59f002c 	ldr	r0, [pc, #44]	; 8c34 <fat32_stat+0xfc>
    8c04:	eb000fec 	bl	cbbc <printk>
    8c08:	eb00111b 	bl	d07c <clean_reboot>
    8c0c:	e3a05000 	mov	r5, #0, 0
    8c10:	eaffffea 	b	8bc0 <fat32_stat+0x88>
    8c14:	0000ffb8 	.word	0x0000ffb8
    8c18:	0000dd48 	.word	0x0000dd48
    8c1c:	0000012e 	.word	0x0000012e
    8c20:	0000df0c 	.word	0x0000df0c
    8c24:	0000dbf4 	.word	0x0000dbf4
    8c28:	0000dd04 	.word	0x0000dd04
    8c2c:	0000ddfc 	.word	0x0000ddfc
    8c30:	0000012f 	.word	0x0000012f
    8c34:	0000ddac 	.word	0x0000ddac

00008c38 <fat32_read>:
    8c38:	e92d40f0 	push	{r4, r5, r6, r7, lr}
    8c3c:	e24dd00c 	sub	sp, sp, #12, 0
    8c40:	e59f30c8 	ldr	r3, [pc, #200]	; 8d10 <fat32_read+0xd8>
    8c44:	e5933000 	ldr	r3, [r3]
    8c48:	e3530000 	cmp	r3, #0, 0
    8c4c:	0a00001f 	beq	8cd0 <fat32_read+0x98>
    8c50:	e1a05000 	mov	r5, r0
    8c54:	e5913024 	ldr	r3, [r1, #36]	; 0x24
    8c58:	e3530000 	cmp	r3, #0, 0
    8c5c:	0a000023 	beq	8cf0 <fat32_read+0xb8>
    8c60:	ebffffb4 	bl	8b38 <fat32_stat>
    8c64:	e1a04000 	mov	r4, r0
    8c68:	e5901020 	ldr	r1, [r0, #32]
    8c6c:	e1a00005 	mov	r0, r5
    8c70:	ebfffe12 	bl	84c0 <get_cluster_chain_length>
    8c74:	e1a06000 	mov	r6, r0
    8c78:	e5940028 	ldr	r0, [r4, #40]	; 0x28
    8c7c:	eb0012cf 	bl	d7c0 <kmalloc>
    8c80:	e1a07000 	mov	r7, r0
    8c84:	e1a02000 	mov	r2, r0
    8c88:	e5941020 	ldr	r1, [r4, #32]
    8c8c:	e1a00005 	mov	r0, r5
    8c90:	ebfffe17 	bl	84f4 <read_cluster_chain>
    8c94:	e3a0000c 	mov	r0, #12, 0
    8c98:	eb0012c8 	bl	d7c0 <kmalloc>
    8c9c:	e59f2070 	ldr	r2, [pc, #112]	; 8d14 <fat32_read+0xdc>
    8ca0:	e5d2100b 	ldrb	r1, [r2, #11]
    8ca4:	e5d2c00c 	ldrb	ip, [r2, #12]
    8ca8:	e181140c 	orr	r1, r1, ip, lsl #8
    8cac:	e0060196 	mul	r6, r6, r1
    8cb0:	e5d2200d 	ldrb	r2, [r2, #13]
    8cb4:	e0060692 	mul	r6, r2, r6
    8cb8:	e5942028 	ldr	r2, [r4, #40]	; 0x28
    8cbc:	e5807000 	str	r7, [r0]
    8cc0:	e5806004 	str	r6, [r0, #4]
    8cc4:	e5802008 	str	r2, [r0, #8]
    8cc8:	e28dd00c 	add	sp, sp, #12, 0
    8ccc:	e8bd80f0 	pop	{r4, r5, r6, r7, pc}
    8cd0:	e59f3040 	ldr	r3, [pc, #64]	; 8d18 <fat32_read+0xe0>
    8cd4:	e58d3000 	str	r3, [sp]
    8cd8:	e3a03e15 	mov	r3, #336	; 0x150
    8cdc:	e59f2038 	ldr	r2, [pc, #56]	; 8d1c <fat32_read+0xe4>
    8ce0:	e59f1038 	ldr	r1, [pc, #56]	; 8d20 <fat32_read+0xe8>
    8ce4:	e59f0038 	ldr	r0, [pc, #56]	; 8d24 <fat32_read+0xec>
    8ce8:	eb000fb3 	bl	cbbc <printk>
    8cec:	eb0010e2 	bl	d07c <clean_reboot>
    8cf0:	e59f3030 	ldr	r3, [pc, #48]	; 8d28 <fat32_read+0xf0>
    8cf4:	e58d3000 	str	r3, [sp]
    8cf8:	e59f302c 	ldr	r3, [pc, #44]	; 8d2c <fat32_read+0xf4>
    8cfc:	e59f2018 	ldr	r2, [pc, #24]	; 8d1c <fat32_read+0xe4>
    8d00:	e59f1018 	ldr	r1, [pc, #24]	; 8d20 <fat32_read+0xe8>
    8d04:	e59f0024 	ldr	r0, [pc, #36]	; 8d30 <fat32_read+0xf8>
    8d08:	eb000fab 	bl	cbbc <printk>
    8d0c:	eb0010da 	bl	d07c <clean_reboot>
    8d10:	0000ffb8 	.word	0x0000ffb8
    8d14:	000102e0 	.word	0x000102e0
    8d18:	0000dd48 	.word	0x0000dd48
    8d1c:	0000df18 	.word	0x0000df18
    8d20:	0000dbf4 	.word	0x0000dbf4
    8d24:	0000dd04 	.word	0x0000dd04
    8d28:	0000ddfc 	.word	0x0000ddfc
    8d2c:	00000151 	.word	0x00000151
    8d30:	0000de10 	.word	0x0000de10

00008d34 <fat32_rename>:
    8d34:	e92d4030 	push	{r4, r5, lr}
    8d38:	e24dd00c 	sub	sp, sp, #12, 0
    8d3c:	e1a04003 	mov	r4, r3
    8d40:	e59f307c 	ldr	r3, [pc, #124]	; 8dc4 <fat32_rename+0x90>
    8d44:	e5933000 	ldr	r3, [r3]
    8d48:	e3530000 	cmp	r3, #0, 0
    8d4c:	0a00000e 	beq	8d8c <fat32_rename+0x58>
    8d50:	e1a05002 	mov	r5, r2
    8d54:	e59f106c 	ldr	r1, [pc, #108]	; 8dc8 <fat32_rename+0x94>
    8d58:	e59f006c 	ldr	r0, [pc, #108]	; 8dcc <fat32_rename+0x98>
    8d5c:	eb000f96 	bl	cbbc <printk>
    8d60:	e1a02004 	mov	r2, r4
    8d64:	e1a01005 	mov	r1, r5
    8d68:	e59f0060 	ldr	r0, [pc, #96]	; 8dd0 <fat32_rename+0x9c>
    8d6c:	eb000f92 	bl	cbbc <printk>
    8d70:	e1a00004 	mov	r0, r4
    8d74:	eb00069c 	bl	a7ec <fat32_is_valid_name>
    8d78:	e3500000 	cmp	r0, #0, 0
    8d7c:	1a00000a 	bne	8dac <fat32_rename+0x78>
    8d80:	e3a00000 	mov	r0, #0, 0
    8d84:	e28dd00c 	add	sp, sp, #12, 0
    8d88:	e8bd8030 	pop	{r4, r5, pc}
    8d8c:	e59f3040 	ldr	r3, [pc, #64]	; 8dd4 <fat32_rename+0xa0>
    8d90:	e58d3000 	str	r3, [sp]
    8d94:	e59f303c 	ldr	r3, [pc, #60]	; 8dd8 <fat32_rename+0xa4>
    8d98:	e59f2028 	ldr	r2, [pc, #40]	; 8dc8 <fat32_rename+0x94>
    8d9c:	e59f1038 	ldr	r1, [pc, #56]	; 8ddc <fat32_rename+0xa8>
    8da0:	e59f0038 	ldr	r0, [pc, #56]	; 8de0 <fat32_rename+0xac>
    8da4:	eb000f84 	bl	cbbc <printk>
    8da8:	eb0010b3 	bl	d07c <clean_reboot>
    8dac:	e59f3030 	ldr	r3, [pc, #48]	; 8de4 <fat32_rename+0xb0>
    8db0:	e59f2010 	ldr	r2, [pc, #16]	; 8dc8 <fat32_rename+0x94>
    8db4:	e59f1020 	ldr	r1, [pc, #32]	; 8ddc <fat32_rename+0xa8>
    8db8:	e59f0028 	ldr	r0, [pc, #40]	; 8de8 <fat32_rename+0xb4>
    8dbc:	eb000f7e 	bl	cbbc <printk>
    8dc0:	eb0010ad 	bl	d07c <clean_reboot>
    8dc4:	0000ffb8 	.word	0x0000ffb8
    8dc8:	0000df24 	.word	0x0000df24
    8dcc:	0000dca4 	.word	0x0000dca4
    8dd0:	0000de60 	.word	0x0000de60
    8dd4:	0000dd48 	.word	0x0000dd48
    8dd8:	000001ed 	.word	0x000001ed
    8ddc:	0000dbf4 	.word	0x0000dbf4
    8de0:	0000dd04 	.word	0x0000dd04
    8de4:	000001f2 	.word	0x000001f2
    8de8:	0000de74 	.word	0x0000de74

00008dec <fat32_create>:
    8dec:	e92d4010 	push	{r4, lr}
    8df0:	e24dd008 	sub	sp, sp, #8, 0
    8df4:	e59f3078 	ldr	r3, [pc, #120]	; 8e74 <fat32_create+0x88>
    8df8:	e5933000 	ldr	r3, [r3]
    8dfc:	e3530000 	cmp	r3, #0, 0
    8e00:	0a00000d 	beq	8e3c <fat32_create+0x50>
    8e04:	e1a04002 	mov	r4, r2
    8e08:	e59f1068 	ldr	r1, [pc, #104]	; 8e78 <fat32_create+0x8c>
    8e0c:	e59f0068 	ldr	r0, [pc, #104]	; 8e7c <fat32_create+0x90>
    8e10:	eb000f69 	bl	cbbc <printk>
    8e14:	e1a01004 	mov	r1, r4
    8e18:	e59f0060 	ldr	r0, [pc, #96]	; 8e80 <fat32_create+0x94>
    8e1c:	eb000f66 	bl	cbbc <printk>
    8e20:	e1a00004 	mov	r0, r4
    8e24:	eb000670 	bl	a7ec <fat32_is_valid_name>
    8e28:	e3500000 	cmp	r0, #0, 0
    8e2c:	1a00000a 	bne	8e5c <fat32_create+0x70>
    8e30:	e3a00000 	mov	r0, #0, 0
    8e34:	e28dd008 	add	sp, sp, #8, 0
    8e38:	e8bd8010 	pop	{r4, pc}
    8e3c:	e59f3040 	ldr	r3, [pc, #64]	; 8e84 <fat32_create+0x98>
    8e40:	e58d3000 	str	r3, [sp]
    8e44:	e3a03c02 	mov	r3, #512	; 0x200
    8e48:	e59f2028 	ldr	r2, [pc, #40]	; 8e78 <fat32_create+0x8c>
    8e4c:	e59f1034 	ldr	r1, [pc, #52]	; 8e88 <fat32_create+0x9c>
    8e50:	e59f0034 	ldr	r0, [pc, #52]	; 8e8c <fat32_create+0xa0>
    8e54:	eb000f58 	bl	cbbc <printk>
    8e58:	eb001087 	bl	d07c <clean_reboot>
    8e5c:	e59f302c 	ldr	r3, [pc, #44]	; 8e90 <fat32_create+0xa4>
    8e60:	e59f2010 	ldr	r2, [pc, #16]	; 8e78 <fat32_create+0x8c>
    8e64:	e59f101c 	ldr	r1, [pc, #28]	; 8e88 <fat32_create+0x9c>
    8e68:	e59f0024 	ldr	r0, [pc, #36]	; 8e94 <fat32_create+0xa8>
    8e6c:	eb000f52 	bl	cbbc <printk>
    8e70:	eb001081 	bl	d07c <clean_reboot>
    8e74:	0000ffb8 	.word	0x0000ffb8
    8e78:	0000df34 	.word	0x0000df34
    8e7c:	0000dca4 	.word	0x0000dca4
    8e80:	0000dea0 	.word	0x0000dea0
    8e84:	0000dd48 	.word	0x0000dd48
    8e88:	0000dbf4 	.word	0x0000dbf4
    8e8c:	0000dd04 	.word	0x0000dd04
    8e90:	00000206 	.word	0x00000206
    8e94:	0000de74 	.word	0x0000de74

00008e98 <fat32_delete>:
    8e98:	e92d4010 	push	{r4, lr}
    8e9c:	e24dd008 	sub	sp, sp, #8, 0
    8ea0:	e59f3078 	ldr	r3, [pc, #120]	; 8f20 <fat32_delete+0x88>
    8ea4:	e5933000 	ldr	r3, [r3]
    8ea8:	e3530000 	cmp	r3, #0, 0
    8eac:	0a00000d 	beq	8ee8 <fat32_delete+0x50>
    8eb0:	e1a04002 	mov	r4, r2
    8eb4:	e59f1068 	ldr	r1, [pc, #104]	; 8f24 <fat32_delete+0x8c>
    8eb8:	e59f0068 	ldr	r0, [pc, #104]	; 8f28 <fat32_delete+0x90>
    8ebc:	eb000f3e 	bl	cbbc <printk>
    8ec0:	e1a01004 	mov	r1, r4
    8ec4:	e59f0060 	ldr	r0, [pc, #96]	; 8f2c <fat32_delete+0x94>
    8ec8:	eb000f3b 	bl	cbbc <printk>
    8ecc:	e1a00004 	mov	r0, r4
    8ed0:	eb000645 	bl	a7ec <fat32_is_valid_name>
    8ed4:	e3500000 	cmp	r0, #0, 0
    8ed8:	1a00000a 	bne	8f08 <fat32_delete+0x70>
    8edc:	e3a00000 	mov	r0, #0, 0
    8ee0:	e28dd008 	add	sp, sp, #8, 0
    8ee4:	e8bd8010 	pop	{r4, pc}
    8ee8:	e59f3040 	ldr	r3, [pc, #64]	; 8f30 <fat32_delete+0x98>
    8eec:	e58d3000 	str	r3, [sp]
    8ef0:	e3a03f87 	mov	r3, #540	; 0x21c
    8ef4:	e59f2028 	ldr	r2, [pc, #40]	; 8f24 <fat32_delete+0x8c>
    8ef8:	e59f1034 	ldr	r1, [pc, #52]	; 8f34 <fat32_delete+0x9c>
    8efc:	e59f0034 	ldr	r0, [pc, #52]	; 8f38 <fat32_delete+0xa0>
    8f00:	eb000f2d 	bl	cbbc <printk>
    8f04:	eb00105c 	bl	d07c <clean_reboot>
    8f08:	e59f302c 	ldr	r3, [pc, #44]	; 8f3c <fat32_delete+0xa4>
    8f0c:	e59f2010 	ldr	r2, [pc, #16]	; 8f24 <fat32_delete+0x8c>
    8f10:	e59f101c 	ldr	r1, [pc, #28]	; 8f34 <fat32_delete+0x9c>
    8f14:	e59f0024 	ldr	r0, [pc, #36]	; 8f40 <fat32_delete+0xa8>
    8f18:	eb000f27 	bl	cbbc <printk>
    8f1c:	eb001056 	bl	d07c <clean_reboot>
    8f20:	0000ffb8 	.word	0x0000ffb8
    8f24:	0000df44 	.word	0x0000df44
    8f28:	0000dca4 	.word	0x0000dca4
    8f2c:	0000deb0 	.word	0x0000deb0
    8f30:	0000dd48 	.word	0x0000dd48
    8f34:	0000dbf4 	.word	0x0000dbf4
    8f38:	0000dd04 	.word	0x0000dd04
    8f3c:	00000221 	.word	0x00000221
    8f40:	0000de74 	.word	0x0000de74

00008f44 <fat32_truncate>:
    8f44:	e52de004 	push	{lr}		; (str lr, [sp, #-4]!)
    8f48:	e24dd00c 	sub	sp, sp, #12, 0
    8f4c:	e59f3060 	ldr	r3, [pc, #96]	; 8fb4 <fat32_truncate+0x70>
    8f50:	e5933000 	ldr	r3, [r3]
    8f54:	e3530000 	cmp	r3, #0, 0
    8f58:	0a00000d 	beq	8f94 <fat32_truncate+0x50>
    8f5c:	e1a04002 	mov	r4, r2
    8f60:	e59f5050 	ldr	r5, [pc, #80]	; 8fb8 <fat32_truncate+0x74>
    8f64:	e1a01005 	mov	r1, r5
    8f68:	e59f004c 	ldr	r0, [pc, #76]	; 8fbc <fat32_truncate+0x78>
    8f6c:	eb000f12 	bl	cbbc <printk>
    8f70:	e1a01004 	mov	r1, r4
    8f74:	e59f0044 	ldr	r0, [pc, #68]	; 8fc0 <fat32_truncate+0x7c>
    8f78:	eb000f0f 	bl	cbbc <printk>
    8f7c:	e59f3040 	ldr	r3, [pc, #64]	; 8fc4 <fat32_truncate+0x80>
    8f80:	e1a02005 	mov	r2, r5
    8f84:	e59f103c 	ldr	r1, [pc, #60]	; 8fc8 <fat32_truncate+0x84>
    8f88:	e59f003c 	ldr	r0, [pc, #60]	; 8fcc <fat32_truncate+0x88>
    8f8c:	eb000f0a 	bl	cbbc <printk>
    8f90:	eb001039 	bl	d07c <clean_reboot>
    8f94:	e59f3034 	ldr	r3, [pc, #52]	; 8fd0 <fat32_truncate+0x8c>
    8f98:	e58d3000 	str	r3, [sp]
    8f9c:	e3a03f8b 	mov	r3, #556	; 0x22c
    8fa0:	e59f2010 	ldr	r2, [pc, #16]	; 8fb8 <fat32_truncate+0x74>
    8fa4:	e59f101c 	ldr	r1, [pc, #28]	; 8fc8 <fat32_truncate+0x84>
    8fa8:	e59f0024 	ldr	r0, [pc, #36]	; 8fd4 <fat32_truncate+0x90>
    8fac:	eb000f02 	bl	cbbc <printk>
    8fb0:	eb001031 	bl	d07c <clean_reboot>
    8fb4:	0000ffb8 	.word	0x0000ffb8
    8fb8:	0000df54 	.word	0x0000df54
    8fbc:	0000dca4 	.word	0x0000dca4
    8fc0:	0000dec0 	.word	0x0000dec0
    8fc4:	00000235 	.word	0x00000235
    8fc8:	0000dbf4 	.word	0x0000dbf4
    8fcc:	0000de74 	.word	0x0000de74
    8fd0:	0000dd48 	.word	0x0000dd48
    8fd4:	0000dd04 	.word	0x0000dd04

00008fd8 <fat32_write>:
    8fd8:	e52de004 	push	{lr}		; (str lr, [sp, #-4]!)
    8fdc:	e24dd00c 	sub	sp, sp, #12, 0
    8fe0:	e59f306c 	ldr	r3, [pc, #108]	; 9054 <fat32_write+0x7c>
    8fe4:	e5933000 	ldr	r3, [r3]
    8fe8:	e3530000 	cmp	r3, #0, 0
    8fec:	0a00000a 	beq	901c <fat32_write+0x44>
    8ff0:	e5913024 	ldr	r3, [r1, #36]	; 0x24
    8ff4:	e3530000 	cmp	r3, #0, 0
    8ff8:	1a00000f 	bne	903c <fat32_write+0x64>
    8ffc:	e59f3054 	ldr	r3, [pc, #84]	; 9058 <fat32_write+0x80>
    9000:	e58d3000 	str	r3, [sp]
    9004:	e59f3050 	ldr	r3, [pc, #80]	; 905c <fat32_write+0x84>
    9008:	e59f2050 	ldr	r2, [pc, #80]	; 9060 <fat32_write+0x88>
    900c:	e59f1050 	ldr	r1, [pc, #80]	; 9064 <fat32_write+0x8c>
    9010:	e59f0050 	ldr	r0, [pc, #80]	; 9068 <fat32_write+0x90>
    9014:	eb000ee8 	bl	cbbc <printk>
    9018:	eb001017 	bl	d07c <clean_reboot>
    901c:	e59f3048 	ldr	r3, [pc, #72]	; 906c <fat32_write+0x94>
    9020:	e58d3000 	str	r3, [sp]
    9024:	e59f3044 	ldr	r3, [pc, #68]	; 9070 <fat32_write+0x98>
    9028:	e59f2030 	ldr	r2, [pc, #48]	; 9060 <fat32_write+0x88>
    902c:	e59f1030 	ldr	r1, [pc, #48]	; 9064 <fat32_write+0x8c>
    9030:	e59f003c 	ldr	r0, [pc, #60]	; 9074 <fat32_write+0x9c>
    9034:	eb000ee0 	bl	cbbc <printk>
    9038:	eb00100f 	bl	d07c <clean_reboot>
    903c:	e59f3034 	ldr	r3, [pc, #52]	; 9078 <fat32_write+0xa0>
    9040:	e59f2018 	ldr	r2, [pc, #24]	; 9060 <fat32_write+0x88>
    9044:	e59f1018 	ldr	r1, [pc, #24]	; 9064 <fat32_write+0x8c>
    9048:	e59f002c 	ldr	r0, [pc, #44]	; 907c <fat32_write+0xa4>
    904c:	eb000eda 	bl	cbbc <printk>
    9050:	eb001009 	bl	d07c <clean_reboot>
    9054:	0000ffb8 	.word	0x0000ffb8
    9058:	0000ddfc 	.word	0x0000ddfc
    905c:	0000023e 	.word	0x0000023e
    9060:	0000df64 	.word	0x0000df64
    9064:	0000dbf4 	.word	0x0000dbf4
    9068:	0000de10 	.word	0x0000de10
    906c:	0000dd48 	.word	0x0000dd48
    9070:	0000023d 	.word	0x0000023d
    9074:	0000dd04 	.word	0x0000dd04
    9078:	00000249 	.word	0x00000249
    907c:	0000de74 	.word	0x0000de74

00009080 <fat32_flush>:
    9080:	e59f3038 	ldr	r3, [pc, #56]	; 90c0 <fat32_flush+0x40>
    9084:	e5933000 	ldr	r3, [r3]
    9088:	e3530000 	cmp	r3, #0, 0
    908c:	0a000001 	beq	9098 <fat32_flush+0x18>
    9090:	e3a00000 	mov	r0, #0, 0
    9094:	e12fff1e 	bx	lr
    9098:	e52de004 	push	{lr}		; (str lr, [sp, #-4]!)
    909c:	e24dd00c 	sub	sp, sp, #12, 0
    90a0:	e59f301c 	ldr	r3, [pc, #28]	; 90c4 <fat32_flush+0x44>
    90a4:	e58d3000 	str	r3, [sp]
    90a8:	e59f3018 	ldr	r3, [pc, #24]	; 90c8 <fat32_flush+0x48>
    90ac:	e59f2018 	ldr	r2, [pc, #24]	; 90cc <fat32_flush+0x4c>
    90b0:	e59f1018 	ldr	r1, [pc, #24]	; 90d0 <fat32_flush+0x50>
    90b4:	e59f0018 	ldr	r0, [pc, #24]	; 90d4 <fat32_flush+0x54>
    90b8:	eb000ebf 	bl	cbbc <printk>
    90bc:	eb000fee 	bl	d07c <clean_reboot>
    90c0:	0000ffb8 	.word	0x0000ffb8
    90c4:	0000dd48 	.word	0x0000dd48
    90c8:	0000024d 	.word	0x0000024d
    90cc:	0000df70 	.word	0x0000df70
    90d0:	0000dbf4 	.word	0x0000dbf4
    90d4:	0000dd04 	.word	0x0000dd04

000090d8 <pi_sd_trace>:
    90d8:	e59f3004 	ldr	r3, [pc, #4]	; 90e4 <pi_sd_trace+0xc>
    90dc:	e5830000 	str	r0, [r3]
    90e0:	e12fff1e 	bx	lr
    90e4:	0000ffbc 	.word	0x0000ffbc

000090e8 <pi_sd_init>:
    90e8:	e92d4010 	push	{r4, lr}
    90ec:	eb000d95 	bl	c748 <emmc_init>
    90f0:	e3500000 	cmp	r0, #0, 0
    90f4:	0a000003 	beq	9108 <pi_sd_init+0x20>
    90f8:	e3a00001 	mov	r0, #1, 0
    90fc:	e59f301c 	ldr	r3, [pc, #28]	; 9120 <pi_sd_init+0x38>
    9100:	e5830004 	str	r0, [r3, #4]
    9104:	e8bd8010 	pop	{r4, pc}
    9108:	e3a0301d 	mov	r3, #29, 0
    910c:	e59f2010 	ldr	r2, [pc, #16]	; 9124 <pi_sd_init+0x3c>
    9110:	e59f1010 	ldr	r1, [pc, #16]	; 9128 <pi_sd_init+0x40>
    9114:	e59f0010 	ldr	r0, [pc, #16]	; 912c <pi_sd_init+0x44>
    9118:	eb000ea7 	bl	cbbc <printk>
    911c:	eb000fd6 	bl	d07c <clean_reboot>
    9120:	0000ffbc 	.word	0x0000ffbc
    9124:	0000e0d4 	.word	0x0000e0d4
    9128:	0000df7c 	.word	0x0000df7c
    912c:	0000df84 	.word	0x0000df84

00009130 <pi_sd_read>:
    9130:	e92d4070 	push	{r4, r5, r6, lr}
    9134:	e24dd008 	sub	sp, sp, #8, 0
    9138:	e59f3118 	ldr	r3, [pc, #280]	; 9258 <pi_sd_read+0x128>
    913c:	e5933004 	ldr	r3, [r3, #4]
    9140:	e3530000 	cmp	r3, #0, 0
    9144:	0a00000f 	beq	9188 <pi_sd_read+0x58>
    9148:	e1a06000 	mov	r6, r0
    914c:	e1a05001 	mov	r5, r1
    9150:	e1a04482 	lsl	r4, r2, #9
    9154:	e1a02004 	mov	r2, r4
    9158:	e1a01000 	mov	r1, r0
    915c:	e1a00005 	mov	r0, r5
    9160:	eb000d32 	bl	c630 <emmc_read>
    9164:	e1500004 	cmp	r0, r4
    9168:	1a00000e 	bne	91a8 <pi_sd_read+0x78>
    916c:	e59f30e4 	ldr	r3, [pc, #228]	; 9258 <pi_sd_read+0x128>
    9170:	e5933000 	ldr	r3, [r3]
    9174:	e3530000 	cmp	r3, #0, 0
    9178:	1a000011 	bne	91c4 <pi_sd_read+0x94>
    917c:	e3a00001 	mov	r0, #1, 0
    9180:	e28dd008 	add	sp, sp, #8, 0
    9184:	e8bd8070 	pop	{r4, r5, r6, pc}
    9188:	e59f30cc 	ldr	r3, [pc, #204]	; 925c <pi_sd_read+0x12c>
    918c:	e58d3000 	str	r3, [sp]
    9190:	e3a03023 	mov	r3, #35, 0	; 0x23
    9194:	e59f20c4 	ldr	r2, [pc, #196]	; 9260 <pi_sd_read+0x130>
    9198:	e59f10c4 	ldr	r1, [pc, #196]	; 9264 <pi_sd_read+0x134>
    919c:	e59f00c4 	ldr	r0, [pc, #196]	; 9268 <pi_sd_read+0x138>
    91a0:	eb000e85 	bl	cbbc <printk>
    91a4:	eb000fb4 	bl	d07c <clean_reboot>
    91a8:	e58d0000 	str	r0, [sp]
    91ac:	e3a03026 	mov	r3, #38, 0	; 0x26
    91b0:	e59f20a8 	ldr	r2, [pc, #168]	; 9260 <pi_sd_read+0x130>
    91b4:	e59f10a8 	ldr	r1, [pc, #168]	; 9264 <pi_sd_read+0x134>
    91b8:	e59f00ac 	ldr	r0, [pc, #172]	; 926c <pi_sd_read+0x13c>
    91bc:	eb000e7e 	bl	cbbc <printk>
    91c0:	eb000fad 	bl	d07c <clean_reboot>
    91c4:	e59f1094 	ldr	r1, [pc, #148]	; 9260 <pi_sd_read+0x130>
    91c8:	e59f00a0 	ldr	r0, [pc, #160]	; 9270 <pi_sd_read+0x140>
    91cc:	eb000e7a 	bl	cbbc <printk>
    91d0:	e16f3f16 	clz	r3, r6
    91d4:	e1a032a3 	lsr	r3, r3, #5
    91d8:	e3540000 	cmp	r4, #0, 0
    91dc:	03a03001 	moveq	r3, #1, 0
    91e0:	e3530000 	cmp	r3, #0, 0
    91e4:	1a000019 	bne	9250 <pi_sd_read+0x120>
    91e8:	e1a03124 	lsr	r3, r4, #2
    91ec:	e3530000 	cmp	r3, #0, 0
    91f0:	0a00000c 	beq	9228 <pi_sd_read+0xf8>
    91f4:	e5d61001 	ldrb	r1, [r6, #1]
    91f8:	e5d62000 	ldrb	r2, [r6]
    91fc:	e1822401 	orr	r2, r2, r1, lsl #8
    9200:	e0822004 	add	r2, r2, r4
    9204:	e5d61003 	ldrb	r1, [r6, #3]
    9208:	e5d64002 	ldrb	r4, [r6, #2]
    920c:	e1844401 	orr	r4, r4, r1, lsl #8
    9210:	e0224584 	eor	r4, r2, r4, lsl #11
    9214:	e0244802 	eor	r4, r4, r2, lsl #16
    9218:	e2866004 	add	r6, r6, #4, 0
    921c:	e08445a4 	add	r4, r4, r4, lsr #11
    9220:	e2433001 	sub	r3, r3, #1, 0
    9224:	eafffff0 	b	91ec <pi_sd_read+0xbc>
    9228:	e0242184 	eor	r2, r4, r4, lsl #3
    922c:	e08222a2 	add	r2, r2, r2, lsr #5
    9230:	e0222202 	eor	r2, r2, r2, lsl #4
    9234:	e08228a2 	add	r2, r2, r2, lsr #17
    9238:	e0222c82 	eor	r2, r2, r2, lsl #25
    923c:	e0822322 	add	r2, r2, r2, lsr #6
    9240:	e1a01005 	mov	r1, r5
    9244:	e59f0028 	ldr	r0, [pc, #40]	; 9274 <pi_sd_read+0x144>
    9248:	eb000e5b 	bl	cbbc <printk>
    924c:	eaffffca 	b	917c <pi_sd_read+0x4c>
    9250:	e3a02000 	mov	r2, #0, 0
    9254:	eafffff9 	b	9240 <pi_sd_read+0x110>
    9258:	0000ffbc 	.word	0x0000ffbc
    925c:	0000dd48 	.word	0x0000dd48
    9260:	0000e0e0 	.word	0x0000e0e0
    9264:	0000df7c 	.word	0x0000df7c
    9268:	0000dfa4 	.word	0x0000dfa4
    926c:	0000dfec 	.word	0x0000dfec
    9270:	0000dca4 	.word	0x0000dca4
    9274:	0000e028 	.word	0x0000e028

00009278 <pi_sec_read>:
    9278:	e92d4070 	push	{r4, r5, r6, lr}
    927c:	e24dd008 	sub	sp, sp, #8, 0
    9280:	e59f3074 	ldr	r3, [pc, #116]	; 92fc <pi_sec_read+0x84>
    9284:	e5933004 	ldr	r3, [r3, #4]
    9288:	e3530000 	cmp	r3, #0, 0
    928c:	0a00000c 	beq	92c4 <pi_sec_read+0x4c>
    9290:	e1a05000 	mov	r5, r0
    9294:	e1a04001 	mov	r4, r1
    9298:	e1a00481 	lsl	r0, r1, #9
    929c:	eb001147 	bl	d7c0 <kmalloc>
    92a0:	e1a06000 	mov	r6, r0
    92a4:	e1a02004 	mov	r2, r4
    92a8:	e1a01005 	mov	r1, r5
    92ac:	ebffff9f 	bl	9130 <pi_sd_read>
    92b0:	e3500000 	cmp	r0, #0, 0
    92b4:	0a00000a 	beq	92e4 <pi_sec_read+0x6c>
    92b8:	e1a00006 	mov	r0, r6
    92bc:	e28dd008 	add	sp, sp, #8, 0
    92c0:	e8bd8070 	pop	{r4, r5, r6, pc}
    92c4:	e59f3034 	ldr	r3, [pc, #52]	; 9300 <pi_sec_read+0x88>
    92c8:	e58d3000 	str	r3, [sp]
    92cc:	e3a03030 	mov	r3, #48, 0	; 0x30
    92d0:	e59f202c 	ldr	r2, [pc, #44]	; 9304 <pi_sec_read+0x8c>
    92d4:	e59f102c 	ldr	r1, [pc, #44]	; 9308 <pi_sec_read+0x90>
    92d8:	e59f002c 	ldr	r0, [pc, #44]	; 930c <pi_sec_read+0x94>
    92dc:	eb000e36 	bl	cbbc <printk>
    92e0:	eb000f65 	bl	d07c <clean_reboot>
    92e4:	e3a03034 	mov	r3, #52, 0	; 0x34
    92e8:	e59f2014 	ldr	r2, [pc, #20]	; 9304 <pi_sec_read+0x8c>
    92ec:	e59f1014 	ldr	r1, [pc, #20]	; 9308 <pi_sec_read+0x90>
    92f0:	e59f0018 	ldr	r0, [pc, #24]	; 9310 <pi_sec_read+0x98>
    92f4:	eb000e30 	bl	cbbc <printk>
    92f8:	eb000f5f 	bl	d07c <clean_reboot>
    92fc:	0000ffbc 	.word	0x0000ffbc
    9300:	0000dd48 	.word	0x0000dd48
    9304:	0000e0ec 	.word	0x0000e0ec
    9308:	0000df7c 	.word	0x0000df7c
    930c:	0000dfa4 	.word	0x0000dfa4
    9310:	0000e048 	.word	0x0000e048

00009314 <pi_sd_write>:
    9314:	e92d4070 	push	{r4, r5, r6, lr}
    9318:	e24dd008 	sub	sp, sp, #8, 0
    931c:	e59f30b0 	ldr	r3, [pc, #176]	; 93d4 <pi_sd_write+0xc0>
    9320:	e5933004 	ldr	r3, [r3, #4]
    9324:	e3530000 	cmp	r3, #0, 0
    9328:	0a00000f 	beq	936c <pi_sd_write+0x58>
    932c:	e1a06000 	mov	r6, r0
    9330:	e1a05001 	mov	r5, r1
    9334:	e1a04482 	lsl	r4, r2, #9
    9338:	e1a02004 	mov	r2, r4
    933c:	e1a01000 	mov	r1, r0
    9340:	e1a00005 	mov	r0, r5
    9344:	eb000cdd 	bl	c6c0 <emmc_write>
    9348:	e1500004 	cmp	r0, r4
    934c:	1a00000e 	bne	938c <pi_sd_write+0x78>
    9350:	e59f307c 	ldr	r3, [pc, #124]	; 93d4 <pi_sd_write+0xc0>
    9354:	e5933000 	ldr	r3, [r3]
    9358:	e3530000 	cmp	r3, #0, 0
    935c:	1a000011 	bne	93a8 <pi_sd_write+0x94>
    9360:	e3a00001 	mov	r0, #1, 0
    9364:	e28dd008 	add	sp, sp, #8, 0
    9368:	e8bd8070 	pop	{r4, r5, r6, pc}
    936c:	e59f3064 	ldr	r3, [pc, #100]	; 93d8 <pi_sd_write+0xc4>
    9370:	e58d3000 	str	r3, [sp]
    9374:	e3a0303b 	mov	r3, #59, 0	; 0x3b
    9378:	e59f205c 	ldr	r2, [pc, #92]	; 93dc <pi_sd_write+0xc8>
    937c:	e59f105c 	ldr	r1, [pc, #92]	; 93e0 <pi_sd_write+0xcc>
    9380:	e59f005c 	ldr	r0, [pc, #92]	; 93e4 <pi_sd_write+0xd0>
    9384:	eb000e0c 	bl	cbbc <printk>
    9388:	eb000f3b 	bl	d07c <clean_reboot>
    938c:	e58d0000 	str	r0, [sp]
    9390:	e3a0303e 	mov	r3, #62, 0	; 0x3e
    9394:	e59f2040 	ldr	r2, [pc, #64]	; 93dc <pi_sd_write+0xc8>
    9398:	e59f1040 	ldr	r1, [pc, #64]	; 93e0 <pi_sd_write+0xcc>
    939c:	e59f0044 	ldr	r0, [pc, #68]	; 93e8 <pi_sd_write+0xd4>
    93a0:	eb000e05 	bl	cbbc <printk>
    93a4:	eb000f34 	bl	d07c <clean_reboot>
    93a8:	e59f102c 	ldr	r1, [pc, #44]	; 93dc <pi_sd_write+0xc8>
    93ac:	e59f0038 	ldr	r0, [pc, #56]	; 93ec <pi_sd_write+0xd8>
    93b0:	eb000e01 	bl	cbbc <printk>
    93b4:	e1a01004 	mov	r1, r4
    93b8:	e1a00006 	mov	r0, r6
    93bc:	eb000d8e 	bl	c9fc <our_crc32>
    93c0:	e1a02000 	mov	r2, r0
    93c4:	e1a01005 	mov	r1, r5
    93c8:	e59f0020 	ldr	r0, [pc, #32]	; 93f0 <pi_sd_write+0xdc>
    93cc:	eb000dfa 	bl	cbbc <printk>
    93d0:	eaffffe2 	b	9360 <pi_sd_write+0x4c>
    93d4:	0000ffbc 	.word	0x0000ffbc
    93d8:	0000dd48 	.word	0x0000dd48
    93dc:	0000e0f8 	.word	0x0000e0f8
    93e0:	0000df7c 	.word	0x0000df7c
    93e4:	0000dfa4 	.word	0x0000dfa4
    93e8:	0000e078 	.word	0x0000e078
    93ec:	0000dca4 	.word	0x0000dca4
    93f0:	0000e0b4 	.word	0x0000e0b4

000093f4 <mbr_get_partition>:
    93f4:	e92d4010 	push	{r4, lr}
    93f8:	e24dd018 	sub	sp, sp, #24, 0
    93fc:	e3520003 	cmp	r2, #3, 0
    9400:	8a00000e 	bhi	9440 <mbr_get_partition+0x4c>
    9404:	e1a04000 	mov	r4, r0
    9408:	e1a03002 	mov	r3, r2
    940c:	e2811f6f 	add	r1, r1, #444	; 0x1bc
    9410:	e2811002 	add	r1, r1, #2, 0
    9414:	e3a02010 	mov	r2, #16, 0
    9418:	e0811203 	add	r1, r1, r3, lsl #4
    941c:	e28d0008 	add	r0, sp, #8, 0
    9420:	eb000d86 	bl	ca40 <memcpy>
    9424:	e3a02010 	mov	r2, #16, 0
    9428:	e28d1008 	add	r1, sp, #8, 0
    942c:	e1a00004 	mov	r0, r4
    9430:	eb000d82 	bl	ca40 <memcpy>
    9434:	e1a00004 	mov	r0, r4
    9438:	e28dd018 	add	sp, sp, #24, 0
    943c:	e8bd8010 	pop	{r4, pc}
    9440:	e59f3018 	ldr	r3, [pc, #24]	; 9460 <mbr_get_partition+0x6c>
    9444:	e58d3000 	str	r3, [sp]
    9448:	e3a0301c 	mov	r3, #28, 0
    944c:	e59f2010 	ldr	r2, [pc, #16]	; 9464 <mbr_get_partition+0x70>
    9450:	e59f1010 	ldr	r1, [pc, #16]	; 9468 <mbr_get_partition+0x74>
    9454:	e59f0010 	ldr	r0, [pc, #16]	; 946c <mbr_get_partition+0x78>
    9458:	eb000dd7 	bl	cbbc <printk>
    945c:	eb000f06 	bl	d07c <clean_reboot>
    9460:	0000e114 	.word	0x0000e114
    9464:	0000e538 	.word	0x0000e538
    9468:	0000e104 	.word	0x0000e104
    946c:	0000da34 	.word	0x0000da34

00009470 <mbr_part_str>:
    9470:	e35000fc 	cmp	r0, #252, 0	; 0xfc
    9474:	979ff100 	ldrls	pc, [pc, r0, lsl #2]
    9478:	ea000140 	b	9980 <mbr_part_str+0x510>
    947c:	000099a4 	.word	0x000099a4
    9480:	000099ac 	.word	0x000099ac
    9484:	00009980 	.word	0x00009980
    9488:	00009980 	.word	0x00009980
    948c:	00009870 	.word	0x00009870
    9490:	00009878 	.word	0x00009878
    9494:	00009880 	.word	0x00009880
    9498:	00009888 	.word	0x00009888
    949c:	00009980 	.word	0x00009980
    94a0:	00009980 	.word	0x00009980
    94a4:	00009980 	.word	0x00009980
    94a8:	00009890 	.word	0x00009890
    94ac:	00009898 	.word	0x00009898
    94b0:	00009980 	.word	0x00009980
    94b4:	000098a0 	.word	0x000098a0
    94b8:	000098a8 	.word	0x000098a8
    94bc:	00009980 	.word	0x00009980
    94c0:	000098b0 	.word	0x000098b0
    94c4:	00009980 	.word	0x00009980
    94c8:	00009980 	.word	0x00009980
    94cc:	000098b8 	.word	0x000098b8
    94d0:	00009980 	.word	0x00009980
    94d4:	000098c0 	.word	0x000098c0
    94d8:	00009980 	.word	0x00009980
    94dc:	00009980 	.word	0x00009980
    94e0:	00009980 	.word	0x00009980
    94e4:	00009980 	.word	0x00009980
    94e8:	000098c8 	.word	0x000098c8
    94ec:	000098d0 	.word	0x000098d0
    94f0:	00009980 	.word	0x00009980
    94f4:	000098d8 	.word	0x000098d8
    94f8:	00009980 	.word	0x00009980
    94fc:	00009980 	.word	0x00009980
    9500:	00009980 	.word	0x00009980
    9504:	00009980 	.word	0x00009980
    9508:	00009980 	.word	0x00009980
    950c:	00009980 	.word	0x00009980
    9510:	00009980 	.word	0x00009980
    9514:	00009980 	.word	0x00009980
    9518:	00009980 	.word	0x00009980
    951c:	00009980 	.word	0x00009980
    9520:	00009980 	.word	0x00009980
    9524:	00009980 	.word	0x00009980
    9528:	00009980 	.word	0x00009980
    952c:	00009980 	.word	0x00009980
    9530:	00009980 	.word	0x00009980
    9534:	00009980 	.word	0x00009980
    9538:	00009980 	.word	0x00009980
    953c:	00009980 	.word	0x00009980
    9540:	00009980 	.word	0x00009980
    9544:	00009980 	.word	0x00009980
    9548:	00009980 	.word	0x00009980
    954c:	00009980 	.word	0x00009980
    9550:	00009980 	.word	0x00009980
    9554:	00009980 	.word	0x00009980
    9558:	00009980 	.word	0x00009980
    955c:	00009980 	.word	0x00009980
    9560:	00009980 	.word	0x00009980
    9564:	00009980 	.word	0x00009980
    9568:	00009980 	.word	0x00009980
    956c:	00009980 	.word	0x00009980
    9570:	00009980 	.word	0x00009980
    9574:	00009980 	.word	0x00009980
    9578:	00009980 	.word	0x00009980
    957c:	00009980 	.word	0x00009980
    9580:	00009980 	.word	0x00009980
    9584:	000098e0 	.word	0x000098e0
    9588:	00009980 	.word	0x00009980
    958c:	00009980 	.word	0x00009980
    9590:	00009980 	.word	0x00009980
    9594:	00009980 	.word	0x00009980
    9598:	00009980 	.word	0x00009980
    959c:	00009980 	.word	0x00009980
    95a0:	00009980 	.word	0x00009980
    95a4:	00009980 	.word	0x00009980
    95a8:	00009980 	.word	0x00009980
    95ac:	00009980 	.word	0x00009980
    95b0:	00009980 	.word	0x00009980
    95b4:	00009980 	.word	0x00009980
    95b8:	00009980 	.word	0x00009980
    95bc:	00009980 	.word	0x00009980
    95c0:	00009980 	.word	0x00009980
    95c4:	00009980 	.word	0x00009980
    95c8:	00009980 	.word	0x00009980
    95cc:	00009980 	.word	0x00009980
    95d0:	00009980 	.word	0x00009980
    95d4:	00009980 	.word	0x00009980
    95d8:	00009980 	.word	0x00009980
    95dc:	00009980 	.word	0x00009980
    95e0:	00009980 	.word	0x00009980
    95e4:	00009980 	.word	0x00009980
    95e8:	00009980 	.word	0x00009980
    95ec:	00009980 	.word	0x00009980
    95f0:	00009980 	.word	0x00009980
    95f4:	00009980 	.word	0x00009980
    95f8:	00009980 	.word	0x00009980
    95fc:	00009980 	.word	0x00009980
    9600:	00009980 	.word	0x00009980
    9604:	00009980 	.word	0x00009980
    9608:	00009980 	.word	0x00009980
    960c:	00009980 	.word	0x00009980
    9610:	00009980 	.word	0x00009980
    9614:	00009980 	.word	0x00009980
    9618:	00009980 	.word	0x00009980
    961c:	00009980 	.word	0x00009980
    9620:	00009980 	.word	0x00009980
    9624:	00009980 	.word	0x00009980
    9628:	00009980 	.word	0x00009980
    962c:	00009980 	.word	0x00009980
    9630:	00009980 	.word	0x00009980
    9634:	00009980 	.word	0x00009980
    9638:	00009980 	.word	0x00009980
    963c:	00009980 	.word	0x00009980
    9640:	00009980 	.word	0x00009980
    9644:	00009980 	.word	0x00009980
    9648:	00009980 	.word	0x00009980
    964c:	00009980 	.word	0x00009980
    9650:	00009980 	.word	0x00009980
    9654:	00009980 	.word	0x00009980
    9658:	00009980 	.word	0x00009980
    965c:	00009980 	.word	0x00009980
    9660:	00009980 	.word	0x00009980
    9664:	00009980 	.word	0x00009980
    9668:	00009980 	.word	0x00009980
    966c:	00009980 	.word	0x00009980
    9670:	00009980 	.word	0x00009980
    9674:	00009980 	.word	0x00009980
    9678:	00009980 	.word	0x00009980
    967c:	00009980 	.word	0x00009980
    9680:	00009980 	.word	0x00009980
    9684:	000098e8 	.word	0x000098e8
    9688:	000098f0 	.word	0x000098f0
    968c:	000098f8 	.word	0x000098f8
    9690:	00009900 	.word	0x00009900
    9694:	00009908 	.word	0x00009908
    9698:	00009910 	.word	0x00009910
    969c:	00009980 	.word	0x00009980
    96a0:	00009980 	.word	0x00009980
    96a4:	00009980 	.word	0x00009980
    96a8:	00009980 	.word	0x00009980
    96ac:	00009980 	.word	0x00009980
    96b0:	00009980 	.word	0x00009980
    96b4:	00009980 	.word	0x00009980
    96b8:	00009980 	.word	0x00009980
    96bc:	00009980 	.word	0x00009980
    96c0:	00009980 	.word	0x00009980
    96c4:	00009980 	.word	0x00009980
    96c8:	00009980 	.word	0x00009980
    96cc:	00009980 	.word	0x00009980
    96d0:	00009980 	.word	0x00009980
    96d4:	00009980 	.word	0x00009980
    96d8:	00009980 	.word	0x00009980
    96dc:	00009980 	.word	0x00009980
    96e0:	00009980 	.word	0x00009980
    96e4:	00009980 	.word	0x00009980
    96e8:	00009980 	.word	0x00009980
    96ec:	00009980 	.word	0x00009980
    96f0:	00009980 	.word	0x00009980
    96f4:	00009980 	.word	0x00009980
    96f8:	00009980 	.word	0x00009980
    96fc:	00009918 	.word	0x00009918
    9700:	00009920 	.word	0x00009920
    9704:	00009980 	.word	0x00009980
    9708:	00009980 	.word	0x00009980
    970c:	00009980 	.word	0x00009980
    9710:	00009928 	.word	0x00009928
    9714:	00009930 	.word	0x00009930
    9718:	00009980 	.word	0x00009980
    971c:	00009938 	.word	0x00009938
    9720:	00009940 	.word	0x00009940
    9724:	00009980 	.word	0x00009980
    9728:	00009948 	.word	0x00009948
    972c:	00009980 	.word	0x00009980
    9730:	00009980 	.word	0x00009980
    9734:	00009980 	.word	0x00009980
    9738:	00009980 	.word	0x00009980
    973c:	00009980 	.word	0x00009980
    9740:	00009980 	.word	0x00009980
    9744:	00009980 	.word	0x00009980
    9748:	00009980 	.word	0x00009980
    974c:	00009980 	.word	0x00009980
    9750:	00009980 	.word	0x00009980
    9754:	00009980 	.word	0x00009980
    9758:	00009950 	.word	0x00009950
    975c:	00009958 	.word	0x00009958
    9760:	00009980 	.word	0x00009980
    9764:	00009980 	.word	0x00009980
    9768:	00009980 	.word	0x00009980
    976c:	00009980 	.word	0x00009980
    9770:	00009980 	.word	0x00009980
    9774:	00009980 	.word	0x00009980
    9778:	00009980 	.word	0x00009980
    977c:	00009980 	.word	0x00009980
    9780:	00009980 	.word	0x00009980
    9784:	00009980 	.word	0x00009980
    9788:	00009980 	.word	0x00009980
    978c:	00009980 	.word	0x00009980
    9790:	00009980 	.word	0x00009980
    9794:	00009980 	.word	0x00009980
    9798:	00009980 	.word	0x00009980
    979c:	00009980 	.word	0x00009980
    97a0:	00009980 	.word	0x00009980
    97a4:	00009980 	.word	0x00009980
    97a8:	00009980 	.word	0x00009980
    97ac:	00009980 	.word	0x00009980
    97b0:	00009980 	.word	0x00009980
    97b4:	00009980 	.word	0x00009980
    97b8:	00009980 	.word	0x00009980
    97bc:	00009980 	.word	0x00009980
    97c0:	00009980 	.word	0x00009980
    97c4:	00009980 	.word	0x00009980
    97c8:	00009980 	.word	0x00009980
    97cc:	00009980 	.word	0x00009980
    97d0:	00009980 	.word	0x00009980
    97d4:	00009980 	.word	0x00009980
    97d8:	00009980 	.word	0x00009980
    97dc:	00009980 	.word	0x00009980
    97e0:	00009980 	.word	0x00009980
    97e4:	00009980 	.word	0x00009980
    97e8:	00009980 	.word	0x00009980
    97ec:	00009980 	.word	0x00009980
    97f0:	00009980 	.word	0x00009980
    97f4:	00009980 	.word	0x00009980
    97f8:	00009980 	.word	0x00009980
    97fc:	00009980 	.word	0x00009980
    9800:	00009980 	.word	0x00009980
    9804:	00009980 	.word	0x00009980
    9808:	00009980 	.word	0x00009980
    980c:	00009980 	.word	0x00009980
    9810:	00009980 	.word	0x00009980
    9814:	00009980 	.word	0x00009980
    9818:	00009980 	.word	0x00009980
    981c:	00009980 	.word	0x00009980
    9820:	00009980 	.word	0x00009980
    9824:	00009980 	.word	0x00009980
    9828:	00009980 	.word	0x00009980
    982c:	00009980 	.word	0x00009980
    9830:	00009980 	.word	0x00009980
    9834:	00009960 	.word	0x00009960
    9838:	00009968 	.word	0x00009968
    983c:	00009980 	.word	0x00009980
    9840:	00009980 	.word	0x00009980
    9844:	00009980 	.word	0x00009980
    9848:	00009980 	.word	0x00009980
    984c:	00009980 	.word	0x00009980
    9850:	00009980 	.word	0x00009980
    9854:	00009980 	.word	0x00009980
    9858:	00009980 	.word	0x00009980
    985c:	00009980 	.word	0x00009980
    9860:	00009980 	.word	0x00009980
    9864:	00009980 	.word	0x00009980
    9868:	00009970 	.word	0x00009970
    986c:	00009978 	.word	0x00009978
    9870:	e59f013c 	ldr	r0, [pc, #316]	; 99b4 <mbr_part_str+0x544>
    9874:	e12fff1e 	bx	lr
    9878:	e59f0138 	ldr	r0, [pc, #312]	; 99b8 <mbr_part_str+0x548>
    987c:	e12fff1e 	bx	lr
    9880:	e59f0134 	ldr	r0, [pc, #308]	; 99bc <mbr_part_str+0x54c>
    9884:	e12fff1e 	bx	lr
    9888:	e59f0130 	ldr	r0, [pc, #304]	; 99c0 <mbr_part_str+0x550>
    988c:	e12fff1e 	bx	lr
    9890:	e59f012c 	ldr	r0, [pc, #300]	; 99c4 <mbr_part_str+0x554>
    9894:	e12fff1e 	bx	lr
    9898:	e59f0128 	ldr	r0, [pc, #296]	; 99c8 <mbr_part_str+0x558>
    989c:	e12fff1e 	bx	lr
    98a0:	e59f0124 	ldr	r0, [pc, #292]	; 99cc <mbr_part_str+0x55c>
    98a4:	e12fff1e 	bx	lr
    98a8:	e59f0120 	ldr	r0, [pc, #288]	; 99d0 <mbr_part_str+0x560>
    98ac:	e12fff1e 	bx	lr
    98b0:	e59f011c 	ldr	r0, [pc, #284]	; 99d4 <mbr_part_str+0x564>
    98b4:	e12fff1e 	bx	lr
    98b8:	e59f0118 	ldr	r0, [pc, #280]	; 99d8 <mbr_part_str+0x568>
    98bc:	e12fff1e 	bx	lr
    98c0:	e59f0114 	ldr	r0, [pc, #276]	; 99dc <mbr_part_str+0x56c>
    98c4:	e12fff1e 	bx	lr
    98c8:	e59f0110 	ldr	r0, [pc, #272]	; 99e0 <mbr_part_str+0x570>
    98cc:	e12fff1e 	bx	lr
    98d0:	e59f010c 	ldr	r0, [pc, #268]	; 99e4 <mbr_part_str+0x574>
    98d4:	e12fff1e 	bx	lr
    98d8:	e59f0108 	ldr	r0, [pc, #264]	; 99e8 <mbr_part_str+0x578>
    98dc:	e12fff1e 	bx	lr
    98e0:	e59f0104 	ldr	r0, [pc, #260]	; 99ec <mbr_part_str+0x57c>
    98e4:	e12fff1e 	bx	lr
    98e8:	e59f0100 	ldr	r0, [pc, #256]	; 99f0 <mbr_part_str+0x580>
    98ec:	e12fff1e 	bx	lr
    98f0:	e59f00fc 	ldr	r0, [pc, #252]	; 99f4 <mbr_part_str+0x584>
    98f4:	e12fff1e 	bx	lr
    98f8:	e59f00f8 	ldr	r0, [pc, #248]	; 99f8 <mbr_part_str+0x588>
    98fc:	e12fff1e 	bx	lr
    9900:	e59f00f4 	ldr	r0, [pc, #244]	; 99fc <mbr_part_str+0x58c>
    9904:	e12fff1e 	bx	lr
    9908:	e59f00f0 	ldr	r0, [pc, #240]	; 9a00 <mbr_part_str+0x590>
    990c:	e12fff1e 	bx	lr
    9910:	e59f00e8 	ldr	r0, [pc, #232]	; 9a00 <mbr_part_str+0x590>
    9914:	e12fff1e 	bx	lr
    9918:	e59f00d8 	ldr	r0, [pc, #216]	; 99f8 <mbr_part_str+0x588>
    991c:	e12fff1e 	bx	lr
    9920:	e59f00d0 	ldr	r0, [pc, #208]	; 99f8 <mbr_part_str+0x588>
    9924:	e12fff1e 	bx	lr
    9928:	e59f00d4 	ldr	r0, [pc, #212]	; 9a04 <mbr_part_str+0x594>
    992c:	e12fff1e 	bx	lr
    9930:	e59f00d0 	ldr	r0, [pc, #208]	; 9a08 <mbr_part_str+0x598>
    9934:	e12fff1e 	bx	lr
    9938:	e59f00cc 	ldr	r0, [pc, #204]	; 9a0c <mbr_part_str+0x59c>
    993c:	e12fff1e 	bx	lr
    9940:	e59f00c8 	ldr	r0, [pc, #200]	; 9a10 <mbr_part_str+0x5a0>
    9944:	e12fff1e 	bx	lr
    9948:	e59f00c4 	ldr	r0, [pc, #196]	; 9a14 <mbr_part_str+0x5a4>
    994c:	e12fff1e 	bx	lr
    9950:	e59f00c0 	ldr	r0, [pc, #192]	; 9a18 <mbr_part_str+0x5a8>
    9954:	e12fff1e 	bx	lr
    9958:	e59f00bc 	ldr	r0, [pc, #188]	; 9a1c <mbr_part_str+0x5ac>
    995c:	e12fff1e 	bx	lr
    9960:	e59f00b8 	ldr	r0, [pc, #184]	; 9a20 <mbr_part_str+0x5b0>
    9964:	e12fff1e 	bx	lr
    9968:	e59f00b4 	ldr	r0, [pc, #180]	; 9a24 <mbr_part_str+0x5b4>
    996c:	e12fff1e 	bx	lr
    9970:	e59f00b0 	ldr	r0, [pc, #176]	; 9a28 <mbr_part_str+0x5b8>
    9974:	e12fff1e 	bx	lr
    9978:	e59f00ac 	ldr	r0, [pc, #172]	; 9a2c <mbr_part_str+0x5bc>
    997c:	e12fff1e 	bx	lr
    9980:	e52de004 	push	{lr}		; (str lr, [sp, #-4]!)
    9984:	e24dd00c 	sub	sp, sp, #12, 0
    9988:	e58d0000 	str	r0, [sp]
    998c:	e3a0304d 	mov	r3, #77, 0	; 0x4d
    9990:	e59f2098 	ldr	r2, [pc, #152]	; 9a30 <mbr_part_str+0x5c0>
    9994:	e59f1098 	ldr	r1, [pc, #152]	; 9a34 <mbr_part_str+0x5c4>
    9998:	e59f0098 	ldr	r0, [pc, #152]	; 9a38 <mbr_part_str+0x5c8>
    999c:	eb000c86 	bl	cbbc <printk>
    99a0:	eb000db5 	bl	d07c <clean_reboot>
    99a4:	e59f0090 	ldr	r0, [pc, #144]	; 9a3c <mbr_part_str+0x5cc>
    99a8:	e12fff1e 	bx	lr
    99ac:	e59f008c 	ldr	r0, [pc, #140]	; 9a40 <mbr_part_str+0x5d0>
    99b0:	e12fff1e 	bx	lr
    99b4:	0000e138 	.word	0x0000e138
    99b8:	0000e150 	.word	0x0000e150
    99bc:	0000e16c 	.word	0x0000e16c
    99c0:	0000e188 	.word	0x0000e188
    99c4:	0000e190 	.word	0x0000e190
    99c8:	0000e19c 	.word	0x0000e19c
    99cc:	0000e1a8 	.word	0x0000e1a8
    99d0:	0000e1c4 	.word	0x0000e1c4
    99d4:	0000e1e0 	.word	0x0000e1e0
    99d8:	0000e1f4 	.word	0x0000e1f4
    99dc:	0000e214 	.word	0x0000e214
    99e0:	0000e234 	.word	0x0000e234
    99e4:	0000e248 	.word	0x0000e248
    99e8:	0000e25c 	.word	0x0000e25c
    99ec:	0000e27c 	.word	0x0000e27c
    99f0:	0000e29c 	.word	0x0000e29c
    99f4:	0000e2b8 	.word	0x0000e2b8
    99f8:	0000e2c0 	.word	0x0000e2c0
    99fc:	0000e2cc 	.word	0x0000e2cc
    9a00:	0000e2dc 	.word	0x0000e2dc
    9a04:	0000e2ec 	.word	0x0000e2ec
    9a08:	0000e2f4 	.word	0x0000e2f4
    9a0c:	0000e2fc 	.word	0x0000e2fc
    9a10:	0000e304 	.word	0x0000e304
    9a14:	0000e30c 	.word	0x0000e30c
    9a18:	0000e31c 	.word	0x0000e31c
    9a1c:	0000e324 	.word	0x0000e324
    9a20:	0000e330 	.word	0x0000e330
    9a24:	0000e340 	.word	0x0000e340
    9a28:	0000e358 	.word	0x0000e358
    9a2c:	0000e120 	.word	0x0000e120
    9a30:	0000e54c 	.word	0x0000e54c
    9a34:	0000e104 	.word	0x0000e104
    9a38:	0000e374 	.word	0x0000e374
    9a3c:	0000e36c 	.word	0x0000e36c
    9a40:	0000e12c 	.word	0x0000e12c

00009a44 <mbr_partition_empty>:
    9a44:	e92d4010 	push	{r4, lr}
    9a48:	e3a01010 	mov	r1, #16, 0
    9a4c:	eb000c26 	bl	caec <memiszero>
    9a50:	e8bd8010 	pop	{r4, pc}

00009a54 <mbr_partition_empty_raw>:
    9a54:	e92d4010 	push	{r4, lr}
    9a58:	e3a01010 	mov	r1, #16, 0
    9a5c:	eb000c22 	bl	caec <memiszero>
    9a60:	e8bd8010 	pop	{r4, pc}

00009a64 <mbr_check>:
    9a64:	e92d4030 	push	{r4, r5, lr}
    9a68:	e24dd01c 	sub	sp, sp, #28, 0
    9a6c:	e2803f7f 	add	r3, r0, #508	; 0x1fc
    9a70:	e1d320b2 	ldrh	r2, [r3, #2]
    9a74:	e59f3144 	ldr	r3, [pc, #324]	; 9bc0 <mbr_check+0x15c>
    9a78:	e1520003 	cmp	r2, r3
    9a7c:	1a00001f 	bne	9b00 <mbr_check+0x9c>
    9a80:	e1a04000 	mov	r4, r0
    9a84:	e2805f6f 	add	r5, r0, #444	; 0x1bc
    9a88:	e2855002 	add	r5, r5, #2, 0
    9a8c:	e3a02010 	mov	r2, #16, 0
    9a90:	e1a01005 	mov	r1, r5
    9a94:	e28d0008 	add	r0, sp, #8, 0
    9a98:	eb000be8 	bl	ca40 <memcpy>
    9a9c:	e5dd300c 	ldrb	r3, [sp, #12]
    9aa0:	e243300b 	sub	r3, r3, #11, 0
    9aa4:	e3530001 	cmp	r3, #1, 0
    9aa8:	8a00001c 	bhi	9b20 <mbr_check+0xbc>
    9aac:	e1a00005 	mov	r0, r5
    9ab0:	ebffffe7 	bl	9a54 <mbr_partition_empty_raw>
    9ab4:	e3500000 	cmp	r0, #0, 0
    9ab8:	1a000020 	bne	9b40 <mbr_check+0xdc>
    9abc:	e2840f73 	add	r0, r4, #460	; 0x1cc
    9ac0:	e2800002 	add	r0, r0, #2, 0
    9ac4:	ebffffe2 	bl	9a54 <mbr_partition_empty_raw>
    9ac8:	e3500000 	cmp	r0, #0, 0
    9acc:	0a000023 	beq	9b60 <mbr_check+0xfc>
    9ad0:	e2840f77 	add	r0, r4, #476	; 0x1dc
    9ad4:	e2800002 	add	r0, r0, #2, 0
    9ad8:	ebffffdd 	bl	9a54 <mbr_partition_empty_raw>
    9adc:	e3500000 	cmp	r0, #0, 0
    9ae0:	0a000026 	beq	9b80 <mbr_check+0x11c>
    9ae4:	e2840f7b 	add	r0, r4, #492	; 0x1ec
    9ae8:	e2800002 	add	r0, r0, #2, 0
    9aec:	ebffffd8 	bl	9a54 <mbr_partition_empty_raw>
    9af0:	e3500000 	cmp	r0, #0, 0
    9af4:	0a000029 	beq	9ba0 <mbr_check+0x13c>
    9af8:	e28dd01c 	add	sp, sp, #28, 0
    9afc:	e8bd8030 	pop	{r4, r5, pc}
    9b00:	e59f30bc 	ldr	r3, [pc, #188]	; 9bc4 <mbr_check+0x160>
    9b04:	e58d3000 	str	r3, [sp]
    9b08:	e3a03009 	mov	r3, #9, 0
    9b0c:	e59f20b4 	ldr	r2, [pc, #180]	; 9bc8 <mbr_check+0x164>
    9b10:	e59f10b4 	ldr	r1, [pc, #180]	; 9bcc <mbr_check+0x168>
    9b14:	e59f00b4 	ldr	r0, [pc, #180]	; 9bd0 <mbr_check+0x16c>
    9b18:	eb000c27 	bl	cbbc <printk>
    9b1c:	eb000d56 	bl	d07c <clean_reboot>
    9b20:	e59f30ac 	ldr	r3, [pc, #172]	; 9bd4 <mbr_check+0x170>
    9b24:	e58d3000 	str	r3, [sp]
    9b28:	e3a0300f 	mov	r3, #15, 0
    9b2c:	e59f2094 	ldr	r2, [pc, #148]	; 9bc8 <mbr_check+0x164>
    9b30:	e59f1094 	ldr	r1, [pc, #148]	; 9bcc <mbr_check+0x168>
    9b34:	e59f0094 	ldr	r0, [pc, #148]	; 9bd0 <mbr_check+0x16c>
    9b38:	eb000c1f 	bl	cbbc <printk>
    9b3c:	eb000d4e 	bl	d07c <clean_reboot>
    9b40:	e59f3090 	ldr	r3, [pc, #144]	; 9bd8 <mbr_check+0x174>
    9b44:	e58d3000 	str	r3, [sp]
    9b48:	e3a03015 	mov	r3, #21, 0
    9b4c:	e59f2074 	ldr	r2, [pc, #116]	; 9bc8 <mbr_check+0x164>
    9b50:	e59f1074 	ldr	r1, [pc, #116]	; 9bcc <mbr_check+0x168>
    9b54:	e59f0074 	ldr	r0, [pc, #116]	; 9bd0 <mbr_check+0x16c>
    9b58:	eb000c17 	bl	cbbc <printk>
    9b5c:	eb000d46 	bl	d07c <clean_reboot>
    9b60:	e59f3074 	ldr	r3, [pc, #116]	; 9bdc <mbr_check+0x178>
    9b64:	e58d3000 	str	r3, [sp]
    9b68:	e3a03016 	mov	r3, #22, 0
    9b6c:	e59f2054 	ldr	r2, [pc, #84]	; 9bc8 <mbr_check+0x164>
    9b70:	e59f1054 	ldr	r1, [pc, #84]	; 9bcc <mbr_check+0x168>
    9b74:	e59f0054 	ldr	r0, [pc, #84]	; 9bd0 <mbr_check+0x16c>
    9b78:	eb000c0f 	bl	cbbc <printk>
    9b7c:	eb000d3e 	bl	d07c <clean_reboot>
    9b80:	e59f3058 	ldr	r3, [pc, #88]	; 9be0 <mbr_check+0x17c>
    9b84:	e58d3000 	str	r3, [sp]
    9b88:	e3a03017 	mov	r3, #23, 0
    9b8c:	e59f2034 	ldr	r2, [pc, #52]	; 9bc8 <mbr_check+0x164>
    9b90:	e59f1034 	ldr	r1, [pc, #52]	; 9bcc <mbr_check+0x168>
    9b94:	e59f0034 	ldr	r0, [pc, #52]	; 9bd0 <mbr_check+0x16c>
    9b98:	eb000c07 	bl	cbbc <printk>
    9b9c:	eb000d36 	bl	d07c <clean_reboot>
    9ba0:	e59f303c 	ldr	r3, [pc, #60]	; 9be4 <mbr_check+0x180>
    9ba4:	e58d3000 	str	r3, [sp]
    9ba8:	e3a03018 	mov	r3, #24, 0
    9bac:	e59f2014 	ldr	r2, [pc, #20]	; 9bc8 <mbr_check+0x164>
    9bb0:	e59f1014 	ldr	r1, [pc, #20]	; 9bcc <mbr_check+0x168>
    9bb4:	e59f0014 	ldr	r0, [pc, #20]	; 9bd0 <mbr_check+0x16c>
    9bb8:	eb000bff 	bl	cbbc <printk>
    9bbc:	eb000d2e 	bl	d07c <clean_reboot>
    9bc0:	0000aa55 	.word	0x0000aa55
    9bc4:	0000e398 	.word	0x0000e398
    9bc8:	0000e55c 	.word	0x0000e55c
    9bcc:	0000e104 	.word	0x0000e104
    9bd0:	0000da34 	.word	0x0000da34
    9bd4:	0000e3b0 	.word	0x0000e3b0
    9bd8:	0000e3d0 	.word	0x0000e3d0
    9bdc:	0000e3fc 	.word	0x0000e3fc
    9be0:	0000e424 	.word	0x0000e424
    9be4:	0000e44c 	.word	0x0000e44c

00009be8 <mbr_partition_print>:
    9be8:	e92d4030 	push	{r4, r5, lr}
    9bec:	e24dd00c 	sub	sp, sp, #12, 0
    9bf0:	e1a04001 	mov	r4, r1
    9bf4:	e1a01000 	mov	r1, r0
    9bf8:	e59f00fc 	ldr	r0, [pc, #252]	; 9cfc <mbr_partition_print+0x114>
    9bfc:	eb000bee 	bl	cbbc <printk>
    9c00:	e5d43000 	ldrb	r3, [r4]
    9c04:	e3530000 	cmp	r3, #0, 0
    9c08:	0a000031 	beq	9cd4 <mbr_partition_print+0xec>
    9c0c:	e59f10ec 	ldr	r1, [pc, #236]	; 9d00 <mbr_partition_print+0x118>
    9c10:	e59f00ec 	ldr	r0, [pc, #236]	; 9d04 <mbr_partition_print+0x11c>
    9c14:	eb000be8 	bl	cbbc <printk>
    9c18:	e5d43001 	ldrb	r3, [r4, #1]
    9c1c:	e5d41002 	ldrb	r1, [r4, #2]
    9c20:	e1833401 	orr	r3, r3, r1, lsl #8
    9c24:	e5d41003 	ldrb	r1, [r4, #3]
    9c28:	e1831801 	orr	r1, r3, r1, lsl #16
    9c2c:	e59f00d4 	ldr	r0, [pc, #212]	; 9d08 <mbr_partition_print+0x120>
    9c30:	eb000be1 	bl	cbbc <printk>
    9c34:	e5d45004 	ldrb	r5, [r4, #4]
    9c38:	e1a00005 	mov	r0, r5
    9c3c:	ebfffe0b 	bl	9470 <mbr_part_str>
    9c40:	e1a02000 	mov	r2, r0
    9c44:	e1a01005 	mov	r1, r5
    9c48:	e59f00bc 	ldr	r0, [pc, #188]	; 9d0c <mbr_partition_print+0x124>
    9c4c:	eb000bda 	bl	cbbc <printk>
    9c50:	e5d43005 	ldrb	r3, [r4, #5]
    9c54:	e5d41006 	ldrb	r1, [r4, #6]
    9c58:	e1833401 	orr	r3, r3, r1, lsl #8
    9c5c:	e5d41007 	ldrb	r1, [r4, #7]
    9c60:	e1831801 	orr	r1, r3, r1, lsl #16
    9c64:	e59f00a4 	ldr	r0, [pc, #164]	; 9d10 <mbr_partition_print+0x128>
    9c68:	eb000bd3 	bl	cbbc <printk>
    9c6c:	e5d43008 	ldrb	r3, [r4, #8]
    9c70:	e5d41009 	ldrb	r1, [r4, #9]
    9c74:	e1833401 	orr	r3, r3, r1, lsl #8
    9c78:	e5d4100a 	ldrb	r1, [r4, #10]
    9c7c:	e1833801 	orr	r3, r3, r1, lsl #16
    9c80:	e5d4100b 	ldrb	r1, [r4, #11]
    9c84:	e1831c01 	orr	r1, r3, r1, lsl #24
    9c88:	e59f0084 	ldr	r0, [pc, #132]	; 9d14 <mbr_partition_print+0x12c>
    9c8c:	eb000bca 	bl	cbbc <printk>
    9c90:	e5d4100c 	ldrb	r1, [r4, #12]
    9c94:	e5d4300d 	ldrb	r3, [r4, #13]
    9c98:	e1811403 	orr	r1, r1, r3, lsl #8
    9c9c:	e5d4300e 	ldrb	r3, [r4, #14]
    9ca0:	e1811803 	orr	r1, r1, r3, lsl #16
    9ca4:	e5d4300f 	ldrb	r3, [r4, #15]
    9ca8:	e1811c03 	orr	r1, r1, r3, lsl #24
    9cac:	e1a02aa1 	lsr	r2, r1, #21
    9cb0:	e59f0060 	ldr	r0, [pc, #96]	; 9d18 <mbr_partition_print+0x130>
    9cb4:	eb000bc0 	bl	cbbc <printk>
    9cb8:	e5d43004 	ldrb	r3, [r4, #4]
    9cbc:	e243300b 	sub	r3, r3, #11, 0
    9cc0:	e6ef3073 	uxtb	r3, r3
    9cc4:	e3530001 	cmp	r3, #1, 0
    9cc8:	8a000003 	bhi	9cdc <mbr_partition_print+0xf4>
    9ccc:	e28dd00c 	add	sp, sp, #12, 0
    9cd0:	e8bd8030 	pop	{r4, r5, pc}
    9cd4:	e59f1040 	ldr	r1, [pc, #64]	; 9d1c <mbr_partition_print+0x134>
    9cd8:	eaffffcc 	b	9c10 <mbr_partition_print+0x28>
    9cdc:	e59f303c 	ldr	r3, [pc, #60]	; 9d20 <mbr_partition_print+0x138>
    9ce0:	e58d3000 	str	r3, [sp]
    9ce4:	e3a03061 	mov	r3, #97, 0	; 0x61
    9ce8:	e59f2034 	ldr	r2, [pc, #52]	; 9d24 <mbr_partition_print+0x13c>
    9cec:	e59f1034 	ldr	r1, [pc, #52]	; 9d28 <mbr_partition_print+0x140>
    9cf0:	e59f0034 	ldr	r0, [pc, #52]	; 9d2c <mbr_partition_print+0x144>
    9cf4:	eb000bb0 	bl	cbbc <printk>
    9cf8:	eb000cdf 	bl	d07c <clean_reboot>
    9cfc:	0000e484 	.word	0x0000e484
    9d00:	0000e47c 	.word	0x0000e47c
    9d04:	0000e48c 	.word	0x0000e48c
    9d08:	0000e4a0 	.word	0x0000e4a0
    9d0c:	0000e4b4 	.word	0x0000e4b4
    9d10:	0000e4cc 	.word	0x0000e4cc
    9d14:	0000e4e0 	.word	0x0000e4e0
    9d18:	0000e4f4 	.word	0x0000e4f4
    9d1c:	0000e474 	.word	0x0000e474
    9d20:	0000e50c 	.word	0x0000e50c
    9d24:	0000e568 	.word	0x0000e568
    9d28:	0000e104 	.word	0x0000e104
    9d2c:	0000da34 	.word	0x0000da34

00009d30 <to_8dot3>:
    9d30:	e92d4010 	push	{r4, lr}
    9d34:	e1a04000 	mov	r4, r0
    9d38:	e3a02008 	mov	r2, #8, 0
    9d3c:	e1a01000 	mov	r1, r0
    9d40:	e59f0070 	ldr	r0, [pc, #112]	; 9db8 <to_8dot3+0x88>
    9d44:	eb000b3d 	bl	ca40 <memcpy>
    9d48:	e3a03007 	mov	r3, #7, 0
    9d4c:	ea000000 	b	9d54 <to_8dot3+0x24>
    9d50:	e2433001 	sub	r3, r3, #1, 0
    9d54:	e3530000 	cmp	r3, #0, 0
    9d58:	ba000004 	blt	9d70 <to_8dot3+0x40>
    9d5c:	e59f2054 	ldr	r2, [pc, #84]	; 9db8 <to_8dot3+0x88>
    9d60:	e7d22003 	ldrb	r2, [r2, r3]
    9d64:	e3520020 	cmp	r2, #32, 0
    9d68:	0afffff8 	beq	9d50 <to_8dot3+0x20>
    9d6c:	e2833001 	add	r3, r3, #1, 0
    9d70:	e2832001 	add	r2, r3, #1, 0
    9d74:	e59f103c 	ldr	r1, [pc, #60]	; 9db8 <to_8dot3+0x88>
    9d78:	e3a0002e 	mov	r0, #46, 0	; 0x2e
    9d7c:	e7c10003 	strb	r0, [r1, r3]
    9d80:	e3a03000 	mov	r3, #0, 0
    9d84:	e3530002 	cmp	r3, #2, 0
    9d88:	ca000006 	bgt	9da8 <to_8dot3+0x78>
    9d8c:	e0841003 	add	r1, r4, r3
    9d90:	e5d10008 	ldrb	r0, [r1, #8]
    9d94:	e59f101c 	ldr	r1, [pc, #28]	; 9db8 <to_8dot3+0x88>
    9d98:	e7c10002 	strb	r0, [r1, r2]
    9d9c:	e2833001 	add	r3, r3, #1, 0
    9da0:	e2822001 	add	r2, r2, #1, 0
    9da4:	eafffff6 	b	9d84 <to_8dot3+0x54>
    9da8:	e59f0008 	ldr	r0, [pc, #8]	; 9db8 <to_8dot3+0x88>
    9dac:	e3a03000 	mov	r3, #0, 0
    9db0:	e7c03002 	strb	r3, [r0, r2]
    9db4:	e8bd8010 	pop	{r4, pc}
    9db8:	0000ffc4 	.word	0x0000ffc4

00009dbc <add_nul>:
    9dbc:	e92d4070 	push	{r4, r5, r6, lr}
    9dc0:	e1a01000 	mov	r1, r0
    9dc4:	e59f501c 	ldr	r5, [pc, #28]	; 9de8 <add_nul+0x2c>
    9dc8:	e2854010 	add	r4, r5, #16, 0
    9dcc:	e3a0200b 	mov	r2, #11, 0
    9dd0:	e1a00004 	mov	r0, r4
    9dd4:	eb000b19 	bl	ca40 <memcpy>
    9dd8:	e3a03000 	mov	r3, #0, 0
    9ddc:	e5c5301b 	strb	r3, [r5, #27]
    9de0:	e1a00004 	mov	r0, r4
    9de4:	e8bd8070 	pop	{r4, r5, r6, pc}
    9de8:	0000ffc4 	.word	0x0000ffc4

00009dec <fat32_volume_id_check>:
    9dec:	e52de004 	push	{lr}		; (str lr, [sp, #-4]!)
    9df0:	e24dd00c 	sub	sp, sp, #12, 0
    9df4:	e5d0300b 	ldrb	r3, [r0, #11]
    9df8:	e5d0200c 	ldrb	r2, [r0, #12]
    9dfc:	e1833402 	orr	r3, r3, r2, lsl #8
    9e00:	e3530c02 	cmp	r3, #512	; 0x200
    9e04:	1a000035 	bne	9ee0 <fat32_volume_id_check+0xf4>
    9e08:	e5d02010 	ldrb	r2, [r0, #16]
    9e0c:	e3520002 	cmp	r2, #2, 0
    9e10:	1a00003a 	bne	9f00 <fat32_volume_id_check+0x114>
    9e14:	e5d021fe 	ldrb	r2, [r0, #510]	; 0x1fe
    9e18:	e5d011ff 	ldrb	r1, [r0, #511]	; 0x1ff
    9e1c:	e1822401 	orr	r2, r2, r1, lsl #8
    9e20:	e59f1238 	ldr	r1, [pc, #568]	; a060 <fat32_volume_id_check+0x274>
    9e24:	e1520001 	cmp	r2, r1
    9e28:	1a00003c 	bne	9f20 <fat32_volume_id_check+0x134>
    9e2c:	e5d0200d 	ldrb	r2, [r0, #13]
    9e30:	e2621000 	rsb	r1, r2, #0, 0
    9e34:	e1d22001 	bics	r2, r2, r1
    9e38:	1a000040 	bne	9f40 <fat32_volume_id_check+0x154>
    9e3c:	e3530b01 	cmp	r3, #1024	; 0x400
    9e40:	13530c02 	cmpne	r3, #512	; 0x200
    9e44:	0a000002 	beq	9e54 <fat32_volume_id_check+0x68>
    9e48:	e3530a01 	cmp	r3, #4096	; 0x1000
    9e4c:	13530b02 	cmpne	r3, #2048	; 0x800
    9e50:	1a000042 	bne	9f60 <fat32_volume_id_check+0x174>
    9e54:	e5d03011 	ldrb	r3, [r0, #17]
    9e58:	e5d02012 	ldrb	r2, [r0, #18]
    9e5c:	e1933402 	orrs	r3, r3, r2, lsl #8
    9e60:	1a000046 	bne	9f80 <fat32_volume_id_check+0x194>
    9e64:	e5d03013 	ldrb	r3, [r0, #19]
    9e68:	e5d02014 	ldrb	r2, [r0, #20]
    9e6c:	e1933402 	orrs	r3, r3, r2, lsl #8
    9e70:	1a00004a 	bne	9fa0 <fat32_volume_id_check+0x1b4>
    9e74:	e5d03016 	ldrb	r3, [r0, #22]
    9e78:	e5d02017 	ldrb	r2, [r0, #23]
    9e7c:	e1933402 	orrs	r3, r3, r2, lsl #8
    9e80:	1a00004e 	bne	9fc0 <fat32_volume_id_check+0x1d4>
    9e84:	e5d03020 	ldrb	r3, [r0, #32]
    9e88:	e5d02021 	ldrb	r2, [r0, #33]	; 0x21
    9e8c:	e1833402 	orr	r3, r3, r2, lsl #8
    9e90:	e5d02022 	ldrb	r2, [r0, #34]	; 0x22
    9e94:	e1833802 	orr	r3, r3, r2, lsl #16
    9e98:	e5d02023 	ldrb	r2, [r0, #35]	; 0x23
    9e9c:	e1933c02 	orrs	r3, r3, r2, lsl #24
    9ea0:	0a00004e 	beq	9fe0 <fat32_volume_id_check+0x1f4>
    9ea4:	e5d03030 	ldrb	r3, [r0, #48]	; 0x30
    9ea8:	e5d02031 	ldrb	r2, [r0, #49]	; 0x31
    9eac:	e1833402 	orr	r3, r3, r2, lsl #8
    9eb0:	e3530001 	cmp	r3, #1, 0
    9eb4:	1a000051 	bne	a000 <fat32_volume_id_check+0x214>
    9eb8:	e5d03032 	ldrb	r3, [r0, #50]	; 0x32
    9ebc:	e5d02033 	ldrb	r2, [r0, #51]	; 0x33
    9ec0:	e1833402 	orr	r3, r3, r2, lsl #8
    9ec4:	e3530006 	cmp	r3, #6, 0
    9ec8:	1a000054 	bne	a020 <fat32_volume_id_check+0x234>
    9ecc:	e5d03042 	ldrb	r3, [r0, #66]	; 0x42
    9ed0:	e3530029 	cmp	r3, #41, 0	; 0x29
    9ed4:	1a000059 	bne	a040 <fat32_volume_id_check+0x254>
    9ed8:	e28dd00c 	add	sp, sp, #12, 0
    9edc:	e49df004 	pop	{pc}		; (ldr pc, [sp], #4)
    9ee0:	e59f317c 	ldr	r3, [pc, #380]	; a064 <fat32_volume_id_check+0x278>
    9ee4:	e58d3000 	str	r3, [sp]
    9ee8:	e3a0300f 	mov	r3, #15, 0
    9eec:	e59f2174 	ldr	r2, [pc, #372]	; a068 <fat32_volume_id_check+0x27c>
    9ef0:	e59f1174 	ldr	r1, [pc, #372]	; a06c <fat32_volume_id_check+0x280>
    9ef4:	e59f0174 	ldr	r0, [pc, #372]	; a070 <fat32_volume_id_check+0x284>
    9ef8:	eb000b2f 	bl	cbbc <printk>
    9efc:	eb000c5e 	bl	d07c <clean_reboot>
    9f00:	e59f316c 	ldr	r3, [pc, #364]	; a074 <fat32_volume_id_check+0x288>
    9f04:	e58d3000 	str	r3, [sp]
    9f08:	e3a03010 	mov	r3, #16, 0
    9f0c:	e59f2154 	ldr	r2, [pc, #340]	; a068 <fat32_volume_id_check+0x27c>
    9f10:	e59f1154 	ldr	r1, [pc, #340]	; a06c <fat32_volume_id_check+0x280>
    9f14:	e59f0154 	ldr	r0, [pc, #340]	; a070 <fat32_volume_id_check+0x284>
    9f18:	eb000b27 	bl	cbbc <printk>
    9f1c:	eb000c56 	bl	d07c <clean_reboot>
    9f20:	e59f3150 	ldr	r3, [pc, #336]	; a078 <fat32_volume_id_check+0x28c>
    9f24:	e58d3000 	str	r3, [sp]
    9f28:	e3a03011 	mov	r3, #17, 0
    9f2c:	e59f2134 	ldr	r2, [pc, #308]	; a068 <fat32_volume_id_check+0x27c>
    9f30:	e59f1134 	ldr	r1, [pc, #308]	; a06c <fat32_volume_id_check+0x280>
    9f34:	e59f0134 	ldr	r0, [pc, #308]	; a070 <fat32_volume_id_check+0x284>
    9f38:	eb000b1f 	bl	cbbc <printk>
    9f3c:	eb000c4e 	bl	d07c <clean_reboot>
    9f40:	e59f3134 	ldr	r3, [pc, #308]	; a07c <fat32_volume_id_check+0x290>
    9f44:	e58d3000 	str	r3, [sp]
    9f48:	e3a03013 	mov	r3, #19, 0
    9f4c:	e59f2114 	ldr	r2, [pc, #276]	; a068 <fat32_volume_id_check+0x27c>
    9f50:	e59f1114 	ldr	r1, [pc, #276]	; a06c <fat32_volume_id_check+0x280>
    9f54:	e59f0114 	ldr	r0, [pc, #276]	; a070 <fat32_volume_id_check+0x284>
    9f58:	eb000b17 	bl	cbbc <printk>
    9f5c:	eb000c46 	bl	d07c <clean_reboot>
    9f60:	e59f3118 	ldr	r3, [pc, #280]	; a080 <fat32_volume_id_check+0x294>
    9f64:	e58d3000 	str	r3, [sp]
    9f68:	e3a03015 	mov	r3, #21, 0
    9f6c:	e59f20f4 	ldr	r2, [pc, #244]	; a068 <fat32_volume_id_check+0x27c>
    9f70:	e59f10f4 	ldr	r1, [pc, #244]	; a06c <fat32_volume_id_check+0x280>
    9f74:	e59f00f4 	ldr	r0, [pc, #244]	; a070 <fat32_volume_id_check+0x284>
    9f78:	eb000b0f 	bl	cbbc <printk>
    9f7c:	eb000c3e 	bl	d07c <clean_reboot>
    9f80:	e59f30fc 	ldr	r3, [pc, #252]	; a084 <fat32_volume_id_check+0x298>
    9f84:	e58d3000 	str	r3, [sp]
    9f88:	e3a03016 	mov	r3, #22, 0
    9f8c:	e59f20d4 	ldr	r2, [pc, #212]	; a068 <fat32_volume_id_check+0x27c>
    9f90:	e59f10d4 	ldr	r1, [pc, #212]	; a06c <fat32_volume_id_check+0x280>
    9f94:	e59f00d4 	ldr	r0, [pc, #212]	; a070 <fat32_volume_id_check+0x284>
    9f98:	eb000b07 	bl	cbbc <printk>
    9f9c:	eb000c36 	bl	d07c <clean_reboot>
    9fa0:	e59f30e0 	ldr	r3, [pc, #224]	; a088 <fat32_volume_id_check+0x29c>
    9fa4:	e58d3000 	str	r3, [sp]
    9fa8:	e3a03018 	mov	r3, #24, 0
    9fac:	e59f20b4 	ldr	r2, [pc, #180]	; a068 <fat32_volume_id_check+0x27c>
    9fb0:	e59f10b4 	ldr	r1, [pc, #180]	; a06c <fat32_volume_id_check+0x280>
    9fb4:	e59f00b4 	ldr	r0, [pc, #180]	; a070 <fat32_volume_id_check+0x284>
    9fb8:	eb000aff 	bl	cbbc <printk>
    9fbc:	eb000c2e 	bl	d07c <clean_reboot>
    9fc0:	e59f30c4 	ldr	r3, [pc, #196]	; a08c <fat32_volume_id_check+0x2a0>
    9fc4:	e58d3000 	str	r3, [sp]
    9fc8:	e3a0301b 	mov	r3, #27, 0
    9fcc:	e59f2094 	ldr	r2, [pc, #148]	; a068 <fat32_volume_id_check+0x27c>
    9fd0:	e59f1094 	ldr	r1, [pc, #148]	; a06c <fat32_volume_id_check+0x280>
    9fd4:	e59f0094 	ldr	r0, [pc, #148]	; a070 <fat32_volume_id_check+0x284>
    9fd8:	eb000af7 	bl	cbbc <printk>
    9fdc:	eb000c26 	bl	d07c <clean_reboot>
    9fe0:	e59f30a8 	ldr	r3, [pc, #168]	; a090 <fat32_volume_id_check+0x2a4>
    9fe4:	e58d3000 	str	r3, [sp]
    9fe8:	e3a0301c 	mov	r3, #28, 0
    9fec:	e59f2074 	ldr	r2, [pc, #116]	; a068 <fat32_volume_id_check+0x27c>
    9ff0:	e59f1074 	ldr	r1, [pc, #116]	; a06c <fat32_volume_id_check+0x280>
    9ff4:	e59f0074 	ldr	r0, [pc, #116]	; a070 <fat32_volume_id_check+0x284>
    9ff8:	eb000aef 	bl	cbbc <printk>
    9ffc:	eb000c1e 	bl	d07c <clean_reboot>
    a000:	e59f308c 	ldr	r3, [pc, #140]	; a094 <fat32_volume_id_check+0x2a8>
    a004:	e58d3000 	str	r3, [sp]
    a008:	e3a0301f 	mov	r3, #31, 0
    a00c:	e59f2054 	ldr	r2, [pc, #84]	; a068 <fat32_volume_id_check+0x27c>
    a010:	e59f1054 	ldr	r1, [pc, #84]	; a06c <fat32_volume_id_check+0x280>
    a014:	e59f0054 	ldr	r0, [pc, #84]	; a070 <fat32_volume_id_check+0x284>
    a018:	eb000ae7 	bl	cbbc <printk>
    a01c:	eb000c16 	bl	d07c <clean_reboot>
    a020:	e59f3070 	ldr	r3, [pc, #112]	; a098 <fat32_volume_id_check+0x2ac>
    a024:	e58d3000 	str	r3, [sp]
    a028:	e3a03020 	mov	r3, #32, 0
    a02c:	e59f2034 	ldr	r2, [pc, #52]	; a068 <fat32_volume_id_check+0x27c>
    a030:	e59f1034 	ldr	r1, [pc, #52]	; a06c <fat32_volume_id_check+0x280>
    a034:	e59f0034 	ldr	r0, [pc, #52]	; a070 <fat32_volume_id_check+0x284>
    a038:	eb000adf 	bl	cbbc <printk>
    a03c:	eb000c0e 	bl	d07c <clean_reboot>
    a040:	e59f3054 	ldr	r3, [pc, #84]	; a09c <fat32_volume_id_check+0x2b0>
    a044:	e58d3000 	str	r3, [sp]
    a048:	e3a03021 	mov	r3, #33, 0	; 0x21
    a04c:	e59f2014 	ldr	r2, [pc, #20]	; a068 <fat32_volume_id_check+0x27c>
    a050:	e59f1014 	ldr	r1, [pc, #20]	; a06c <fat32_volume_id_check+0x280>
    a054:	e59f0014 	ldr	r0, [pc, #20]	; a070 <fat32_volume_id_check+0x284>
    a058:	eb000ad7 	bl	cbbc <printk>
    a05c:	eb000c06 	bl	d07c <clean_reboot>
    a060:	0000aa55 	.word	0x0000aa55
    a064:	0000e58c 	.word	0x0000e58c
    a068:	0000ecec 	.word	0x0000ecec
    a06c:	0000e57c 	.word	0x0000e57c
    a070:	0000da34 	.word	0x0000da34
    a074:	0000e5a4 	.word	0x0000e5a4
    a078:	0000e5b4 	.word	0x0000e5b4
    a07c:	0000e5c8 	.word	0x0000e5c8
    a080:	0000e5e4 	.word	0x0000e5e4
    a084:	0000e614 	.word	0x0000e614
    a088:	0000e624 	.word	0x0000e624
    a08c:	0000e634 	.word	0x0000e634
    a090:	0000e644 	.word	0x0000e644
    a094:	0000e658 	.word	0x0000e658
    a098:	0000e670 	.word	0x0000e670
    a09c:	0000e688 	.word	0x0000e688

0000a0a0 <fat32_volume_id_print>:
    a0a0:	e92d4030 	push	{r4, r5, lr}
    a0a4:	e24dd02c 	sub	sp, sp, #44, 0	; 0x2c
    a0a8:	e1a04001 	mov	r4, r1
    a0ac:	e1a01000 	mov	r1, r0
    a0b0:	e59f0240 	ldr	r0, [pc, #576]	; a2f8 <fat32_volume_id_print+0x258>
    a0b4:	eb000ac0 	bl	cbbc <printk>
    a0b8:	e3a02008 	mov	r2, #8, 0
    a0bc:	e2841003 	add	r1, r4, #3, 0
    a0c0:	e28d001c 	add	r0, sp, #28, 0
    a0c4:	eb000a5d 	bl	ca40 <memcpy>
    a0c8:	e3a05000 	mov	r5, #0, 0
    a0cc:	e5cd5024 	strb	r5, [sp, #36]	; 0x24
    a0d0:	e3a0200b 	mov	r2, #11, 0
    a0d4:	e2841047 	add	r1, r4, #71, 0	; 0x47
    a0d8:	e28d0010 	add	r0, sp, #16, 0
    a0dc:	eb000a57 	bl	ca40 <memcpy>
    a0e0:	e5cd5027 	strb	r5, [sp, #39]	; 0x27
    a0e4:	e3a02008 	mov	r2, #8, 0
    a0e8:	e2841052 	add	r1, r4, #82, 0	; 0x52
    a0ec:	e28d0004 	add	r0, sp, #4, 0
    a0f0:	eb000a52 	bl	ca40 <memcpy>
    a0f4:	e5cd500c 	strb	r5, [sp, #12]
    a0f8:	e28d101c 	add	r1, sp, #28, 0
    a0fc:	e59f01f8 	ldr	r0, [pc, #504]	; a2fc <fat32_volume_id_print+0x25c>
    a100:	eb000aad 	bl	cbbc <printk>
    a104:	e5d4300b 	ldrb	r3, [r4, #11]
    a108:	e5d4100c 	ldrb	r1, [r4, #12]
    a10c:	e1831401 	orr	r1, r3, r1, lsl #8
    a110:	e59f01e8 	ldr	r0, [pc, #488]	; a300 <fat32_volume_id_print+0x260>
    a114:	eb000aa8 	bl	cbbc <printk>
    a118:	e5d4100d 	ldrb	r1, [r4, #13]
    a11c:	e59f01e0 	ldr	r0, [pc, #480]	; a304 <fat32_volume_id_print+0x264>
    a120:	eb000aa5 	bl	cbbc <printk>
    a124:	e5d4300e 	ldrb	r3, [r4, #14]
    a128:	e5d4100f 	ldrb	r1, [r4, #15]
    a12c:	e1831401 	orr	r1, r3, r1, lsl #8
    a130:	e59f01d0 	ldr	r0, [pc, #464]	; a308 <fat32_volume_id_print+0x268>
    a134:	eb000aa0 	bl	cbbc <printk>
    a138:	e5d41010 	ldrb	r1, [r4, #16]
    a13c:	e59f01c8 	ldr	r0, [pc, #456]	; a30c <fat32_volume_id_print+0x26c>
    a140:	eb000a9d 	bl	cbbc <printk>
    a144:	e5d43011 	ldrb	r3, [r4, #17]
    a148:	e5d41012 	ldrb	r1, [r4, #18]
    a14c:	e1831401 	orr	r1, r3, r1, lsl #8
    a150:	e59f01b8 	ldr	r0, [pc, #440]	; a310 <fat32_volume_id_print+0x270>
    a154:	eb000a98 	bl	cbbc <printk>
    a158:	e5d43013 	ldrb	r3, [r4, #19]
    a15c:	e5d41014 	ldrb	r1, [r4, #20]
    a160:	e1831401 	orr	r1, r3, r1, lsl #8
    a164:	e59f01a8 	ldr	r0, [pc, #424]	; a314 <fat32_volume_id_print+0x274>
    a168:	eb000a93 	bl	cbbc <printk>
    a16c:	e5d41015 	ldrb	r1, [r4, #21]
    a170:	e59f01a0 	ldr	r0, [pc, #416]	; a318 <fat32_volume_id_print+0x278>
    a174:	eb000a90 	bl	cbbc <printk>
    a178:	e5d43018 	ldrb	r3, [r4, #24]
    a17c:	e5d41019 	ldrb	r1, [r4, #25]
    a180:	e1831401 	orr	r1, r3, r1, lsl #8
    a184:	e59f0190 	ldr	r0, [pc, #400]	; a31c <fat32_volume_id_print+0x27c>
    a188:	eb000a8b 	bl	cbbc <printk>
    a18c:	e5d4301a 	ldrb	r3, [r4, #26]
    a190:	e5d4101b 	ldrb	r1, [r4, #27]
    a194:	e1831401 	orr	r1, r3, r1, lsl #8
    a198:	e59f0180 	ldr	r0, [pc, #384]	; a320 <fat32_volume_id_print+0x280>
    a19c:	eb000a86 	bl	cbbc <printk>
    a1a0:	e5d4301c 	ldrb	r3, [r4, #28]
    a1a4:	e5d4101d 	ldrb	r1, [r4, #29]
    a1a8:	e1833401 	orr	r3, r3, r1, lsl #8
    a1ac:	e5d4101e 	ldrb	r1, [r4, #30]
    a1b0:	e1833801 	orr	r3, r3, r1, lsl #16
    a1b4:	e5d4101f 	ldrb	r1, [r4, #31]
    a1b8:	e1831c01 	orr	r1, r3, r1, lsl #24
    a1bc:	e59f0160 	ldr	r0, [pc, #352]	; a324 <fat32_volume_id_print+0x284>
    a1c0:	eb000a7d 	bl	cbbc <printk>
    a1c4:	e5d43020 	ldrb	r3, [r4, #32]
    a1c8:	e5d41021 	ldrb	r1, [r4, #33]	; 0x21
    a1cc:	e1833401 	orr	r3, r3, r1, lsl #8
    a1d0:	e5d41022 	ldrb	r1, [r4, #34]	; 0x22
    a1d4:	e1833801 	orr	r3, r3, r1, lsl #16
    a1d8:	e5d41023 	ldrb	r1, [r4, #35]	; 0x23
    a1dc:	e1831c01 	orr	r1, r3, r1, lsl #24
    a1e0:	e59f0140 	ldr	r0, [pc, #320]	; a328 <fat32_volume_id_print+0x288>
    a1e4:	eb000a74 	bl	cbbc <printk>
    a1e8:	e5d43024 	ldrb	r3, [r4, #36]	; 0x24
    a1ec:	e5d41025 	ldrb	r1, [r4, #37]	; 0x25
    a1f0:	e1833401 	orr	r3, r3, r1, lsl #8
    a1f4:	e5d41026 	ldrb	r1, [r4, #38]	; 0x26
    a1f8:	e1833801 	orr	r3, r3, r1, lsl #16
    a1fc:	e5d41027 	ldrb	r1, [r4, #39]	; 0x27
    a200:	e1831c01 	orr	r1, r3, r1, lsl #24
    a204:	e59f0120 	ldr	r0, [pc, #288]	; a32c <fat32_volume_id_print+0x28c>
    a208:	eb000a6b 	bl	cbbc <printk>
    a20c:	e5d43028 	ldrb	r3, [r4, #40]	; 0x28
    a210:	e5d41029 	ldrb	r1, [r4, #41]	; 0x29
    a214:	e1831401 	orr	r1, r3, r1, lsl #8
    a218:	e59f0110 	ldr	r0, [pc, #272]	; a330 <fat32_volume_id_print+0x290>
    a21c:	eb000a66 	bl	cbbc <printk>
    a220:	e5d4302a 	ldrb	r3, [r4, #42]	; 0x2a
    a224:	e5d4102b 	ldrb	r1, [r4, #43]	; 0x2b
    a228:	e1831401 	orr	r1, r3, r1, lsl #8
    a22c:	e59f0100 	ldr	r0, [pc, #256]	; a334 <fat32_volume_id_print+0x294>
    a230:	eb000a61 	bl	cbbc <printk>
    a234:	e5d4302c 	ldrb	r3, [r4, #44]	; 0x2c
    a238:	e5d4102d 	ldrb	r1, [r4, #45]	; 0x2d
    a23c:	e1833401 	orr	r3, r3, r1, lsl #8
    a240:	e5d4102e 	ldrb	r1, [r4, #46]	; 0x2e
    a244:	e1833801 	orr	r3, r3, r1, lsl #16
    a248:	e5d4102f 	ldrb	r1, [r4, #47]	; 0x2f
    a24c:	e1831c01 	orr	r1, r3, r1, lsl #24
    a250:	e59f00e0 	ldr	r0, [pc, #224]	; a338 <fat32_volume_id_print+0x298>
    a254:	eb000a58 	bl	cbbc <printk>
    a258:	e5d43030 	ldrb	r3, [r4, #48]	; 0x30
    a25c:	e5d41031 	ldrb	r1, [r4, #49]	; 0x31
    a260:	e1831401 	orr	r1, r3, r1, lsl #8
    a264:	e59f00d0 	ldr	r0, [pc, #208]	; a33c <fat32_volume_id_print+0x29c>
    a268:	eb000a53 	bl	cbbc <printk>
    a26c:	e5d43032 	ldrb	r3, [r4, #50]	; 0x32
    a270:	e5d41033 	ldrb	r1, [r4, #51]	; 0x33
    a274:	e1831401 	orr	r1, r3, r1, lsl #8
    a278:	e59f00c0 	ldr	r0, [pc, #192]	; a340 <fat32_volume_id_print+0x2a0>
    a27c:	eb000a4e 	bl	cbbc <printk>
    a280:	e5d41040 	ldrb	r1, [r4, #64]	; 0x40
    a284:	e59f00b8 	ldr	r0, [pc, #184]	; a344 <fat32_volume_id_print+0x2a4>
    a288:	eb000a4b 	bl	cbbc <printk>
    a28c:	e5d41042 	ldrb	r1, [r4, #66]	; 0x42
    a290:	e59f00b0 	ldr	r0, [pc, #176]	; a348 <fat32_volume_id_print+0x2a8>
    a294:	eb000a48 	bl	cbbc <printk>
    a298:	e5d43043 	ldrb	r3, [r4, #67]	; 0x43
    a29c:	e5d41044 	ldrb	r1, [r4, #68]	; 0x44
    a2a0:	e1833401 	orr	r3, r3, r1, lsl #8
    a2a4:	e5d41045 	ldrb	r1, [r4, #69]	; 0x45
    a2a8:	e1833801 	orr	r3, r3, r1, lsl #16
    a2ac:	e5d41046 	ldrb	r1, [r4, #70]	; 0x46
    a2b0:	e1831c01 	orr	r1, r3, r1, lsl #24
    a2b4:	e59f0090 	ldr	r0, [pc, #144]	; a34c <fat32_volume_id_print+0x2ac>
    a2b8:	eb000a3f 	bl	cbbc <printk>
    a2bc:	e28d1010 	add	r1, sp, #16, 0
    a2c0:	e59f0088 	ldr	r0, [pc, #136]	; a350 <fat32_volume_id_print+0x2b0>
    a2c4:	eb000a3c 	bl	cbbc <printk>
    a2c8:	e28d1004 	add	r1, sp, #4, 0
    a2cc:	e59f0080 	ldr	r0, [pc, #128]	; a354 <fat32_volume_id_print+0x2b4>
    a2d0:	eb000a39 	bl	cbbc <printk>
    a2d4:	e5d431fe 	ldrb	r3, [r4, #510]	; 0x1fe
    a2d8:	e5d411ff 	ldrb	r1, [r4, #511]	; 0x1ff
    a2dc:	e1831401 	orr	r1, r3, r1, lsl #8
    a2e0:	e59f0070 	ldr	r0, [pc, #112]	; a358 <fat32_volume_id_print+0x2b8>
    a2e4:	eb000a34 	bl	cbbc <printk>
    a2e8:	e1a00004 	mov	r0, r4
    a2ec:	ebfffebe 	bl	9dec <fat32_volume_id_check>
    a2f0:	e28dd02c 	add	sp, sp, #44, 0	; 0x2c
    a2f4:	e8bd8030 	pop	{r4, r5, pc}
    a2f8:	0000e484 	.word	0x0000e484
    a2fc:	0000e6a0 	.word	0x0000e6a0
    a300:	0000e6bc 	.word	0x0000e6bc
    a304:	0000e6d8 	.word	0x0000e6d8
    a308:	0000e6f4 	.word	0x0000e6f4
    a30c:	0000e710 	.word	0x0000e710
    a310:	0000e72c 	.word	0x0000e72c
    a314:	0000e748 	.word	0x0000e748
    a318:	0000e764 	.word	0x0000e764
    a31c:	0000e780 	.word	0x0000e780
    a320:	0000e79c 	.word	0x0000e79c
    a324:	0000e7b8 	.word	0x0000e7b8
    a328:	0000e7d4 	.word	0x0000e7d4
    a32c:	0000e7f0 	.word	0x0000e7f0
    a330:	0000e80c 	.word	0x0000e80c
    a334:	0000e828 	.word	0x0000e828
    a338:	0000e844 	.word	0x0000e844
    a33c:	0000e860 	.word	0x0000e860
    a340:	0000e87c 	.word	0x0000e87c
    a344:	0000e898 	.word	0x0000e898
    a348:	0000e8b4 	.word	0x0000e8b4
    a34c:	0000e8d0 	.word	0x0000e8d0
    a350:	0000e8ec 	.word	0x0000e8ec
    a354:	0000e908 	.word	0x0000e908
    a358:	0000e924 	.word	0x0000e924

0000a35c <fat32_fsinfo_print>:
    a35c:	e92d4010 	push	{r4, lr}
    a360:	e1a04001 	mov	r4, r1
    a364:	e1a01000 	mov	r1, r0
    a368:	e59f0040 	ldr	r0, [pc, #64]	; a3b0 <fat32_fsinfo_print+0x54>
    a36c:	eb000a12 	bl	cbbc <printk>
    a370:	e5941000 	ldr	r1, [r4]
    a374:	e59f0038 	ldr	r0, [pc, #56]	; a3b4 <fat32_fsinfo_print+0x58>
    a378:	eb000a0f 	bl	cbbc <printk>
    a37c:	e59411e4 	ldr	r1, [r4, #484]	; 0x1e4
    a380:	e59f0030 	ldr	r0, [pc, #48]	; a3b8 <fat32_fsinfo_print+0x5c>
    a384:	eb000a0c 	bl	cbbc <printk>
    a388:	e59411fc 	ldr	r1, [r4, #508]	; 0x1fc
    a38c:	e59f0028 	ldr	r0, [pc, #40]	; a3bc <fat32_fsinfo_print+0x60>
    a390:	eb000a09 	bl	cbbc <printk>
    a394:	e59411e8 	ldr	r1, [r4, #488]	; 0x1e8
    a398:	e59f0020 	ldr	r0, [pc, #32]	; a3c0 <fat32_fsinfo_print+0x64>
    a39c:	eb000a06 	bl	cbbc <printk>
    a3a0:	e59411ec 	ldr	r1, [r4, #492]	; 0x1ec
    a3a4:	e59f0018 	ldr	r0, [pc, #24]	; a3c4 <fat32_fsinfo_print+0x68>
    a3a8:	eb000a03 	bl	cbbc <printk>
    a3ac:	e8bd8010 	pop	{r4, pc}
    a3b0:	0000e484 	.word	0x0000e484
    a3b4:	0000e940 	.word	0x0000e940
    a3b8:	0000e95c 	.word	0x0000e95c
    a3bc:	0000e978 	.word	0x0000e978
    a3c0:	0000e994 	.word	0x0000e994
    a3c4:	0000e9b0 	.word	0x0000e9b0

0000a3c8 <fat32_fsinfo_check>:
    a3c8:	e52de004 	push	{lr}		; (str lr, [sp, #-4]!)
    a3cc:	e24dd00c 	sub	sp, sp, #12, 0
    a3d0:	e5902000 	ldr	r2, [r0]
    a3d4:	e59f308c 	ldr	r3, [pc, #140]	; a468 <fat32_fsinfo_check+0xa0>
    a3d8:	e1520003 	cmp	r2, r3
    a3dc:	1a000009 	bne	a408 <fat32_fsinfo_check+0x40>
    a3e0:	e59021e4 	ldr	r2, [r0, #484]	; 0x1e4
    a3e4:	e59f3080 	ldr	r3, [pc, #128]	; a46c <fat32_fsinfo_check+0xa4>
    a3e8:	e1520003 	cmp	r2, r3
    a3ec:	1a00000d 	bne	a428 <fat32_fsinfo_check+0x60>
    a3f0:	e59021fc 	ldr	r2, [r0, #508]	; 0x1fc
    a3f4:	e59f3074 	ldr	r3, [pc, #116]	; a470 <fat32_fsinfo_check+0xa8>
    a3f8:	e1520003 	cmp	r2, r3
    a3fc:	1a000011 	bne	a448 <fat32_fsinfo_check+0x80>
    a400:	e28dd00c 	add	sp, sp, #12, 0
    a404:	e49df004 	pop	{pc}		; (ldr pc, [sp], #4)
    a408:	e59f3064 	ldr	r3, [pc, #100]	; a474 <fat32_fsinfo_check+0xac>
    a40c:	e58d3000 	str	r3, [sp]
    a410:	e3a03057 	mov	r3, #87, 0	; 0x57
    a414:	e59f205c 	ldr	r2, [pc, #92]	; a478 <fat32_fsinfo_check+0xb0>
    a418:	e59f105c 	ldr	r1, [pc, #92]	; a47c <fat32_fsinfo_check+0xb4>
    a41c:	e59f005c 	ldr	r0, [pc, #92]	; a480 <fat32_fsinfo_check+0xb8>
    a420:	eb0009e5 	bl	cbbc <printk>
    a424:	eb000b14 	bl	d07c <clean_reboot>
    a428:	e59f3054 	ldr	r3, [pc, #84]	; a484 <fat32_fsinfo_check+0xbc>
    a42c:	e58d3000 	str	r3, [sp]
    a430:	e3a03058 	mov	r3, #88, 0	; 0x58
    a434:	e59f203c 	ldr	r2, [pc, #60]	; a478 <fat32_fsinfo_check+0xb0>
    a438:	e59f103c 	ldr	r1, [pc, #60]	; a47c <fat32_fsinfo_check+0xb4>
    a43c:	e59f003c 	ldr	r0, [pc, #60]	; a480 <fat32_fsinfo_check+0xb8>
    a440:	eb0009dd 	bl	cbbc <printk>
    a444:	eb000b0c 	bl	d07c <clean_reboot>
    a448:	e59f3038 	ldr	r3, [pc, #56]	; a488 <fat32_fsinfo_check+0xc0>
    a44c:	e58d3000 	str	r3, [sp]
    a450:	e3a03059 	mov	r3, #89, 0	; 0x59
    a454:	e59f201c 	ldr	r2, [pc, #28]	; a478 <fat32_fsinfo_check+0xb0>
    a458:	e59f101c 	ldr	r1, [pc, #28]	; a47c <fat32_fsinfo_check+0xb4>
    a45c:	e59f001c 	ldr	r0, [pc, #28]	; a480 <fat32_fsinfo_check+0xb8>
    a460:	eb0009d5 	bl	cbbc <printk>
    a464:	eb000b04 	bl	d07c <clean_reboot>
    a468:	41615252 	.word	0x41615252
    a46c:	61417272 	.word	0x61417272
    a470:	aa550000 	.word	0xaa550000
    a474:	0000e9cc 	.word	0x0000e9cc
    a478:	0000ed04 	.word	0x0000ed04
    a47c:	0000e57c 	.word	0x0000e57c
    a480:	0000da34 	.word	0x0000da34
    a484:	0000e9e8 	.word	0x0000e9e8
    a488:	0000ea04 	.word	0x0000ea04

0000a48c <fat32_fat_entry_type_str>:
    a48c:	e370029f 	cmn	r0, #-268435447	; 0xf0000009
    a490:	0a000015 	beq	a4ec <fat32_fat_entry_type_str+0x60>
    a494:	8a000005 	bhi	a4b0 <fat32_fat_entry_type_str+0x24>
    a498:	e3500000 	cmp	r0, #0, 0
    a49c:	0a000014 	beq	a4f4 <fat32_fat_entry_type_str+0x68>
    a4a0:	e3500001 	cmp	r0, #1, 0
    a4a4:	1a000007 	bne	a4c8 <fat32_fat_entry_type_str+0x3c>
    a4a8:	e59f0054 	ldr	r0, [pc, #84]	; a504 <fat32_fat_entry_type_str+0x78>
    a4ac:	e12fff1e 	bx	lr
    a4b0:	e370028f 	cmn	r0, #-268435448	; 0xf0000008
    a4b4:	0a000010 	beq	a4fc <fat32_fat_entry_type_str+0x70>
    a4b8:	e370027f 	cmn	r0, #-268435449	; 0xf0000007
    a4bc:	1a000001 	bne	a4c8 <fat32_fat_entry_type_str+0x3c>
    a4c0:	e59f0040 	ldr	r0, [pc, #64]	; a508 <fat32_fat_entry_type_str+0x7c>
    a4c4:	e12fff1e 	bx	lr
    a4c8:	e52de004 	push	{lr}		; (str lr, [sp, #-4]!)
    a4cc:	e24dd00c 	sub	sp, sp, #12, 0
    a4d0:	e58d0000 	str	r0, [sp]
    a4d4:	e3a03067 	mov	r3, #103, 0	; 0x67
    a4d8:	e59f202c 	ldr	r2, [pc, #44]	; a50c <fat32_fat_entry_type_str+0x80>
    a4dc:	e59f102c 	ldr	r1, [pc, #44]	; a510 <fat32_fat_entry_type_str+0x84>
    a4e0:	e59f002c 	ldr	r0, [pc, #44]	; a514 <fat32_fat_entry_type_str+0x88>
    a4e4:	eb0009b4 	bl	cbbc <printk>
    a4e8:	eb000ae3 	bl	d07c <clean_reboot>
    a4ec:	e59f0024 	ldr	r0, [pc, #36]	; a518 <fat32_fat_entry_type_str+0x8c>
    a4f0:	e12fff1e 	bx	lr
    a4f4:	e59f0020 	ldr	r0, [pc, #32]	; a51c <fat32_fat_entry_type_str+0x90>
    a4f8:	e12fff1e 	bx	lr
    a4fc:	e59f001c 	ldr	r0, [pc, #28]	; a520 <fat32_fat_entry_type_str+0x94>
    a500:	e12fff1e 	bx	lr
    a504:	0000ea4c 	.word	0x0000ea4c
    a508:	0000ea60 	.word	0x0000ea60
    a50c:	0000ed18 	.word	0x0000ed18
    a510:	0000e57c 	.word	0x0000e57c
    a514:	0000ea70 	.word	0x0000ea70
    a518:	0000ea20 	.word	0x0000ea20
    a51c:	0000ea2c 	.word	0x0000ea2c
    a520:	0000ea3c 	.word	0x0000ea3c

0000a524 <fat32_fat_entry_type>:
    a524:	e3c0020f 	bic	r0, r0, #-268435456	; 0xf0000000
    a528:	e3500001 	cmp	r0, #1, 0
    a52c:	912fff1e 	bxls	lr
    a530:	e370029f 	cmn	r0, #-268435447	; 0xf0000009
    a534:	012fff1e 	bxeq	lr
    a538:	e2402002 	sub	r2, r0, #2, 0
    a53c:	e59f3074 	ldr	r3, [pc, #116]	; a5b8 <fat32_fat_entry_type+0x94>
    a540:	e1520003 	cmp	r2, r3
    a544:	9a000019 	bls	a5b0 <fat32_fat_entry_type+0x8c>
    a548:	e52de004 	push	{lr}		; (str lr, [sp, #-4]!)
    a54c:	e24dd00c 	sub	sp, sp, #12, 0
    a550:	e280320f 	add	r3, r0, #-268435456	; 0xf0000000
    a554:	e2833010 	add	r3, r3, #16, 0
    a558:	e3530006 	cmp	r3, #6, 0
    a55c:	9a000005 	bls	a578 <fat32_fat_entry_type+0x54>
    a560:	e280328f 	add	r3, r0, #-268435448	; 0xf0000008
    a564:	e3530007 	cmp	r3, #7, 0
    a568:	8a000009 	bhi	a594 <fat32_fat_entry_type+0x70>
    a56c:	e3e0027f 	mvn	r0, #-268435449	; 0xf0000007
    a570:	e28dd00c 	add	sp, sp, #12, 0
    a574:	e49df004 	pop	{pc}		; (ldr pc, [sp], #4)
    a578:	e58d0000 	str	r0, [sp]
    a57c:	e3a03077 	mov	r3, #119, 0	; 0x77
    a580:	e59f2034 	ldr	r2, [pc, #52]	; a5bc <fat32_fat_entry_type+0x98>
    a584:	e59f1034 	ldr	r1, [pc, #52]	; a5c0 <fat32_fat_entry_type+0x9c>
    a588:	e59f0034 	ldr	r0, [pc, #52]	; a5c4 <fat32_fat_entry_type+0xa0>
    a58c:	eb00098a 	bl	cbbc <printk>
    a590:	eb000ab9 	bl	d07c <clean_reboot>
    a594:	e58d0000 	str	r0, [sp]
    a598:	e3a0307a 	mov	r3, #122, 0	; 0x7a
    a59c:	e59f2018 	ldr	r2, [pc, #24]	; a5bc <fat32_fat_entry_type+0x98>
    a5a0:	e59f1018 	ldr	r1, [pc, #24]	; a5c0 <fat32_fat_entry_type+0x9c>
    a5a4:	e59f001c 	ldr	r0, [pc, #28]	; a5c8 <fat32_fat_entry_type+0xa4>
    a5a8:	eb000983 	bl	cbbc <printk>
    a5ac:	eb000ab2 	bl	d07c <clean_reboot>
    a5b0:	e3e0026f 	mvn	r0, #-268435450	; 0xf0000006
    a5b4:	e12fff1e 	bx	lr
    a5b8:	0fffffed 	.word	0x0fffffed
    a5bc:	0000ed34 	.word	0x0000ed34
    a5c0:	0000e57c 	.word	0x0000e57c
    a5c4:	0000ea90 	.word	0x0000ea90
    a5c8:	0000eab4 	.word	0x0000eab4

0000a5cc <fat32_dirent_free>:
    a5cc:	e5d03000 	ldrb	r3, [r0]
    a5d0:	e5d0200b 	ldrb	r2, [r0, #11]
    a5d4:	e352000f 	cmp	r2, #15, 0
    a5d8:	0a000005 	beq	a5f4 <fat32_dirent_free+0x28>
    a5dc:	e35300e5 	cmp	r3, #229, 0	; 0xe5
    a5e0:	13a00000 	movne	r0, #0, 0
    a5e4:	03a00001 	moveq	r0, #1, 0
    a5e8:	e3530000 	cmp	r3, #0, 0
    a5ec:	03a00001 	moveq	r0, #1, 0
    a5f0:	e12fff1e 	bx	lr
    a5f4:	e92d4010 	push	{r4, lr}
    a5f8:	eb00024f 	bl	af3c <fat32_dirent_is_deleted_lfn>
    a5fc:	e8bd8010 	pop	{r4, pc}

0000a600 <fat32_dir_attr_str>:
    a600:	e350000f 	cmp	r0, #15, 0
    a604:	0a000063 	beq	a798 <fat32_dir_attr_str+0x198>
    a608:	e92d4010 	push	{r4, lr}
    a60c:	e24dd008 	sub	sp, sp, #8, 0
    a610:	e1a04000 	mov	r4, r0
    a614:	e59f3184 	ldr	r3, [pc, #388]	; a7a0 <fat32_dir_attr_str+0x1a0>
    a618:	e3a02000 	mov	r2, #0, 0
    a61c:	e5c32020 	strb	r2, [r3, #32]
    a620:	0a00002a 	beq	a6d0 <fat32_dir_attr_str+0xd0>
    a624:	e2003001 	and	r3, r0, #1, 0
    a628:	e3530000 	cmp	r3, #0, 0
    a62c:	1a00002b 	bne	a6e0 <fat32_dir_attr_str+0xe0>
    a630:	e354000f 	cmp	r4, #15, 0
    a634:	0a00002e 	beq	a6f4 <fat32_dir_attr_str+0xf4>
    a638:	e3140002 	tst	r4, #2, 0
    a63c:	13a03001 	movne	r3, #1, 0
    a640:	03a03000 	moveq	r3, #0, 0
    a644:	e3530000 	cmp	r3, #0, 0
    a648:	1a00002d 	bne	a704 <fat32_dir_attr_str+0x104>
    a64c:	e2443004 	sub	r3, r4, #4, 0
    a650:	e353001c 	cmp	r3, #28, 0
    a654:	979ff103 	ldrls	pc, [pc, r3, lsl #2]
    a658:	ea000047 	b	a77c <fat32_dir_attr_str+0x17c>
    a65c:	0000a718 	.word	0x0000a718
    a660:	0000a77c 	.word	0x0000a77c
    a664:	0000a77c 	.word	0x0000a77c
    a668:	0000a77c 	.word	0x0000a77c
    a66c:	0000a734 	.word	0x0000a734
    a670:	0000a77c 	.word	0x0000a77c
    a674:	0000a77c 	.word	0x0000a77c
    a678:	0000a77c 	.word	0x0000a77c
    a67c:	0000a77c 	.word	0x0000a77c
    a680:	0000a77c 	.word	0x0000a77c
    a684:	0000a77c 	.word	0x0000a77c
    a688:	0000a77c 	.word	0x0000a77c
    a68c:	0000a74c 	.word	0x0000a74c
    a690:	0000a77c 	.word	0x0000a77c
    a694:	0000a77c 	.word	0x0000a77c
    a698:	0000a77c 	.word	0x0000a77c
    a69c:	0000a77c 	.word	0x0000a77c
    a6a0:	0000a77c 	.word	0x0000a77c
    a6a4:	0000a77c 	.word	0x0000a77c
    a6a8:	0000a77c 	.word	0x0000a77c
    a6ac:	0000a77c 	.word	0x0000a77c
    a6b0:	0000a77c 	.word	0x0000a77c
    a6b4:	0000a77c 	.word	0x0000a77c
    a6b8:	0000a77c 	.word	0x0000a77c
    a6bc:	0000a77c 	.word	0x0000a77c
    a6c0:	0000a77c 	.word	0x0000a77c
    a6c4:	0000a77c 	.word	0x0000a77c
    a6c8:	0000a77c 	.word	0x0000a77c
    a6cc:	0000a764 	.word	0x0000a764
    a6d0:	e3500001 	cmp	r0, #1, 0
    a6d4:	13a03000 	movne	r3, #0, 0
    a6d8:	03a03001 	moveq	r3, #1, 0
    a6dc:	eaffffd1 	b	a628 <fat32_dir_attr_str+0x28>
    a6e0:	e59f10bc 	ldr	r1, [pc, #188]	; a7a4 <fat32_dir_attr_str+0x1a4>
    a6e4:	e59f00bc 	ldr	r0, [pc, #188]	; a7a8 <fat32_dir_attr_str+0x1a8>
    a6e8:	eb000a3c 	bl	cfe0 <strcat>
    a6ec:	e3c44001 	bic	r4, r4, #1, 0
    a6f0:	eaffffce 	b	a630 <fat32_dir_attr_str+0x30>
    a6f4:	e3540002 	cmp	r4, #2, 0
    a6f8:	13a03000 	movne	r3, #0, 0
    a6fc:	03a03001 	moveq	r3, #1, 0
    a700:	eaffffcf 	b	a644 <fat32_dir_attr_str+0x44>
    a704:	e59f10a0 	ldr	r1, [pc, #160]	; a7ac <fat32_dir_attr_str+0x1ac>
    a708:	e59f0098 	ldr	r0, [pc, #152]	; a7a8 <fat32_dir_attr_str+0x1a8>
    a70c:	eb000a33 	bl	cfe0 <strcat>
    a710:	e3c44002 	bic	r4, r4, #2, 0
    a714:	eaffffcc 	b	a64c <fat32_dir_attr_str+0x4c>
    a718:	e59f4088 	ldr	r4, [pc, #136]	; a7a8 <fat32_dir_attr_str+0x1a8>
    a71c:	e59f108c 	ldr	r1, [pc, #140]	; a7b0 <fat32_dir_attr_str+0x1b0>
    a720:	e1a00004 	mov	r0, r4
    a724:	eb000a2d 	bl	cfe0 <strcat>
    a728:	e1a00004 	mov	r0, r4
    a72c:	e28dd008 	add	sp, sp, #8, 0
    a730:	e8bd8010 	pop	{r4, pc}
    a734:	e59f406c 	ldr	r4, [pc, #108]	; a7a8 <fat32_dir_attr_str+0x1a8>
    a738:	e59f1074 	ldr	r1, [pc, #116]	; a7b4 <fat32_dir_attr_str+0x1b4>
    a73c:	e1a00004 	mov	r0, r4
    a740:	eb000a26 	bl	cfe0 <strcat>
    a744:	e1a00004 	mov	r0, r4
    a748:	eafffff7 	b	a72c <fat32_dir_attr_str+0x12c>
    a74c:	e59f4054 	ldr	r4, [pc, #84]	; a7a8 <fat32_dir_attr_str+0x1a8>
    a750:	e59f1060 	ldr	r1, [pc, #96]	; a7b8 <fat32_dir_attr_str+0x1b8>
    a754:	e1a00004 	mov	r0, r4
    a758:	eb000a20 	bl	cfe0 <strcat>
    a75c:	e1a00004 	mov	r0, r4
    a760:	eafffff1 	b	a72c <fat32_dir_attr_str+0x12c>
    a764:	e59f403c 	ldr	r4, [pc, #60]	; a7a8 <fat32_dir_attr_str+0x1a8>
    a768:	e59f104c 	ldr	r1, [pc, #76]	; a7bc <fat32_dir_attr_str+0x1bc>
    a76c:	e1a00004 	mov	r0, r4
    a770:	eb000a1a 	bl	cfe0 <strcat>
    a774:	e1a00004 	mov	r0, r4
    a778:	eaffffeb 	b	a72c <fat32_dir_attr_str+0x12c>
    a77c:	e58d4000 	str	r4, [sp]
    a780:	e3a0309d 	mov	r3, #157, 0	; 0x9d
    a784:	e59f2034 	ldr	r2, [pc, #52]	; a7c0 <fat32_dir_attr_str+0x1c0>
    a788:	e59f1034 	ldr	r1, [pc, #52]	; a7c4 <fat32_dir_attr_str+0x1c4>
    a78c:	e59f0034 	ldr	r0, [pc, #52]	; a7c8 <fat32_dir_attr_str+0x1c8>
    a790:	eb000909 	bl	cbbc <printk>
    a794:	eb000a38 	bl	d07c <clean_reboot>
    a798:	e59f002c 	ldr	r0, [pc, #44]	; a7cc <fat32_dir_attr_str+0x1cc>
    a79c:	e12fff1e 	bx	lr
    a7a0:	0000ffc4 	.word	0x0000ffc4
    a7a4:	0000eaf0 	.word	0x0000eaf0
    a7a8:	0000ffe4 	.word	0x0000ffe4
    a7ac:	0000eaf4 	.word	0x0000eaf4
    a7b0:	0000eafc 	.word	0x0000eafc
    a7b4:	0000eb0c 	.word	0x0000eb0c
    a7b8:	0000eb1c 	.word	0x0000eb1c
    a7bc:	0000eb24 	.word	0x0000eb24
    a7c0:	0000ed4c 	.word	0x0000ed4c
    a7c4:	0000e57c 	.word	0x0000e57c
    a7c8:	0000eb30 	.word	0x0000eb30
    a7cc:	0000eae0 	.word	0x0000eae0

0000a7d0 <fat32_dirent_name>:
    a7d0:	e92d4010 	push	{r4, lr}
    a7d4:	e1a04001 	mov	r4, r1
    a7d8:	ebfffd54 	bl	9d30 <to_8dot3>
    a7dc:	e1a01000 	mov	r1, r0
    a7e0:	e1a00004 	mov	r0, r4
    a7e4:	eb000a15 	bl	d040 <strcpy>
    a7e8:	e8bd8010 	pop	{r4, pc}

0000a7ec <fat32_is_valid_name>:
    a7ec:	e92d4010 	push	{r4, lr}
    a7f0:	e1a04000 	mov	r4, r0
    a7f4:	eb000a19 	bl	d060 <strlen>
    a7f8:	e1a0c000 	mov	ip, r0
    a7fc:	e1a01000 	mov	r1, r0
    a800:	e3a03000 	mov	r3, #0, 0
    a804:	e1a00003 	mov	r0, r3
    a808:	ea000000 	b	a810 <fat32_is_valid_name+0x24>
    a80c:	e2833001 	add	r3, r3, #1, 0
    a810:	e1530001 	cmp	r3, r1
    a814:	aa000003 	bge	a828 <fat32_is_valid_name+0x3c>
    a818:	e7d42003 	ldrb	r2, [r4, r3]
    a81c:	e352002e 	cmp	r2, #46, 0	; 0x2e
    a820:	03a00001 	moveq	r0, #1, 0
    a824:	eafffff8 	b	a80c <fat32_is_valid_name+0x20>
    a828:	e3500000 	cmp	r0, #0, 0
    a82c:	0a000019 	beq	a898 <fat32_is_valid_name+0xac>
    a830:	e35c000c 	cmp	ip, #12, 0
    a834:	ca00002a 	bgt	a8e4 <fat32_is_valid_name+0xf8>
    a838:	e35c0004 	cmp	ip, #4, 0
    a83c:	da00002a 	ble	a8ec <fat32_is_valid_name+0x100>
    a840:	e084c00c 	add	ip, r4, ip
    a844:	e55c3004 	ldrb	r3, [ip, #-4]
    a848:	e353002e 	cmp	r3, #46, 0	; 0x2e
    a84c:	1a000028 	bne	a8f4 <fat32_is_valid_name+0x108>
    a850:	e3a02000 	mov	r2, #0, 0
    a854:	ea000000 	b	a85c <fat32_is_valid_name+0x70>
    a858:	e2822001 	add	r2, r2, #1, 0
    a85c:	e1520001 	cmp	r2, r1
    a860:	a8bd8010 	popge	{r4, pc}
    a864:	e7d43002 	ldrb	r3, [r4, r2]
    a868:	e243c041 	sub	ip, r3, #65, 0	; 0x41
    a86c:	e6efc07c 	uxtb	ip, ip
    a870:	e2433030 	sub	r3, r3, #48, 0	; 0x30
    a874:	e6ef3073 	uxtb	r3, r3
    a878:	e35c0019 	cmp	ip, #25, 0
    a87c:	83530009 	cmphi	r3, #9, 0
    a880:	9afffff4 	bls	a858 <fat32_is_valid_name+0x6c>
    a884:	e2413004 	sub	r3, r1, #4, 0
    a888:	e1530002 	cmp	r3, r2
    a88c:	0afffff1 	beq	a858 <fat32_is_valid_name+0x6c>
    a890:	e3a00000 	mov	r0, #0, 0
    a894:	e8bd8010 	pop	{r4, pc}
    a898:	e35c0008 	cmp	ip, #8, 0
    a89c:	c8bd8010 	popgt	{r4, pc}
    a8a0:	e35c0000 	cmp	ip, #0, 0
    a8a4:	d8bd8010 	pople	{r4, pc}
    a8a8:	e1a02000 	mov	r2, r0
    a8ac:	e1520001 	cmp	r2, r1
    a8b0:	aa000009 	bge	a8dc <fat32_is_valid_name+0xf0>
    a8b4:	e7d43002 	ldrb	r3, [r4, r2]
    a8b8:	e243c041 	sub	ip, r3, #65, 0	; 0x41
    a8bc:	e6efc07c 	uxtb	ip, ip
    a8c0:	e2433030 	sub	r3, r3, #48, 0	; 0x30
    a8c4:	e6ef3073 	uxtb	r3, r3
    a8c8:	e35c0019 	cmp	ip, #25, 0
    a8cc:	83530009 	cmphi	r3, #9, 0
    a8d0:	88bd8010 	pophi	{r4, pc}
    a8d4:	e2822001 	add	r2, r2, #1, 0
    a8d8:	eafffff3 	b	a8ac <fat32_is_valid_name+0xc0>
    a8dc:	e3a00001 	mov	r0, #1, 0
    a8e0:	e8bd8010 	pop	{r4, pc}
    a8e4:	e3a00000 	mov	r0, #0, 0
    a8e8:	e8bd8010 	pop	{r4, pc}
    a8ec:	e3a00000 	mov	r0, #0, 0
    a8f0:	e8bd8010 	pop	{r4, pc}
    a8f4:	e3a00000 	mov	r0, #0, 0
    a8f8:	e8bd8010 	pop	{r4, pc}

0000a8fc <fat32_dirent_set_name>:
    a8fc:	e92d41f0 	push	{r4, r5, r6, r7, r8, lr}
    a900:	e24dd008 	sub	sp, sp, #8, 0
    a904:	e1a07000 	mov	r7, r0
    a908:	e1a04001 	mov	r4, r1
    a90c:	e1a00001 	mov	r0, r1
    a910:	eb0009d2 	bl	d060 <strlen>
    a914:	e1a06000 	mov	r6, r0
    a918:	e1a05000 	mov	r5, r0
    a91c:	e1a00004 	mov	r0, r4
    a920:	ebffffb1 	bl	a7ec <fat32_is_valid_name>
    a924:	e3500000 	cmp	r0, #0, 0
    a928:	13a03000 	movne	r3, #0, 0
    a92c:	11a08003 	movne	r8, r3
    a930:	1a000008 	bne	a958 <fat32_dirent_set_name+0x5c>
    a934:	e59f308c 	ldr	r3, [pc, #140]	; a9c8 <fat32_dirent_set_name+0xcc>
    a938:	e58d3000 	str	r3, [sp]
    a93c:	e3a030da 	mov	r3, #218, 0	; 0xda
    a940:	e59f2084 	ldr	r2, [pc, #132]	; a9cc <fat32_dirent_set_name+0xd0>
    a944:	e59f1084 	ldr	r1, [pc, #132]	; a9d0 <fat32_dirent_set_name+0xd4>
    a948:	e59f0084 	ldr	r0, [pc, #132]	; a9d4 <fat32_dirent_set_name+0xd8>
    a94c:	eb00089a 	bl	cbbc <printk>
    a950:	eb0009c9 	bl	d07c <clean_reboot>
    a954:	e2833001 	add	r3, r3, #1, 0
    a958:	e1530005 	cmp	r3, r5
    a95c:	aa000003 	bge	a970 <fat32_dirent_set_name+0x74>
    a960:	e7d42003 	ldrb	r2, [r4, r3]
    a964:	e352002e 	cmp	r2, #46, 0	; 0x2e
    a968:	03a08001 	moveq	r8, #1, 0
    a96c:	eafffff8 	b	a954 <fat32_dirent_set_name+0x58>
    a970:	e3a0200b 	mov	r2, #11, 0
    a974:	e3a01020 	mov	r1, #32, 0
    a978:	e1a00007 	mov	r0, r7
    a97c:	eb000866 	bl	cb1c <memset>
    a980:	e3580000 	cmp	r8, #0, 0
    a984:	0a00000a 	beq	a9b4 <fat32_dirent_set_name+0xb8>
    a988:	e2462004 	sub	r2, r6, #4, 0
    a98c:	e1a01004 	mov	r1, r4
    a990:	e1a00007 	mov	r0, r7
    a994:	eb000829 	bl	ca40 <memcpy>
    a998:	e2461003 	sub	r1, r6, #3, 0
    a99c:	e3a02003 	mov	r2, #3, 0
    a9a0:	e0841001 	add	r1, r4, r1
    a9a4:	e2870008 	add	r0, r7, #8, 0
    a9a8:	eb000824 	bl	ca40 <memcpy>
    a9ac:	e28dd008 	add	sp, sp, #8, 0
    a9b0:	e8bd81f0 	pop	{r4, r5, r6, r7, r8, pc}
    a9b4:	e1a02006 	mov	r2, r6
    a9b8:	e1a01004 	mov	r1, r4
    a9bc:	e1a00007 	mov	r0, r7
    a9c0:	eb00081e 	bl	ca40 <memcpy>
    a9c4:	eafffff8 	b	a9ac <fat32_dirent_set_name+0xb0>
    a9c8:	0000eb54 	.word	0x0000eb54
    a9cc:	0000ed60 	.word	0x0000ed60
    a9d0:	0000e57c 	.word	0x0000e57c
    a9d4:	0000da34 	.word	0x0000da34

0000a9d8 <fat32_dirent_print_helper>:
    a9d8:	e92d4070 	push	{r4, r5, r6, lr}
    a9dc:	e1a06000 	mov	r6, r0
    a9e0:	ebfffef9 	bl	a5cc <fat32_dirent_free>
    a9e4:	e2504000 	subs	r4, r0, #0, 0
    a9e8:	1a00001c 	bne	aa60 <fat32_dirent_print_helper+0x88>
    a9ec:	e5d6500b 	ldrb	r5, [r6, #11]
    a9f0:	e355000f 	cmp	r5, #15, 0
    a9f4:	0a00001c 	beq	aa6c <fat32_dirent_print_helper+0x94>
    a9f8:	e355000f 	cmp	r5, #15, 0
    a9fc:	0a00001d 	beq	aa78 <fat32_dirent_print_helper+0xa0>
    aa00:	e1a032a5 	lsr	r3, r5, #5
    aa04:	e2033001 	and	r3, r3, #1, 0
    aa08:	e3530000 	cmp	r3, #0, 0
    aa0c:	1a00001d 	bne	aa88 <fat32_dirent_print_helper+0xb0>
    aa10:	e355000f 	cmp	r5, #15, 0
    aa14:	0a00001e 	beq	aa94 <fat32_dirent_print_helper+0xbc>
    aa18:	e1a03225 	lsr	r3, r5, #4
    aa1c:	e2033001 	and	r3, r3, #1, 0
    aa20:	e3530000 	cmp	r3, #0, 0
    aa24:	0a00001e 	beq	aaa4 <fat32_dirent_print_helper+0xcc>
    aa28:	e59f01b0 	ldr	r0, [pc, #432]	; abe0 <fat32_dirent_print_helper+0x208>
    aa2c:	eb000862 	bl	cbbc <printk>
    aa30:	e1a00006 	mov	r0, r6
    aa34:	ebfffce0 	bl	9dbc <add_nul>
    aa38:	e1a05000 	mov	r5, r0
    aa3c:	e1a00006 	mov	r0, r6
    aa40:	ebfffcba 	bl	9d30 <to_8dot3>
    aa44:	e1a02000 	mov	r2, r0
    aa48:	e1a01005 	mov	r1, r5
    aa4c:	e59f0190 	ldr	r0, [pc, #400]	; abe4 <fat32_dirent_print_helper+0x20c>
    aa50:	eb000859 	bl	cbbc <printk>
    aa54:	e59f018c 	ldr	r0, [pc, #396]	; abe8 <fat32_dirent_print_helper+0x210>
    aa58:	eb000857 	bl	cbbc <printk>
    aa5c:	ea00002b 	b	ab10 <fat32_dirent_print_helper+0x138>
    aa60:	e59f0184 	ldr	r0, [pc, #388]	; abec <fat32_dirent_print_helper+0x214>
    aa64:	eb000854 	bl	cbbc <printk>
    aa68:	e8bd8070 	pop	{r4, r5, r6, pc}
    aa6c:	e59f017c 	ldr	r0, [pc, #380]	; abf0 <fat32_dirent_print_helper+0x218>
    aa70:	eb000851 	bl	cbbc <printk>
    aa74:	e8bd8070 	pop	{r4, r5, r6, pc}
    aa78:	e3550020 	cmp	r5, #32, 0
    aa7c:	13a03000 	movne	r3, #0, 0
    aa80:	03a03001 	moveq	r3, #1, 0
    aa84:	eaffffdf 	b	aa08 <fat32_dirent_print_helper+0x30>
    aa88:	e59f0164 	ldr	r0, [pc, #356]	; abf4 <fat32_dirent_print_helper+0x21c>
    aa8c:	eb00084a 	bl	cbbc <printk>
    aa90:	eaffffe4 	b	aa28 <fat32_dirent_print_helper+0x50>
    aa94:	e3550010 	cmp	r5, #16, 0
    aa98:	13a03000 	movne	r3, #0, 0
    aa9c:	03a03001 	moveq	r3, #1, 0
    aaa0:	eaffffde 	b	aa20 <fat32_dirent_print_helper+0x48>
    aaa4:	e1a00005 	mov	r0, r5
    aaa8:	ebfffed4 	bl	a600 <fat32_dir_attr_str>
    aaac:	e1a02000 	mov	r2, r0
    aab0:	e1a01005 	mov	r1, r5
    aab4:	e59f013c 	ldr	r0, [pc, #316]	; abf8 <fat32_dirent_print_helper+0x220>
    aab8:	eb00083f 	bl	cbbc <printk>
    aabc:	e5d6300b 	ldrb	r3, [r6, #11]
    aac0:	e353000f 	cmp	r3, #15, 0
    aac4:	0a000004 	beq	aadc <fat32_dirent_print_helper+0x104>
    aac8:	e1a032a3 	lsr	r3, r3, #5
    aacc:	e2033001 	and	r3, r3, #1, 0
    aad0:	e3530000 	cmp	r3, #0, 0
    aad4:	0affffd3 	beq	aa28 <fat32_dirent_print_helper+0x50>
    aad8:	e8bd8070 	pop	{r4, r5, r6, pc}
    aadc:	e3530020 	cmp	r3, #32, 0
    aae0:	13a03000 	movne	r3, #0, 0
    aae4:	03a03001 	moveq	r3, #1, 0
    aae8:	eafffff8 	b	aad0 <fat32_dirent_print_helper+0xf8>
    aaec:	e59f00ec 	ldr	r0, [pc, #236]	; abe0 <fat32_dirent_print_helper+0x208>
    aaf0:	eb000831 	bl	cbbc <printk>
    aaf4:	e59f0100 	ldr	r0, [pc, #256]	; abfc <fat32_dirent_print_helper+0x224>
    aaf8:	eb00082f 	bl	cbbc <printk>
    aafc:	e7d61004 	ldrb	r1, [r6, r4]
    ab00:	e1a02001 	mov	r2, r1
    ab04:	e59f00f4 	ldr	r0, [pc, #244]	; ac00 <fat32_dirent_print_helper+0x228>
    ab08:	eb00082b 	bl	cbbc <printk>
    ab0c:	e2844001 	add	r4, r4, #1, 0
    ab10:	e354000a 	cmp	r4, #10, 0
    ab14:	8a000002 	bhi	ab24 <fat32_dirent_print_helper+0x14c>
    ab18:	e3540008 	cmp	r4, #8, 0
    ab1c:	1afffff6 	bne	aafc <fat32_dirent_print_helper+0x124>
    ab20:	eafffff1 	b	aaec <fat32_dirent_print_helper+0x114>
    ab24:	e59f00d8 	ldr	r0, [pc, #216]	; ac04 <fat32_dirent_print_helper+0x22c>
    ab28:	eb000823 	bl	cbbc <printk>
    ab2c:	e5d6100b 	ldrb	r1, [r6, #11]
    ab30:	e59f00d0 	ldr	r0, [pc, #208]	; ac08 <fat32_dirent_print_helper+0x230>
    ab34:	eb000820 	bl	cbbc <printk>
    ab38:	e5d6300b 	ldrb	r3, [r6, #11]
    ab3c:	e353000f 	cmp	r3, #15, 0
    ab40:	0a000009 	beq	ab6c <fat32_dirent_print_helper+0x194>
    ab44:	e3130001 	tst	r3, #1, 0
    ab48:	1a00001b 	bne	abbc <fat32_dirent_print_helper+0x1e4>
    ab4c:	e5d6300b 	ldrb	r3, [r6, #11]
    ab50:	e3130002 	tst	r3, #2, 0
    ab54:	1a00001b 	bne	abc8 <fat32_dirent_print_helper+0x1f0>
    ab58:	e5d6300b 	ldrb	r3, [r6, #11]
    ab5c:	e3130004 	tst	r3, #4, 0
    ab60:	1a00001b 	bne	abd4 <fat32_dirent_print_helper+0x1fc>
    ab64:	e59f0074 	ldr	r0, [pc, #116]	; abe0 <fat32_dirent_print_helper+0x208>
    ab68:	eb000813 	bl	cbbc <printk>
    ab6c:	e5d63014 	ldrb	r3, [r6, #20]
    ab70:	e5d61015 	ldrb	r1, [r6, #21]
    ab74:	e1831401 	orr	r1, r3, r1, lsl #8
    ab78:	e59f008c 	ldr	r0, [pc, #140]	; ac0c <fat32_dirent_print_helper+0x234>
    ab7c:	eb00080e 	bl	cbbc <printk>
    ab80:	e5d6301a 	ldrb	r3, [r6, #26]
    ab84:	e5d6101b 	ldrb	r1, [r6, #27]
    ab88:	e1831401 	orr	r1, r3, r1, lsl #8
    ab8c:	e59f007c 	ldr	r0, [pc, #124]	; ac10 <fat32_dirent_print_helper+0x238>
    ab90:	eb000809 	bl	cbbc <printk>
    ab94:	e5d6301c 	ldrb	r3, [r6, #28]
    ab98:	e5d6101d 	ldrb	r1, [r6, #29]
    ab9c:	e1833401 	orr	r3, r3, r1, lsl #8
    aba0:	e5d6101e 	ldrb	r1, [r6, #30]
    aba4:	e1833801 	orr	r3, r3, r1, lsl #16
    aba8:	e5d6101f 	ldrb	r1, [r6, #31]
    abac:	e1831c01 	orr	r1, r3, r1, lsl #24
    abb0:	e59f005c 	ldr	r0, [pc, #92]	; ac14 <fat32_dirent_print_helper+0x23c>
    abb4:	eb000800 	bl	cbbc <printk>
    abb8:	e8bd8070 	pop	{r4, r5, r6, pc}
    abbc:	e59f0054 	ldr	r0, [pc, #84]	; ac18 <fat32_dirent_print_helper+0x240>
    abc0:	eb0007fd 	bl	cbbc <printk>
    abc4:	eaffffe0 	b	ab4c <fat32_dirent_print_helper+0x174>
    abc8:	e59f004c 	ldr	r0, [pc, #76]	; ac1c <fat32_dirent_print_helper+0x244>
    abcc:	eb0007fa 	bl	cbbc <printk>
    abd0:	eaffffe0 	b	ab58 <fat32_dirent_print_helper+0x180>
    abd4:	e59f0044 	ldr	r0, [pc, #68]	; ac20 <fat32_dirent_print_helper+0x248>
    abd8:	eb0007f7 	bl	cbbc <printk>
    abdc:	eaffffe0 	b	ab64 <fat32_dirent_print_helper+0x18c>
    abe0:	0000de9c 	.word	0x0000de9c
    abe4:	0000ebe8 	.word	0x0000ebe8
    abe8:	0000ec0c 	.word	0x0000ec0c
    abec:	0000eb70 	.word	0x0000eb70
    abf0:	0000eb8c 	.word	0x0000eb8c
    abf4:	0000eba0 	.word	0x0000eba0
    abf8:	0000ebc8 	.word	0x0000ebc8
    abfc:	0000ec20 	.word	0x0000ec20
    ac00:	0000ec28 	.word	0x0000ec28
    ac04:	0000ec34 	.word	0x0000ec34
    ac08:	0000ec38 	.word	0x0000ec38
    ac0c:	0000ec84 	.word	0x0000ec84
    ac10:	0000ec9c 	.word	0x0000ec9c
    ac14:	0000ecb4 	.word	0x0000ecb4
    ac18:	0000ec4c 	.word	0x0000ec4c
    ac1c:	0000ec5c 	.word	0x0000ec5c
    ac20:	0000ec68 	.word	0x0000ec68

0000ac24 <fat32_dirent_print>:
    ac24:	e92d4010 	push	{r4, lr}
    ac28:	e1a04001 	mov	r4, r1
    ac2c:	e1a01000 	mov	r1, r0
    ac30:	e59f000c 	ldr	r0, [pc, #12]	; ac44 <fat32_dirent_print+0x20>
    ac34:	eb0007e0 	bl	cbbc <printk>
    ac38:	e1a00004 	mov	r0, r4
    ac3c:	ebffff65 	bl	a9d8 <fat32_dirent_print_helper>
    ac40:	e8bd8010 	pop	{r4, pc}
    ac44:	0000eccc 	.word	0x0000eccc

0000ac48 <fat32_dir_lookup>:
    ac48:	e92d41f0 	push	{r4, r5, r6, r7, r8, lr}
    ac4c:	e1a08000 	mov	r8, r0
    ac50:	e1a07001 	mov	r7, r1
    ac54:	e1a06002 	mov	r6, r2
    ac58:	e3a04000 	mov	r4, #0, 0
    ac5c:	ea000000 	b	ac64 <fat32_dir_lookup+0x1c>
    ac60:	e2844001 	add	r4, r4, #1, 0
    ac64:	e1540006 	cmp	r4, r6
    ac68:	2a00000e 	bcs	aca8 <fat32_dir_lookup+0x60>
    ac6c:	e0875284 	add	r5, r7, r4, lsl #5
    ac70:	e1a00005 	mov	r0, r5
    ac74:	ebfffe54 	bl	a5cc <fat32_dirent_free>
    ac78:	e3500000 	cmp	r0, #0, 0
    ac7c:	1afffff7 	bne	ac60 <fat32_dir_lookup+0x18>
    ac80:	e5d5300b 	ldrb	r3, [r5, #11]
    ac84:	e353000f 	cmp	r3, #15, 0
    ac88:	0afffff4 	beq	ac60 <fat32_dir_lookup+0x18>
    ac8c:	e3a0200b 	mov	r2, #11, 0
    ac90:	e1a01005 	mov	r1, r5
    ac94:	e1a00008 	mov	r0, r8
    ac98:	eb00075b 	bl	ca0c <memcmp>
    ac9c:	e3500000 	cmp	r0, #0, 0
    aca0:	1affffee 	bne	ac60 <fat32_dir_lookup+0x18>
    aca4:	ea000000 	b	acac <fat32_dir_lookup+0x64>
    aca8:	e3e04000 	mvn	r4, #0, 0
    acac:	e1a00004 	mov	r0, r4
    acb0:	e8bd81f0 	pop	{r4, r5, r6, r7, r8, pc}

0000acb4 <print_as_string>:
    acb4:	e92d4070 	push	{r4, r5, r6, lr}
    acb8:	e1a06001 	mov	r6, r1
    acbc:	e1a05002 	mov	r5, r2
    acc0:	e1a01000 	mov	r1, r0
    acc4:	e59f002c 	ldr	r0, [pc, #44]	; acf8 <print_as_string+0x44>
    acc8:	eb0007bb 	bl	cbbc <printk>
    accc:	e3a04000 	mov	r4, #0, 0
    acd0:	e1540005 	cmp	r4, r5
    acd4:	aa000004 	bge	acec <print_as_string+0x38>
    acd8:	e7d61004 	ldrb	r1, [r6, r4]
    acdc:	e59f0018 	ldr	r0, [pc, #24]	; acfc <print_as_string+0x48>
    ace0:	eb0007b5 	bl	cbbc <printk>
    ace4:	e2844001 	add	r4, r4, #1, 0
    ace8:	eafffff8 	b	acd0 <print_as_string+0x1c>
    acec:	e59f000c 	ldr	r0, [pc, #12]	; ad00 <print_as_string+0x4c>
    acf0:	eb0007b1 	bl	cbbc <printk>
    acf4:	e8bd8070 	pop	{r4, r5, r6, pc}
    acf8:	0000db38 	.word	0x0000db38
    acfc:	0000ecd4 	.word	0x0000ecd4
    ad00:	0000de9c 	.word	0x0000de9c

0000ad04 <print_bytes>:
    ad04:	e92d41f0 	push	{r4, r5, r6, r7, r8, lr}
    ad08:	e1a07001 	mov	r7, r1
    ad0c:	e1a06002 	mov	r6, r2
    ad10:	e1a01000 	mov	r1, r0
    ad14:	e59f0044 	ldr	r0, [pc, #68]	; ad60 <print_bytes+0x5c>
    ad18:	eb0007a7 	bl	cbbc <printk>
    ad1c:	e3a04000 	mov	r4, #0, 0
    ad20:	ea000005 	b	ad3c <print_bytes+0x38>
    ad24:	e59f0038 	ldr	r0, [pc, #56]	; ad64 <print_bytes+0x60>
    ad28:	eb0007a3 	bl	cbbc <printk>
    ad2c:	e7d71005 	ldrb	r1, [r7, r5]
    ad30:	e59f0030 	ldr	r0, [pc, #48]	; ad68 <print_bytes+0x64>
    ad34:	eb0007a0 	bl	cbbc <printk>
    ad38:	e2844001 	add	r4, r4, #1, 0
    ad3c:	e1540006 	cmp	r4, r6
    ad40:	aa000003 	bge	ad54 <print_bytes+0x50>
    ad44:	e1a05004 	mov	r5, r4
    ad48:	e314000f 	tst	r4, #15, 0
    ad4c:	1afffff6 	bne	ad2c <print_bytes+0x28>
    ad50:	eafffff3 	b	ad24 <print_bytes+0x20>
    ad54:	e59f0010 	ldr	r0, [pc, #16]	; ad6c <print_bytes+0x68>
    ad58:	eb000797 	bl	cbbc <printk>
    ad5c:	e8bd81f0 	pop	{r4, r5, r6, r7, r8, pc}
    ad60:	0000db38 	.word	0x0000db38
    ad64:	0000ecd8 	.word	0x0000ecd8
    ad68:	0000ecdc 	.word	0x0000ecdc
    ad6c:	0000de9c 	.word	0x0000de9c

0000ad70 <print_words>:
    ad70:	e92d41f0 	push	{r4, r5, r6, r7, r8, lr}
    ad74:	e1a07001 	mov	r7, r1
    ad78:	e1a06002 	mov	r6, r2
    ad7c:	e1a01000 	mov	r1, r0
    ad80:	e59f0044 	ldr	r0, [pc, #68]	; adcc <print_words+0x5c>
    ad84:	eb00078c 	bl	cbbc <printk>
    ad88:	e3a04000 	mov	r4, #0, 0
    ad8c:	ea000005 	b	ada8 <print_words+0x38>
    ad90:	e59f0038 	ldr	r0, [pc, #56]	; add0 <print_words+0x60>
    ad94:	eb000788 	bl	cbbc <printk>
    ad98:	e7971105 	ldr	r1, [r7, r5, lsl #2]
    ad9c:	e59f0030 	ldr	r0, [pc, #48]	; add4 <print_words+0x64>
    ada0:	eb000785 	bl	cbbc <printk>
    ada4:	e2844001 	add	r4, r4, #1, 0
    ada8:	e1540006 	cmp	r4, r6
    adac:	aa000003 	bge	adc0 <print_words+0x50>
    adb0:	e1a05004 	mov	r5, r4
    adb4:	e314000f 	tst	r4, #15, 0
    adb8:	1afffff6 	bne	ad98 <print_words+0x28>
    adbc:	eafffff3 	b	ad90 <print_words+0x20>
    adc0:	e59f0010 	ldr	r0, [pc, #16]	; add8 <print_words+0x68>
    adc4:	eb00077c 	bl	cbbc <printk>
    adc8:	e8bd81f0 	pop	{r4, r5, r6, r7, r8, pc}
    adcc:	0000db38 	.word	0x0000db38
    add0:	0000ecd8 	.word	0x0000ecd8
    add4:	0000ece4 	.word	0x0000ece4
    add8:	0000de9c 	.word	0x0000de9c

0000addc <utf8_append>:
    addc:	e92d41f0 	push	{r4, r5, r6, r7, r8, lr}
    ade0:	e24dd008 	sub	sp, sp, #8, 0
    ade4:	e3120001 	tst	r2, #1, 0
    ade8:	1a000004 	bne	ae00 <utf8_append+0x24>
    adec:	e1a07000 	mov	r7, r0
    adf0:	e1a06001 	mov	r6, r1
    adf4:	e1a08002 	mov	r8, r2
    adf8:	e3a04000 	mov	r4, #0, 0
    adfc:	ea000015 	b	ae58 <utf8_append+0x7c>
    ae00:	e59f3094 	ldr	r3, [pc, #148]	; ae9c <utf8_append+0xc0>
    ae04:	e58d3000 	str	r3, [sp]
    ae08:	e3a03044 	mov	r3, #68, 0	; 0x44
    ae0c:	e59f208c 	ldr	r2, [pc, #140]	; aea0 <utf8_append+0xc4>
    ae10:	e59f108c 	ldr	r1, [pc, #140]	; aea4 <utf8_append+0xc8>
    ae14:	e59f008c 	ldr	r0, [pc, #140]	; aea8 <utf8_append+0xcc>
    ae18:	eb000767 	bl	cbbc <printk>
    ae1c:	eb000896 	bl	d07c <clean_reboot>
    ae20:	e35300ff 	cmp	r3, #255, 0	; 0xff
    ae24:	0a000018 	beq	ae8c <utf8_append+0xb0>
    ae28:	e0861001 	add	r1, r6, r1
    ae2c:	e5d10001 	ldrb	r0, [r1, #1]
    ae30:	e1830400 	orr	r0, r3, r0, lsl #8
    ae34:	eb000230 	bl	b6fc <to_utf8>
    ae38:	e1a05000 	mov	r5, r0
    ae3c:	e1a01000 	mov	r1, r0
    ae40:	e1a00007 	mov	r0, r7
    ae44:	eb000865 	bl	cfe0 <strcat>
    ae48:	e1a00005 	mov	r0, r5
    ae4c:	eb000883 	bl	d060 <strlen>
    ae50:	e0877000 	add	r7, r7, r0
    ae54:	e2844002 	add	r4, r4, #2, 0
    ae58:	e1a01004 	mov	r1, r4
    ae5c:	e1540008 	cmp	r4, r8
    ae60:	2a000006 	bcs	ae80 <utf8_append+0xa4>
    ae64:	e0862004 	add	r2, r6, r4
    ae68:	e7d63004 	ldrb	r3, [r6, r4]
    ae6c:	e3530000 	cmp	r3, #0, 0
    ae70:	1affffea 	bne	ae20 <utf8_append+0x44>
    ae74:	e5d20001 	ldrb	r0, [r2, #1]
    ae78:	e3500000 	cmp	r0, #0, 0
    ae7c:	1affffe7 	bne	ae20 <utf8_append+0x44>
    ae80:	e1a00007 	mov	r0, r7
    ae84:	e28dd008 	add	sp, sp, #8, 0
    ae88:	e8bd81f0 	pop	{r4, r5, r6, r7, r8, pc}
    ae8c:	e5d22001 	ldrb	r2, [r2, #1]
    ae90:	e35200ff 	cmp	r2, #255, 0	; 0xff
    ae94:	1affffe3 	bne	ae28 <utf8_append+0x4c>
    ae98:	eafffff8 	b	ae80 <utf8_append+0xa4>
    ae9c:	0000ed8c 	.word	0x0000ed8c
    aea0:	0000f00c 	.word	0x0000f00c
    aea4:	0000ed78 	.word	0x0000ed78
    aea8:	0000da34 	.word	0x0000da34

0000aeac <is_attr>:
    aeac:	e350000f 	cmp	r0, #15, 0
    aeb0:	0a000003 	beq	aec4 <is_attr+0x18>
    aeb4:	e1d13000 	bics	r3, r1, r0
    aeb8:	03a00001 	moveq	r0, #1, 0
    aebc:	13a00000 	movne	r0, #0, 0
    aec0:	e12fff1e 	bx	lr
    aec4:	e1500001 	cmp	r0, r1
    aec8:	13a00000 	movne	r0, #0, 0
    aecc:	03a00001 	moveq	r0, #1, 0
    aed0:	e12fff1e 	bx	lr

0000aed4 <lfn_checksum>:
    aed4:	e1a03000 	mov	r3, r0
    aed8:	e3a0100b 	mov	r1, #11, 0
    aedc:	e3a00000 	mov	r0, #0, 0
    aee0:	ea000005 	b	aefc <lfn_checksum+0x28>
    aee4:	e1a020a0 	lsr	r2, r0, #1
    aee8:	e0820380 	add	r0, r2, r0, lsl #7
    aeec:	e4d32001 	ldrb	r2, [r3], #1
    aef0:	e6e20070 	uxtab	r0, r2, r0
    aef4:	e6ef0070 	uxtb	r0, r0
    aef8:	e2411001 	sub	r1, r1, #1, 0
    aefc:	e3510000 	cmp	r1, #0, 0
    af00:	1afffff7 	bne	aee4 <lfn_checksum+0x10>
    af04:	e12fff1e 	bx	lr

0000af08 <lfn_is_last>:
    af08:	e1a00320 	lsr	r0, r0, #6
    af0c:	e2000001 	and	r0, r0, #1, 0
    af10:	e12fff1e 	bx	lr

0000af14 <lfn_is_first>:
    af14:	e20000bf 	and	r0, r0, #191, 0	; 0xbf
    af18:	e3500001 	cmp	r0, #1, 0
    af1c:	13a00000 	movne	r0, #0, 0
    af20:	03a00001 	moveq	r0, #1, 0
    af24:	e12fff1e 	bx	lr

0000af28 <lfn_is_deleted>:
    af28:	e20000e5 	and	r0, r0, #229, 0	; 0xe5
    af2c:	e35000e5 	cmp	r0, #229, 0	; 0xe5
    af30:	13a00000 	movne	r0, #0, 0
    af34:	03a00001 	moveq	r0, #1, 0
    af38:	e12fff1e 	bx	lr

0000af3c <fat32_dirent_is_deleted_lfn>:
    af3c:	e52de004 	push	{lr}		; (str lr, [sp, #-4]!)
    af40:	e24dd00c 	sub	sp, sp, #12, 0
    af44:	e5d0300b 	ldrb	r3, [r0, #11]
    af48:	e353000f 	cmp	r3, #15, 0
    af4c:	1a000003 	bne	af60 <fat32_dirent_is_deleted_lfn+0x24>
    af50:	e5d00000 	ldrb	r0, [r0]
    af54:	ebfffff3 	bl	af28 <lfn_is_deleted>
    af58:	e28dd00c 	add	sp, sp, #12, 0
    af5c:	e49df004 	pop	{pc}		; (ldr pc, [sp], #4)
    af60:	e59f3018 	ldr	r3, [pc, #24]	; af80 <fat32_dirent_is_deleted_lfn+0x44>
    af64:	e58d3000 	str	r3, [sp]
    af68:	e3a03021 	mov	r3, #33, 0	; 0x21
    af6c:	e59f2010 	ldr	r2, [pc, #16]	; af84 <fat32_dirent_is_deleted_lfn+0x48>
    af70:	e59f1010 	ldr	r1, [pc, #16]	; af88 <fat32_dirent_is_deleted_lfn+0x4c>
    af74:	e59f0010 	ldr	r0, [pc, #16]	; af8c <fat32_dirent_is_deleted_lfn+0x50>
    af78:	eb00070f 	bl	cbbc <printk>
    af7c:	eb00083e 	bl	d07c <clean_reboot>
    af80:	0000ed9c 	.word	0x0000ed9c
    af84:	0000f018 	.word	0x0000f018
    af88:	0000ed78 	.word	0x0000ed78
    af8c:	0000da34 	.word	0x0000da34

0000af90 <lfn_print_ent>:
    af90:	e92d43f0 	push	{r4, r5, r6, r7, r8, r9, lr}
    af94:	e24dd02c 	sub	sp, sp, #44, 0	; 0x2c
    af98:	e1a05000 	mov	r5, r0
    af9c:	e1a06001 	mov	r6, r1
    afa0:	e1a07000 	mov	r7, r0
    afa4:	e4d74001 	ldrb	r4, [r7], #1
    afa8:	e1a00004 	mov	r0, r4
    afac:	ebffffd8 	bl	af14 <lfn_is_first>
    afb0:	e1a08000 	mov	r8, r0
    afb4:	e1a00004 	mov	r0, r4
    afb8:	ebffffd2 	bl	af08 <lfn_is_last>
    afbc:	e1a09000 	mov	r9, r0
    afc0:	e1a00004 	mov	r0, r4
    afc4:	ebffffd7 	bl	af28 <lfn_is_deleted>
    afc8:	e58d0000 	str	r0, [sp]
    afcc:	e1a03009 	mov	r3, r9
    afd0:	e1a02008 	mov	r2, r8
    afd4:	e1a01004 	mov	r1, r4
    afd8:	e59f009c 	ldr	r0, [pc, #156]	; b07c <lfn_print_ent+0xec>
    afdc:	eb0006f6 	bl	cbbc <printk>
    afe0:	e3a0200a 	mov	r2, #10, 0
    afe4:	e1a01007 	mov	r1, r7
    afe8:	e28d000c 	add	r0, sp, #12, 0
    afec:	eb000693 	bl	ca40 <memcpy>
    aff0:	e3a0200c 	mov	r2, #12, 0
    aff4:	e285100e 	add	r1, r5, #14, 0
    aff8:	e28d0016 	add	r0, sp, #22, 0
    affc:	eb00068f 	bl	ca40 <memcpy>
    b000:	e3a02004 	mov	r2, #4, 0
    b004:	e285101c 	add	r1, r5, #28, 0
    b008:	e28d0022 	add	r0, sp, #34, 0	; 0x22
    b00c:	eb00068b 	bl	ca40 <memcpy>
    b010:	e3a04000 	mov	r4, #0, 0
    b014:	e5cd4026 	strb	r4, [sp, #38]	; 0x26
    b018:	ea000004 	b	b030 <lfn_print_ent+0xa0>
    b01c:	e1a03002 	mov	r3, r2
    b020:	e1a01004 	mov	r1, r4
    b024:	e59f0054 	ldr	r0, [pc, #84]	; b080 <lfn_print_ent+0xf0>
    b028:	eb0006e3 	bl	cbbc <printk>
    b02c:	e2844002 	add	r4, r4, #2, 0
    b030:	e3540019 	cmp	r4, #25, 0
    b034:	ca00000a 	bgt	b064 <lfn_print_ent+0xd4>
    b038:	e28d3028 	add	r3, sp, #40, 0	; 0x28
    b03c:	e0833004 	add	r3, r3, r4
    b040:	e553201c 	ldrb	r2, [r3, #-28]	; 0xffffffe4
    b044:	e3520000 	cmp	r2, #0, 0
    b048:	1afffff3 	bne	b01c <lfn_print_ent+0x8c>
    b04c:	e2843001 	add	r3, r4, #1, 0
    b050:	e28d1028 	add	r1, sp, #40, 0	; 0x28
    b054:	e0813003 	add	r3, r1, r3
    b058:	e553301c 	ldrb	r3, [r3, #-28]	; 0xffffffe4
    b05c:	e3530000 	cmp	r3, #0, 0
    b060:	1affffed 	bne	b01c <lfn_print_ent+0x8c>
    b064:	e1a02006 	mov	r2, r6
    b068:	e5d5100d 	ldrb	r1, [r5, #13]
    b06c:	e59f0010 	ldr	r0, [pc, #16]	; b084 <lfn_print_ent+0xf4>
    b070:	eb0006d1 	bl	cbbc <printk>
    b074:	e28dd02c 	add	sp, sp, #44, 0	; 0x2c
    b078:	e8bd83f0 	pop	{r4, r5, r6, r7, r8, r9, pc}
    b07c:	0000edbc 	.word	0x0000edbc
    b080:	0000ede8 	.word	0x0000ede8
    b084:	0000ee00 	.word	0x0000ee00

0000b088 <lfn_get_name>:
    b088:	e92d4070 	push	{r4, r5, r6, lr}
    b08c:	e24dd008 	sub	sp, sp, #8, 0
    b090:	e1a06000 	mov	r6, r0
    b094:	e59f0080 	ldr	r0, [pc, #128]	; b11c <lfn_get_name+0x94>
    b098:	e3a03000 	mov	r3, #0, 0
    b09c:	e5c03000 	strb	r3, [r0]
    b0a0:	e2415001 	sub	r5, r1, #1, 0
    b0a4:	e3550000 	cmp	r5, #0, 0
    b0a8:	ba000016 	blt	b108 <lfn_get_name+0x80>
    b0ac:	e0864285 	add	r4, r6, r5, lsl #5
    b0b0:	e5d4300b 	ldrb	r3, [r4, #11]
    b0b4:	e353000f 	cmp	r3, #15, 0
    b0b8:	1a00000a 	bne	b0e8 <lfn_get_name+0x60>
    b0bc:	e3a0200a 	mov	r2, #10, 0
    b0c0:	e2841001 	add	r1, r4, #1, 0
    b0c4:	ebffff44 	bl	addc <utf8_append>
    b0c8:	e3a0200c 	mov	r2, #12, 0
    b0cc:	e284100e 	add	r1, r4, #14, 0
    b0d0:	ebffff41 	bl	addc <utf8_append>
    b0d4:	e3a02004 	mov	r2, #4, 0
    b0d8:	e284101c 	add	r1, r4, #28, 0
    b0dc:	ebffff3e 	bl	addc <utf8_append>
    b0e0:	e2455001 	sub	r5, r5, #1, 0
    b0e4:	eaffffee 	b	b0a4 <lfn_get_name+0x1c>
    b0e8:	e59f3030 	ldr	r3, [pc, #48]	; b120 <lfn_get_name+0x98>
    b0ec:	e58d3000 	str	r3, [sp]
    b0f0:	e3a03055 	mov	r3, #85, 0	; 0x55
    b0f4:	e59f2028 	ldr	r2, [pc, #40]	; b124 <lfn_get_name+0x9c>
    b0f8:	e59f1028 	ldr	r1, [pc, #40]	; b128 <lfn_get_name+0xa0>
    b0fc:	e59f0028 	ldr	r0, [pc, #40]	; b12c <lfn_get_name+0xa4>
    b100:	eb0006ad 	bl	cbbc <printk>
    b104:	eb0007dc 	bl	d07c <clean_reboot>
    b108:	e3a03000 	mov	r3, #0, 0
    b10c:	e5c03000 	strb	r3, [r0]
    b110:	e59f0004 	ldr	r0, [pc, #4]	; b11c <lfn_get_name+0x94>
    b114:	e28dd008 	add	sp, sp, #8, 0
    b118:	e8bd8070 	pop	{r4, r5, r6, pc}
    b11c:	00010064 	.word	0x00010064
    b120:	0000ee1c 	.word	0x0000ee1c
    b124:	0000f034 	.word	0x0000f034
    b128:	0000ed78 	.word	0x0000ed78
    b12c:	0000da34 	.word	0x0000da34

0000b130 <lfn_print>:
    b130:	e92d43f0 	push	{r4, r5, r6, r7, r8, r9, lr}
    b134:	e24dd00c 	sub	sp, sp, #12, 0
    b138:	e2518000 	subs	r8, r1, #0, 0
    b13c:	da000007 	ble	b160 <lfn_print+0x30>
    b140:	e1a06000 	mov	r6, r0
    b144:	e1a07002 	mov	r7, r2
    b148:	e1a09003 	mov	r9, r3
    b14c:	e2483001 	sub	r3, r8, #1, 0
    b150:	e3530001 	cmp	r3, #1, 0
    b154:	8a000009 	bhi	b180 <lfn_print+0x50>
    b158:	e3a04000 	mov	r4, #0, 0
    b15c:	ea000021 	b	b1e8 <lfn_print+0xb8>
    b160:	e59f3134 	ldr	r3, [pc, #308]	; b29c <lfn_print+0x16c>
    b164:	e58d3000 	str	r3, [sp]
    b168:	e3a0305f 	mov	r3, #95, 0	; 0x5f
    b16c:	e59f212c 	ldr	r2, [pc, #300]	; b2a0 <lfn_print+0x170>
    b170:	e59f112c 	ldr	r1, [pc, #300]	; b2a4 <lfn_print+0x174>
    b174:	e59f012c 	ldr	r0, [pc, #300]	; b2a8 <lfn_print+0x178>
    b178:	eb00068f 	bl	cbbc <printk>
    b17c:	eb0007be 	bl	d07c <clean_reboot>
    b180:	e59f3124 	ldr	r3, [pc, #292]	; b2ac <lfn_print+0x17c>
    b184:	e58d3000 	str	r3, [sp]
    b188:	e3a03062 	mov	r3, #98, 0	; 0x62
    b18c:	e59f210c 	ldr	r2, [pc, #268]	; b2a0 <lfn_print+0x170>
    b190:	e59f110c 	ldr	r1, [pc, #268]	; b2a4 <lfn_print+0x174>
    b194:	e59f0114 	ldr	r0, [pc, #276]	; b2b0 <lfn_print+0x180>
    b198:	eb000687 	bl	cbbc <printk>
    b19c:	eb0007b6 	bl	d07c <clean_reboot>
    b1a0:	e59f310c 	ldr	r3, [pc, #268]	; b2b4 <lfn_print+0x184>
    b1a4:	e58d3000 	str	r3, [sp]
    b1a8:	e3a03064 	mov	r3, #100, 0	; 0x64
    b1ac:	e59f20ec 	ldr	r2, [pc, #236]	; b2a0 <lfn_print+0x170>
    b1b0:	e59f10ec 	ldr	r1, [pc, #236]	; b2a4 <lfn_print+0x174>
    b1b4:	e59f00ec 	ldr	r0, [pc, #236]	; b2a8 <lfn_print+0x178>
    b1b8:	eb00067f 	bl	cbbc <printk>
    b1bc:	eb0007ae 	bl	d07c <clean_reboot>
    b1c0:	e1a01004 	mov	r1, r4
    b1c4:	e59f00ec 	ldr	r0, [pc, #236]	; b2b8 <lfn_print+0x188>
    b1c8:	eb00067b 	bl	cbbc <printk>
    b1cc:	e1a01007 	mov	r1, r7
    b1d0:	e1a00005 	mov	r0, r5
    b1d4:	ebffff6d 	bl	af90 <lfn_print_ent>
    b1d8:	e5d5000d 	ldrb	r0, [r5, #13]
    b1dc:	e1500007 	cmp	r0, r7
    b1e0:	1a00000a 	bne	b210 <lfn_print+0xe0>
    b1e4:	e2844001 	add	r4, r4, #1, 0
    b1e8:	e1540008 	cmp	r4, r8
    b1ec:	aa00000f 	bge	b230 <lfn_print+0x100>
    b1f0:	e0865284 	add	r5, r6, r4, lsl #5
    b1f4:	e7d60284 	ldrb	r0, [r6, r4, lsl #5]
    b1f8:	ebffff4a 	bl	af28 <lfn_is_deleted>
    b1fc:	e3500000 	cmp	r0, #0, 0
    b200:	1affffe6 	bne	b1a0 <lfn_print+0x70>
    b204:	e3590000 	cmp	r9, #0, 0
    b208:	0afffff2 	beq	b1d8 <lfn_print+0xa8>
    b20c:	eaffffeb 	b	b1c0 <lfn_print+0x90>
    b210:	e59f30a4 	ldr	r3, [pc, #164]	; b2bc <lfn_print+0x18c>
    b214:	e58d3000 	str	r3, [sp]
    b218:	e3a03069 	mov	r3, #105, 0	; 0x69
    b21c:	e59f207c 	ldr	r2, [pc, #124]	; b2a0 <lfn_print+0x170>
    b220:	e59f107c 	ldr	r1, [pc, #124]	; b2a4 <lfn_print+0x174>
    b224:	e59f007c 	ldr	r0, [pc, #124]	; b2a8 <lfn_print+0x178>
    b228:	eb000663 	bl	cbbc <printk>
    b22c:	eb000792 	bl	d07c <clean_reboot>
    b230:	e5d60000 	ldrb	r0, [r6]
    b234:	ebffff33 	bl	af08 <lfn_is_last>
    b238:	e3500000 	cmp	r0, #0, 0
    b23c:	0a000006 	beq	b25c <lfn_print+0x12c>
    b240:	e248837e 	sub	r8, r8, #-134217727	; 0xf8000001
    b244:	e7d60288 	ldrb	r0, [r6, r8, lsl #5]
    b248:	ebffff31 	bl	af14 <lfn_is_first>
    b24c:	e3500000 	cmp	r0, #0, 0
    b250:	0a000009 	beq	b27c <lfn_print+0x14c>
    b254:	e28dd00c 	add	sp, sp, #12, 0
    b258:	e8bd83f0 	pop	{r4, r5, r6, r7, r8, r9, pc}
    b25c:	e59f305c 	ldr	r3, [pc, #92]	; b2c0 <lfn_print+0x190>
    b260:	e58d3000 	str	r3, [sp]
    b264:	e3a0306b 	mov	r3, #107, 0	; 0x6b
    b268:	e59f2030 	ldr	r2, [pc, #48]	; b2a0 <lfn_print+0x170>
    b26c:	e59f1030 	ldr	r1, [pc, #48]	; b2a4 <lfn_print+0x174>
    b270:	e59f0030 	ldr	r0, [pc, #48]	; b2a8 <lfn_print+0x178>
    b274:	eb000650 	bl	cbbc <printk>
    b278:	eb00077f 	bl	d07c <clean_reboot>
    b27c:	e59f3040 	ldr	r3, [pc, #64]	; b2c4 <lfn_print+0x194>
    b280:	e58d3000 	str	r3, [sp]
    b284:	e3a0306c 	mov	r3, #108, 0	; 0x6c
    b288:	e59f2010 	ldr	r2, [pc, #16]	; b2a0 <lfn_print+0x170>
    b28c:	e59f1010 	ldr	r1, [pc, #16]	; b2a4 <lfn_print+0x174>
    b290:	e59f0010 	ldr	r0, [pc, #16]	; b2a8 <lfn_print+0x178>
    b294:	eb000648 	bl	cbbc <printk>
    b298:	eb000777 	bl	d07c <clean_reboot>
    b29c:	0000ee3c 	.word	0x0000ee3c
    b2a0:	0000f044 	.word	0x0000f044
    b2a4:	0000ed78 	.word	0x0000ed78
    b2a8:	0000da34 	.word	0x0000da34
    b2ac:	0000ee90 	.word	0x0000ee90
    b2b0:	0000ee48 	.word	0x0000ee48
    b2b4:	0000eea4 	.word	0x0000eea4
    b2b8:	0000eec4 	.word	0x0000eec4
    b2bc:	0000eed0 	.word	0x0000eed0
    b2c0:	0000eee4 	.word	0x0000eee4
    b2c4:	0000eefc 	.word	0x0000eefc

0000b2c8 <fat32_dir_filename>:
    b2c8:	e92d41f0 	push	{r4, r5, r6, r7, r8, lr}
    b2cc:	e24dd008 	sub	sp, sp, #8, 0
    b2d0:	e1a06000 	mov	r6, r0
    b2d4:	e1a05001 	mov	r5, r1
    b2d8:	e1a07002 	mov	r7, r2
    b2dc:	e1a00001 	mov	r0, r1
    b2e0:	ebfffcb9 	bl	a5cc <fat32_dirent_free>
    b2e4:	e2504000 	subs	r4, r0, #0, 0
    b2e8:	1a000017 	bne	b34c <fat32_dir_filename+0x84>
    b2ec:	e5d5800b 	ldrb	r8, [r5, #11]
    b2f0:	e358000f 	cmp	r8, #15, 0
    b2f4:	0a00001c 	beq	b36c <fat32_dir_filename+0xa4>
    b2f8:	e3a01010 	mov	r1, #16, 0
    b2fc:	e1a00008 	mov	r0, r8
    b300:	ebfffee9 	bl	aeac <is_attr>
    b304:	e3500000 	cmp	r0, #0, 0
    b308:	1a000009 	bne	b334 <fat32_dir_filename+0x6c>
    b30c:	e3a01020 	mov	r1, #32, 0
    b310:	e1a00008 	mov	r0, r8
    b314:	ebfffee4 	bl	aeac <is_attr>
    b318:	e3500000 	cmp	r0, #0, 0
    b31c:	1a000004 	bne	b334 <fat32_dir_filename+0x6c>
    b320:	e3a01008 	mov	r1, #8, 0
    b324:	e1a00008 	mov	r0, r8
    b328:	ebfffedf 	bl	aeac <is_attr>
    b32c:	e3500000 	cmp	r0, #0, 0
    b330:	0a00003c 	beq	b428 <fat32_dir_filename+0x160>
    b334:	e5d5300c 	ldrb	r3, [r5, #12]
    b338:	e3530018 	cmp	r3, #24, 0
    b33c:	0a000054 	beq	b494 <fat32_dir_filename+0x1cc>
    b340:	e1a0c004 	mov	ip, r4
    b344:	e1a01004 	mov	r1, r4
    b348:	ea000041 	b	b454 <fat32_dir_filename+0x18c>
    b34c:	e59f31b4 	ldr	r3, [pc, #436]	; b508 <fat32_dir_filename+0x240>
    b350:	e58d3000 	str	r3, [sp]
    b354:	e3a03071 	mov	r3, #113, 0	; 0x71
    b358:	e59f21ac 	ldr	r2, [pc, #428]	; b50c <fat32_dir_filename+0x244>
    b35c:	e59f11ac 	ldr	r1, [pc, #428]	; b510 <fat32_dir_filename+0x248>
    b360:	e59f01ac 	ldr	r0, [pc, #428]	; b514 <fat32_dir_filename+0x24c>
    b364:	eb000614 	bl	cbbc <printk>
    b368:	eb000743 	bl	d07c <clean_reboot>
    b36c:	e0472005 	sub	r2, r7, r5
    b370:	e1a032c2 	asr	r3, r2, #5
    b374:	e3a04001 	mov	r4, #1, 0
    b378:	e1540003 	cmp	r4, r3
    b37c:	aa000004 	bge	b394 <fat32_dir_filename+0xcc>
    b380:	e0852284 	add	r2, r5, r4, lsl #5
    b384:	e5d2200b 	ldrb	r2, [r2, #11]
    b388:	e352000f 	cmp	r2, #15, 0
    b38c:	02844001 	addeq	r4, r4, #1, 0
    b390:	0afffff8 	beq	b378 <fat32_dir_filename+0xb0>
    b394:	e1540003 	cmp	r4, r3
    b398:	aa000012 	bge	b3e8 <fat32_dir_filename+0x120>
    b39c:	e0857284 	add	r7, r5, r4, lsl #5
    b3a0:	e5d7800b 	ldrb	r8, [r7, #11]
    b3a4:	e3a01010 	mov	r1, #16, 0
    b3a8:	e1a00008 	mov	r0, r8
    b3ac:	ebfffebe 	bl	aeac <is_attr>
    b3b0:	e3500000 	cmp	r0, #0, 0
    b3b4:	1a000004 	bne	b3cc <fat32_dir_filename+0x104>
    b3b8:	e3a01020 	mov	r1, #32, 0
    b3bc:	e1a00008 	mov	r0, r8
    b3c0:	ebfffeb9 	bl	aeac <is_attr>
    b3c4:	e3500000 	cmp	r0, #0, 0
    b3c8:	0a00000e 	beq	b408 <fat32_dir_filename+0x140>
    b3cc:	e1a01004 	mov	r1, r4
    b3d0:	e1a00005 	mov	r0, r5
    b3d4:	ebffff2b 	bl	b088 <lfn_get_name>
    b3d8:	e1a01000 	mov	r1, r0
    b3dc:	e1a00006 	mov	r0, r6
    b3e0:	eb000716 	bl	d040 <strcpy>
    b3e4:	ea000044 	b	b4fc <fat32_dir_filename+0x234>
    b3e8:	e59f3128 	ldr	r3, [pc, #296]	; b518 <fat32_dir_filename+0x250>
    b3ec:	e58d3000 	str	r3, [sp]
    b3f0:	e3a0307a 	mov	r3, #122, 0	; 0x7a
    b3f4:	e59f2110 	ldr	r2, [pc, #272]	; b50c <fat32_dir_filename+0x244>
    b3f8:	e59f1110 	ldr	r1, [pc, #272]	; b510 <fat32_dir_filename+0x248>
    b3fc:	e59f0110 	ldr	r0, [pc, #272]	; b514 <fat32_dir_filename+0x24c>
    b400:	eb0005ed 	bl	cbbc <printk>
    b404:	eb00071c 	bl	d07c <clean_reboot>
    b408:	e59f310c 	ldr	r3, [pc, #268]	; b51c <fat32_dir_filename+0x254>
    b40c:	e58d3000 	str	r3, [sp]
    b410:	e3a0307b 	mov	r3, #123, 0	; 0x7b
    b414:	e59f20f0 	ldr	r2, [pc, #240]	; b50c <fat32_dir_filename+0x244>
    b418:	e59f10f0 	ldr	r1, [pc, #240]	; b510 <fat32_dir_filename+0x248>
    b41c:	e59f00f0 	ldr	r0, [pc, #240]	; b514 <fat32_dir_filename+0x24c>
    b420:	eb0005e5 	bl	cbbc <printk>
    b424:	eb000714 	bl	d07c <clean_reboot>
    b428:	e59f30f0 	ldr	r3, [pc, #240]	; b520 <fat32_dir_filename+0x258>
    b42c:	e58d3000 	str	r3, [sp]
    b430:	e3a0307f 	mov	r3, #127, 0	; 0x7f
    b434:	e59f20d0 	ldr	r2, [pc, #208]	; b50c <fat32_dir_filename+0x244>
    b438:	e59f10d0 	ldr	r1, [pc, #208]	; b510 <fat32_dir_filename+0x248>
    b43c:	e59f00d0 	ldr	r0, [pc, #208]	; b514 <fat32_dir_filename+0x24c>
    b440:	eb0005dd 	bl	cbbc <printk>
    b444:	eb00070c 	bl	d07c <clean_reboot>
    b448:	e7c63001 	strb	r3, [r6, r1]
    b44c:	e2811001 	add	r1, r1, #1, 0
    b450:	e2844001 	add	r4, r4, #1, 0
    b454:	e3540007 	cmp	r4, #7, 0
    b458:	ca00000f 	bgt	b49c <fat32_dir_filename+0x1d4>
    b45c:	e7d53004 	ldrb	r3, [r5, r4]
    b460:	e3530020 	cmp	r3, #32, 0
    b464:	0afffff9 	beq	b450 <fat32_dir_filename+0x188>
    b468:	e3530040 	cmp	r3, #64, 0	; 0x40
    b46c:	93a02000 	movls	r2, #0, 0
    b470:	83a02001 	movhi	r2, #1, 0
    b474:	e35c0000 	cmp	ip, #0, 0
    b478:	03a02000 	moveq	r2, #0, 0
    b47c:	e3520000 	cmp	r2, #0, 0
    b480:	0afffff0 	beq	b448 <fat32_dir_filename+0x180>
    b484:	e353005a 	cmp	r3, #90, 0	; 0x5a
    b488:	92833020 	addls	r3, r3, #32, 0
    b48c:	96ef3073 	uxtbls	r3, r3
    b490:	eaffffec 	b	b448 <fat32_dir_filename+0x180>
    b494:	e3a0c001 	mov	ip, #1, 0
    b498:	eaffffa9 	b	b344 <fat32_dir_filename+0x7c>
    b49c:	e2810001 	add	r0, r1, #1, 0
    b4a0:	e3a0302e 	mov	r3, #46, 0	; 0x2e
    b4a4:	e7c63001 	strb	r3, [r6, r1]
    b4a8:	ea000002 	b	b4b8 <fat32_dir_filename+0x1f0>
    b4ac:	e7c63000 	strb	r3, [r6, r0]
    b4b0:	e2844001 	add	r4, r4, #1, 0
    b4b4:	e2800001 	add	r0, r0, #1, 0
    b4b8:	e354000a 	cmp	r4, #10, 0
    b4bc:	ca00000b 	bgt	b4f0 <fat32_dir_filename+0x228>
    b4c0:	e7d53004 	ldrb	r3, [r5, r4]
    b4c4:	e3530040 	cmp	r3, #64, 0	; 0x40
    b4c8:	93a02000 	movls	r2, #0, 0
    b4cc:	83a02001 	movhi	r2, #1, 0
    b4d0:	e35c0000 	cmp	ip, #0, 0
    b4d4:	03a02000 	moveq	r2, #0, 0
    b4d8:	e3520000 	cmp	r2, #0, 0
    b4dc:	0afffff2 	beq	b4ac <fat32_dir_filename+0x1e4>
    b4e0:	e353005a 	cmp	r3, #90, 0	; 0x5a
    b4e4:	92833020 	addls	r3, r3, #32, 0
    b4e8:	96ef3073 	uxtbls	r3, r3
    b4ec:	eaffffee 	b	b4ac <fat32_dir_filename+0x1e4>
    b4f0:	e3a03000 	mov	r3, #0, 0
    b4f4:	e7c63000 	strb	r3, [r6, r0]
    b4f8:	e1a07005 	mov	r7, r5
    b4fc:	e1a00007 	mov	r0, r7
    b500:	e28dd008 	add	sp, sp, #8, 0
    b504:	e8bd81f0 	pop	{r4, r5, r6, r7, r8, pc}
    b508:	0000ef1c 	.word	0x0000ef1c
    b50c:	0000f050 	.word	0x0000f050
    b510:	0000ed78 	.word	0x0000ed78
    b514:	0000da34 	.word	0x0000da34
    b518:	0000ef34 	.word	0x0000ef34
    b51c:	0000ef3c 	.word	0x0000ef3c
    b520:	0000ef84 	.word	0x0000ef84

0000b524 <fat32_lfn_print>:
    b524:	e92d40f0 	push	{r4, r5, r6, r7, lr}
    b528:	e24dd00c 	sub	sp, sp, #12, 0
    b52c:	e1a05001 	mov	r5, r1
    b530:	e5d1300b 	ldrb	r3, [r1, #11]
    b534:	e353000f 	cmp	r3, #15, 0
    b538:	0a000004 	beq	b550 <fat32_lfn_print+0x2c>
    b53c:	ebfffdb8 	bl	ac24 <fat32_dirent_print>
    b540:	e3a04001 	mov	r4, #1, 0
    b544:	e1a00004 	mov	r0, r4
    b548:	e28dd00c 	add	sp, sp, #12, 0
    b54c:	e8bd80f0 	pop	{r4, r5, r6, r7, pc}
    b550:	e1a06002 	mov	r6, r2
    b554:	e1a01000 	mov	r1, r0
    b558:	e59f00e4 	ldr	r0, [pc, #228]	; b644 <fat32_lfn_print+0x120>
    b55c:	eb000596 	bl	cbbc <printk>
    b560:	e3a04000 	mov	r4, #0, 0
    b564:	e1540006 	cmp	r4, r6
    b568:	aa000004 	bge	b580 <fat32_lfn_print+0x5c>
    b56c:	e0853284 	add	r3, r5, r4, lsl #5
    b570:	e5d3300b 	ldrb	r3, [r3, #11]
    b574:	e353000f 	cmp	r3, #15, 0
    b578:	02844001 	addeq	r4, r4, #1, 0
    b57c:	0afffff8 	beq	b564 <fat32_lfn_print+0x40>
    b580:	e1540006 	cmp	r4, r6
    b584:	aa00001e 	bge	b604 <fat32_lfn_print+0xe0>
    b588:	e0856284 	add	r6, r5, r4, lsl #5
    b58c:	e5d6700b 	ldrb	r7, [r6, #11]
    b590:	e3a01010 	mov	r1, #16, 0
    b594:	e1a00007 	mov	r0, r7
    b598:	ebfffe43 	bl	aeac <is_attr>
    b59c:	e3500000 	cmp	r0, #0, 0
    b5a0:	1a000004 	bne	b5b8 <fat32_lfn_print+0x94>
    b5a4:	e3a01020 	mov	r1, #32, 0
    b5a8:	e1a00007 	mov	r0, r7
    b5ac:	ebfffe3e 	bl	aeac <is_attr>
    b5b0:	e3500000 	cmp	r0, #0, 0
    b5b4:	0a00001a 	beq	b624 <fat32_lfn_print+0x100>
    b5b8:	e59f0088 	ldr	r0, [pc, #136]	; b648 <fat32_lfn_print+0x124>
    b5bc:	eb00057e 	bl	cbbc <printk>
    b5c0:	e1a00006 	mov	r0, r6
    b5c4:	ebfffe42 	bl	aed4 <lfn_checksum>
    b5c8:	e1a02000 	mov	r2, r0
    b5cc:	e3a03000 	mov	r3, #0, 0
    b5d0:	e1a01004 	mov	r1, r4
    b5d4:	e1a00005 	mov	r0, r5
    b5d8:	ebfffed4 	bl	b130 <lfn_print>
    b5dc:	e1a01004 	mov	r1, r4
    b5e0:	e1a00005 	mov	r0, r5
    b5e4:	ebfffea7 	bl	b088 <lfn_get_name>
    b5e8:	e1a01000 	mov	r1, r0
    b5ec:	e59f0058 	ldr	r0, [pc, #88]	; b64c <fat32_lfn_print+0x128>
    b5f0:	eb000571 	bl	cbbc <printk>
    b5f4:	e2844001 	add	r4, r4, #1, 0
    b5f8:	e1a00006 	mov	r0, r6
    b5fc:	ebfffcf5 	bl	a9d8 <fat32_dirent_print_helper>
    b600:	eaffffcf 	b	b544 <fat32_lfn_print+0x20>
    b604:	e59f3044 	ldr	r3, [pc, #68]	; b650 <fat32_lfn_print+0x12c>
    b608:	e58d3000 	str	r3, [sp]
    b60c:	e3a030ac 	mov	r3, #172, 0	; 0xac
    b610:	e59f203c 	ldr	r2, [pc, #60]	; b654 <fat32_lfn_print+0x130>
    b614:	e59f103c 	ldr	r1, [pc, #60]	; b658 <fat32_lfn_print+0x134>
    b618:	e59f003c 	ldr	r0, [pc, #60]	; b65c <fat32_lfn_print+0x138>
    b61c:	eb000566 	bl	cbbc <printk>
    b620:	eb000695 	bl	d07c <clean_reboot>
    b624:	e59f3034 	ldr	r3, [pc, #52]	; b660 <fat32_lfn_print+0x13c>
    b628:	e58d3000 	str	r3, [sp]
    b62c:	e3a030ad 	mov	r3, #173, 0	; 0xad
    b630:	e59f201c 	ldr	r2, [pc, #28]	; b654 <fat32_lfn_print+0x130>
    b634:	e59f101c 	ldr	r1, [pc, #28]	; b658 <fat32_lfn_print+0x134>
    b638:	e59f001c 	ldr	r0, [pc, #28]	; b65c <fat32_lfn_print+0x138>
    b63c:	eb00055e 	bl	cbbc <printk>
    b640:	eb00068d 	bl	d07c <clean_reboot>
    b644:	0000eccc 	.word	0x0000eccc
    b648:	0000de9c 	.word	0x0000de9c
    b64c:	0000efe8 	.word	0x0000efe8
    b650:	0000efdc 	.word	0x0000efdc
    b654:	0000f064 	.word	0x0000f064
    b658:	0000ed78 	.word	0x0000ed78
    b65c:	0000da34 	.word	0x0000da34
    b660:	0000ef3c 	.word	0x0000ef3c

0000b664 <codepoint_len>:
    b664:	e1a0c000 	mov	ip, r0
    b668:	e59f2040 	ldr	r2, [pc, #64]	; b6b0 <codepoint_len+0x4c>
    b66c:	e3a00000 	mov	r0, #0, 0
    b670:	ea000001 	b	b67c <codepoint_len+0x18>
    b674:	e2800001 	add	r0, r0, #1, 0
    b678:	e2822004 	add	r2, r2, #4, 0
    b67c:	e5923000 	ldr	r3, [r2]
    b680:	e3530000 	cmp	r3, #0, 0
    b684:	0a000005 	beq	b6a0 <codepoint_len+0x3c>
    b688:	e5931004 	ldr	r1, [r3, #4]
    b68c:	e151000c 	cmp	r1, ip
    b690:	8afffff7 	bhi	b674 <codepoint_len+0x10>
    b694:	e5933008 	ldr	r3, [r3, #8]
    b698:	e153000c 	cmp	r3, ip
    b69c:	3afffff4 	bcc	b674 <codepoint_len+0x10>
    b6a0:	e3500004 	cmp	r0, #4, 0
    b6a4:	d12fff1e 	bxle	lr
    b6a8:	e3e00000 	mvn	r0, #0, 0
    b6ac:	e12fff1e 	bx	lr
    b6b0:	0000ff40 	.word	0x0000ff40

0000b6b4 <utf8_len>:
    b6b4:	e1a0c000 	mov	ip, r0
    b6b8:	e59f1038 	ldr	r1, [pc, #56]	; b6f8 <utf8_len+0x44>
    b6bc:	e3a00000 	mov	r0, #0, 0
    b6c0:	e5913000 	ldr	r3, [r1]
    b6c4:	e3530000 	cmp	r3, #0, 0
    b6c8:	0a000006 	beq	b6e8 <utf8_len+0x34>
    b6cc:	e5d32000 	ldrb	r2, [r3]
    b6d0:	e1cc2002 	bic	r2, ip, r2
    b6d4:	e5d33001 	ldrb	r3, [r3, #1]
    b6d8:	e1520003 	cmp	r2, r3
    b6dc:	12800001 	addne	r0, r0, #1, 0
    b6e0:	12811004 	addne	r1, r1, #4, 0
    b6e4:	1afffff5 	bne	b6c0 <utf8_len+0xc>
    b6e8:	e3500004 	cmp	r0, #4, 0
    b6ec:	d12fff1e 	bxle	lr
    b6f0:	e3e00000 	mvn	r0, #0, 0
    b6f4:	e12fff1e 	bx	lr
    b6f8:	0000ff40 	.word	0x0000ff40

0000b6fc <to_utf8>:
    b6fc:	e92d4070 	push	{r4, r5, r6, lr}
    b700:	e1a04000 	mov	r4, r0
    b704:	ebffffd6 	bl	b664 <codepoint_len>
    b708:	e250c000 	subs	ip, r0, #0, 0
    b70c:	ba00001c 	blt	b784 <to_utf8+0x88>
    b710:	e59f3074 	ldr	r3, [pc, #116]	; b78c <to_utf8+0x90>
    b714:	e5930000 	ldr	r0, [r3]
    b718:	e590500c 	ldr	r5, [r0, #12]
    b71c:	e24c1001 	sub	r1, ip, #1, 0
    b720:	e0010591 	mul	r1, r1, r5
    b724:	e793210c 	ldr	r2, [r3, ip, lsl #2]
    b728:	e5d23000 	ldrb	r3, [r2]
    b72c:	e0033134 	and	r3, r3, r4, lsr r1
    b730:	e5d22001 	ldrb	r2, [r2, #1]
    b734:	e1833002 	orr	r3, r3, r2
    b738:	e59f2050 	ldr	r2, [pc, #80]	; b790 <to_utf8+0x94>
    b73c:	e5c23000 	strb	r3, [r2]
    b740:	e0411005 	sub	r1, r1, r5
    b744:	e3a02001 	mov	r2, #1, 0
    b748:	ea000007 	b	b76c <to_utf8+0x70>
    b74c:	e5d03000 	ldrb	r3, [r0]
    b750:	e0033134 	and	r3, r3, r4, lsr r1
    b754:	e5d0e001 	ldrb	lr, [r0, #1]
    b758:	e183300e 	orr	r3, r3, lr
    b75c:	e59fe02c 	ldr	lr, [pc, #44]	; b790 <to_utf8+0x94>
    b760:	e7ce3002 	strb	r3, [lr, r2]
    b764:	e0411005 	sub	r1, r1, r5
    b768:	e2822001 	add	r2, r2, #1, 0
    b76c:	e152000c 	cmp	r2, ip
    b770:	bafffff5 	blt	b74c <to_utf8+0x50>
    b774:	e59f0014 	ldr	r0, [pc, #20]	; b790 <to_utf8+0x94>
    b778:	e3a03000 	mov	r3, #0, 0
    b77c:	e7c0300c 	strb	r3, [r0, ip]
    b780:	e8bd8070 	pop	{r4, r5, r6, pc}
    b784:	e3a00000 	mov	r0, #0, 0
    b788:	e8bd8070 	pop	{r4, r5, r6, pc}
    b78c:	0000ff40 	.word	0x0000ff40
    b790:	00010264 	.word	0x00010264

0000b794 <to_cp>:
    b794:	e92d41f0 	push	{r4, r5, r6, r7, r8, lr}
    b798:	e1a05000 	mov	r5, r0
    b79c:	e5d04000 	ldrb	r4, [r0]
    b7a0:	e1a00004 	mov	r0, r4
    b7a4:	ebffffc2 	bl	b6b4 <utf8_len>
    b7a8:	e2506000 	subs	r6, r0, #0, 0
    b7ac:	ba000013 	blt	b800 <to_cp+0x6c>
    b7b0:	e59f3050 	ldr	r3, [pc, #80]	; b808 <to_cp+0x74>
    b7b4:	e5938000 	ldr	r8, [r3]
    b7b8:	e598700c 	ldr	r7, [r8, #12]
    b7bc:	e2462001 	sub	r2, r6, #1, 0
    b7c0:	e0020792 	mul	r2, r2, r7
    b7c4:	e285c001 	add	ip, r5, #1, 0
    b7c8:	e7933106 	ldr	r3, [r3, r6, lsl #2]
    b7cc:	e5d30000 	ldrb	r0, [r3]
    b7d0:	e0000004 	and	r0, r0, r4
    b7d4:	e1a00210 	lsl	r0, r0, r2
    b7d8:	e3a01001 	mov	r1, #1, 0
    b7dc:	e1510006 	cmp	r1, r6
    b7e0:	a8bd81f0 	popge	{r4, r5, r6, r7, r8, pc}
    b7e4:	e0422007 	sub	r2, r2, r7
    b7e8:	e4dc3001 	ldrb	r3, [ip], #1
    b7ec:	e5d8e000 	ldrb	lr, [r8]
    b7f0:	e003300e 	and	r3, r3, lr
    b7f4:	e1800213 	orr	r0, r0, r3, lsl r2
    b7f8:	e2811001 	add	r1, r1, #1, 0
    b7fc:	eafffff6 	b	b7dc <to_cp+0x48>
    b800:	e3a00000 	mov	r0, #0, 0
    b804:	e8bd81f0 	pop	{r4, r5, r6, r7, r8, pc}
    b808:	0000ff40 	.word	0x0000ff40

0000b80c <test_main>:
    b80c:	e92d4070 	push	{r4, r5, r6, lr}
    b810:	e24dd028 	sub	sp, sp, #40, 0	; 0x28
    b814:	e28dc008 	add	ip, sp, #8, 0
    b818:	e59fe0b0 	ldr	lr, [pc, #176]	; b8d0 <test_main+0xc4>
    b81c:	e8be000f 	ldm	lr!, {r0, r1, r2, r3}
    b820:	e8ac000f 	stmia	ip!, {r0, r1, r2, r3}
    b824:	e89e000f 	ldm	lr, {r0, r1, r2, r3}
    b828:	e88c000f 	stm	ip, {r0, r1, r2, r3}
    b82c:	e59f00a0 	ldr	r0, [pc, #160]	; b8d4 <test_main+0xc8>
    b830:	eb0004e1 	bl	cbbc <printk>
    b834:	e59f009c 	ldr	r0, [pc, #156]	; b8d8 <test_main+0xcc>
    b838:	eb0004df 	bl	cbbc <printk>
    b83c:	e28d6008 	add	r6, sp, #8, 0
    b840:	ea000012 	b	b890 <test_main+0x84>
    b844:	e59f3090 	ldr	r3, [pc, #144]	; b8dc <test_main+0xd0>
    b848:	e58d3000 	str	r3, [sp]
    b84c:	e3a0306c 	mov	r3, #108, 0	; 0x6c
    b850:	e59f2088 	ldr	r2, [pc, #136]	; b8e0 <test_main+0xd4>
    b854:	e59f1088 	ldr	r1, [pc, #136]	; b8e4 <test_main+0xd8>
    b858:	e59f0088 	ldr	r0, [pc, #136]	; b8e8 <test_main+0xdc>
    b85c:	eb0004d6 	bl	cbbc <printk>
    b860:	eb000605 	bl	d07c <clean_reboot>
    b864:	e59f0080 	ldr	r0, [pc, #128]	; b8ec <test_main+0xe0>
    b868:	eb0004d3 	bl	cbbc <printk>
    b86c:	e2844001 	add	r4, r4, #1, 0
    b870:	e7d51004 	ldrb	r1, [r5, r4]
    b874:	e3510000 	cmp	r1, #0, 0
    b878:	0a000001 	beq	b884 <test_main+0x78>
    b87c:	e3540003 	cmp	r4, #3, 0
    b880:	dafffff7 	ble	b864 <test_main+0x58>
    b884:	e59f0064 	ldr	r0, [pc, #100]	; b8f0 <test_main+0xe4>
    b888:	eb0004cb 	bl	cbbc <printk>
    b88c:	e2866004 	add	r6, r6, #4, 0
    b890:	e5960000 	ldr	r0, [r6]
    b894:	e3500000 	cmp	r0, #0, 0
    b898:	0a00000a 	beq	b8c8 <test_main+0xbc>
    b89c:	ebffff96 	bl	b6fc <to_utf8>
    b8a0:	e2505000 	subs	r5, r0, #0, 0
    b8a4:	0affffe6 	beq	b844 <test_main+0x38>
    b8a8:	e1a00005 	mov	r0, r5
    b8ac:	ebffffb8 	bl	b794 <to_cp>
    b8b0:	e1a02000 	mov	r2, r0
    b8b4:	e1a01005 	mov	r1, r5
    b8b8:	e59f0034 	ldr	r0, [pc, #52]	; b8f4 <test_main+0xe8>
    b8bc:	eb0004be 	bl	cbbc <printk>
    b8c0:	e3a04000 	mov	r4, #0, 0
    b8c4:	eaffffe9 	b	b870 <test_main+0x64>
    b8c8:	e28dd028 	add	sp, sp, #40, 0	; 0x28
    b8cc:	e8bd8070 	pop	{r4, r5, r6, pc}
    b8d0:	0000f108 	.word	0x0000f108
    b8d4:	0000f074 	.word	0x0000f074
    b8d8:	0000f0a0 	.word	0x0000f0a0
    b8dc:	0000f0ec 	.word	0x0000f0ec
    b8e0:	0000f128 	.word	0x0000f128
    b8e4:	0000f0cc 	.word	0x0000f0cc
    b8e8:	0000da34 	.word	0x0000da34
    b8ec:	0000ec48 	.word	0x0000ec48
    b8f0:	0000de9c 	.word	0x0000de9c
    b8f4:	0000f0f4 	.word	0x0000f0f4

0000b8f8 <get_clock_divider>:
    b8f8:	e59f30ac 	ldr	r3, [pc, #172]	; b9ac <get_clock_divider+0xb4>
    b8fc:	e1500003 	cmp	r0, r3
    b900:	9a000007 	bls	b924 <get_clock_divider+0x2c>
    b904:	e59f20a4 	ldr	r2, [pc, #164]	; b9b0 <get_clock_divider+0xb8>
    b908:	e0823092 	umull	r3, r2, r2, r0
    b90c:	e1a02c22 	lsr	r2, r2, #24
    b910:	e59f309c 	ldr	r3, [pc, #156]	; b9b4 <get_clock_divider+0xbc>
    b914:	e0030293 	mul	r3, r3, r2
    b918:	e1500003 	cmp	r0, r3
    b91c:	13a02000 	movne	r2, #0, 0
    b920:	ea000000 	b	b928 <get_clock_divider+0x30>
    b924:	e3a02001 	mov	r2, #1, 0
    b928:	e3a0001f 	mov	r0, #31, 0
    b92c:	e3500000 	cmp	r0, #0, 0
    b930:	ba000007 	blt	b954 <get_clock_divider+0x5c>
    b934:	e3a03001 	mov	r3, #1, 0
    b938:	e1a03013 	lsl	r3, r3, r0
    b93c:	e1120003 	tst	r2, r3
    b940:	02400001 	subeq	r0, r0, #1, 0
    b944:	0afffff8 	beq	b92c <get_clock_divider+0x34>
    b948:	e1d23003 	bics	r3, r2, r3
    b94c:	12800001 	addne	r0, r0, #1, 0
    b950:	ea000000 	b	b958 <get_clock_divider+0x60>
    b954:	e3e00000 	mvn	r0, #0, 0
    b958:	e3700001 	cmn	r0, #1, 0
    b95c:	0a000003 	beq	b970 <get_clock_divider+0x78>
    b960:	e350001f 	cmp	r0, #31, 0
    b964:	da000002 	ble	b974 <get_clock_divider+0x7c>
    b968:	e3a0001f 	mov	r0, #31, 0
    b96c:	ea000002 	b	b97c <get_clock_divider+0x84>
    b970:	e3a0001f 	mov	r0, #31, 0
    b974:	e3500000 	cmp	r0, #0, 0
    b978:	0a000002 	beq	b988 <get_clock_divider+0x90>
    b97c:	e2400001 	sub	r0, r0, #1, 0
    b980:	e3a03001 	mov	r3, #1, 0
    b984:	e1a00013 	lsl	r0, r3, r0
    b988:	e3500b01 	cmp	r0, #1024	; 0x400
    b98c:	a59f0024 	ldrge	r0, [pc, #36]	; b9b8 <get_clock_divider+0xc0>
    b990:	e1a03440 	asr	r3, r0, #8
    b994:	e1a00400 	lsl	r0, r0, #8
    b998:	e6ff0070 	uxth	r0, r0
    b99c:	e1a03303 	lsl	r3, r3, #6
    b9a0:	e6ef3073 	uxtb	r3, r3
    b9a4:	e1800003 	orr	r0, r0, r3
    b9a8:	e12fff1e 	bx	lr
    b9ac:	02faf07f 	.word	0x02faf07f
    b9b0:	55e63b89 	.word	0x55e63b89
    b9b4:	02faf080 	.word	0x02faf080
    b9b8:	000003ff 	.word	0x000003ff

0000b9bc <sd_error_mask>:
    b9bc:	e2800010 	add	r0, r0, #16, 0
    b9c0:	e3a03001 	mov	r3, #1, 0
    b9c4:	e1a00013 	lsl	r0, r3, r0
    b9c8:	e12fff1e 	bx	lr

0000b9cc <set_last_error>:
    b9cc:	e1a03820 	lsr	r3, r0, #16
    b9d0:	e1a03803 	lsl	r3, r3, #16
    b9d4:	e59f2008 	ldr	r2, [pc, #8]	; b9e4 <set_last_error+0x18>
    b9d8:	e5823040 	str	r3, [r2, #64]	; 0x40
    b9dc:	e5820044 	str	r0, [r2, #68]	; 0x44
    b9e0:	e12fff1e 	bx	lr
    b9e4:	00010280 	.word	0x00010280

0000b9e8 <reset_command>:
    b9e8:	e92d4010 	push	{r4, lr}
    b9ec:	e59f2058 	ldr	r2, [pc, #88]	; ba4c <reset_command+0x64>
    b9f0:	e592302c 	ldr	r3, [r2, #44]	; 0x2c
    b9f4:	e3833402 	orr	r3, r3, #33554432	; 0x2000000
    b9f8:	e582302c 	str	r3, [r2, #44]	; 0x2c
    b9fc:	e3a04000 	mov	r4, #0, 0
    ba00:	ea000002 	b	ba10 <reset_command+0x28>
    ba04:	e3a00001 	mov	r0, #1, 0
    ba08:	eb00060a 	bl	d238 <delay_ms>
    ba0c:	e2844001 	add	r4, r4, #1, 0
    ba10:	e59f3038 	ldr	r3, [pc, #56]	; ba50 <reset_command+0x68>
    ba14:	e1540003 	cmp	r4, r3
    ba18:	ca000005 	bgt	ba34 <reset_command+0x4c>
    ba1c:	e59f3028 	ldr	r3, [pc, #40]	; ba4c <reset_command+0x64>
    ba20:	e593302c 	ldr	r3, [r3, #44]	; 0x2c
    ba24:	e3130402 	tst	r3, #33554432	; 0x2000000
    ba28:	1afffff5 	bne	ba04 <reset_command+0x1c>
    ba2c:	e3a00001 	mov	r0, #1, 0
    ba30:	e8bd8010 	pop	{r4, pc}
    ba34:	e59f3010 	ldr	r3, [pc, #16]	; ba4c <reset_command+0x64>
    ba38:	e593102c 	ldr	r1, [r3, #44]	; 0x2c
    ba3c:	e59f0010 	ldr	r0, [pc, #16]	; ba54 <reset_command+0x6c>
    ba40:	eb00045d 	bl	cbbc <printk>
    ba44:	e3a00000 	mov	r0, #0, 0
    ba48:	e8bd8010 	pop	{r4, pc}
    ba4c:	20300000 	.word	0x20300000
    ba50:	0000270f 	.word	0x0000270f
    ba54:	0000f134 	.word	0x0000f134

0000ba58 <wait_reg_mask>:
    ba58:	e92d41f0 	push	{r4, r5, r6, r7, r8, lr}
    ba5c:	e1a07000 	mov	r7, r0
    ba60:	e1a06001 	mov	r6, r1
    ba64:	e1a08002 	mov	r8, r2
    ba68:	e1a05003 	mov	r5, r3
    ba6c:	e3a04000 	mov	r4, #0, 0
    ba70:	ea000005 	b	ba8c <wait_reg_mask+0x34>
    ba74:	e1a00008 	mov	r0, r8
    ba78:	e3500000 	cmp	r0, #0, 0
    ba7c:	18bd81f0 	popne	{r4, r5, r6, r7, r8, pc}
    ba80:	e3a00064 	mov	r0, #100, 0	; 0x64
    ba84:	eb0005e2 	bl	d214 <delay_us>
    ba88:	e2844001 	add	r4, r4, #1, 0
    ba8c:	e0853105 	add	r3, r5, r5, lsl #2
    ba90:	e1540083 	cmp	r4, r3, lsl #1
    ba94:	8a000004 	bhi	baac <wait_reg_mask+0x54>
    ba98:	e5973000 	ldr	r3, [r7]
    ba9c:	e1130006 	tst	r3, r6
    baa0:	1afffff3 	bne	ba74 <wait_reg_mask+0x1c>
    baa4:	e2280001 	eor	r0, r8, #1, 0
    baa8:	eafffff2 	b	ba78 <wait_reg_mask+0x20>
    baac:	e3a00000 	mov	r0, #0, 0
    bab0:	e8bd81f0 	pop	{r4, r5, r6, r7, r8, pc}

0000bab4 <do_data_transfer>:
    bab4:	e92d41f0 	push	{r4, r5, r6, r7, r8, lr}
    bab8:	e24dd008 	sub	sp, sp, #8, 0
    babc:	e58d0004 	str	r0, [sp, #4]
    bac0:	e3100010 	tst	r0, #16, 0
    bac4:	0a000005 	beq	bae0 <do_data_transfer+0x2c>
    bac8:	e3a07000 	mov	r7, #0, 0
    bacc:	e3a05020 	mov	r5, #32, 0
    bad0:	e59f30c0 	ldr	r3, [pc, #192]	; bb98 <do_data_transfer+0xe4>
    bad4:	e5934038 	ldr	r4, [r3, #56]	; 0x38
    bad8:	e3a06000 	mov	r6, #0, 0
    badc:	ea00000c 	b	bb14 <do_data_transfer+0x60>
    bae0:	e3a07001 	mov	r7, #1, 0
    bae4:	e3a05010 	mov	r5, #16, 0
    bae8:	eafffff8 	b	bad0 <do_data_transfer+0x1c>
    baec:	ebffffb6 	bl	b9cc <set_last_error>
    baf0:	e3a00000 	mov	r0, #0, 0
    baf4:	ea000025 	b	bb90 <do_data_transfer+0xdc>
    baf8:	e4941004 	ldr	r1, [r4], #4
    bafc:	e59f2098 	ldr	r2, [pc, #152]	; bb9c <do_data_transfer+0xe8>
    bb00:	e5821020 	str	r1, [r2, #32]
    bb04:	e2433004 	sub	r3, r3, #4, 0
    bb08:	e3530000 	cmp	r3, #0, 0
    bb0c:	1afffff9 	bne	baf8 <do_data_transfer+0x44>
    bb10:	e2866001 	add	r6, r6, #1, 0
    bb14:	e59f307c 	ldr	r3, [pc, #124]	; bb98 <do_data_transfer+0xe4>
    bb18:	e5933004 	ldr	r3, [r3, #4]
    bb1c:	e1530006 	cmp	r3, r6
    bb20:	9a000019 	bls	bb8c <do_data_transfer+0xd8>
    bb24:	e3858902 	orr	r8, r5, #32768	; 0x8000
    bb28:	e3a03e7d 	mov	r3, #2000	; 0x7d0
    bb2c:	e3a02001 	mov	r2, #1, 0
    bb30:	e1a01008 	mov	r1, r8
    bb34:	e59f0064 	ldr	r0, [pc, #100]	; bba0 <do_data_transfer+0xec>
    bb38:	ebffffc6 	bl	ba58 <wait_reg_mask>
    bb3c:	e59f3058 	ldr	r3, [pc, #88]	; bb9c <do_data_transfer+0xe8>
    bb40:	e5930030 	ldr	r0, [r3, #48]	; 0x30
    bb44:	e5838030 	str	r8, [r3, #48]	; 0x30
    bb48:	e1e03805 	mvn	r3, r5, lsl #16
    bb4c:	e1e03823 	mvn	r3, r3, lsr #16
    bb50:	e0033000 	and	r3, r3, r0
    bb54:	e1530005 	cmp	r3, r5
    bb58:	1affffe3 	bne	baec <do_data_transfer+0x38>
    bb5c:	e59f3034 	ldr	r3, [pc, #52]	; bb98 <do_data_transfer+0xe4>
    bb60:	e5933010 	ldr	r3, [r3, #16]
    bb64:	e3570000 	cmp	r7, #0, 0
    bb68:	1affffe6 	bne	bb08 <do_data_transfer+0x54>
    bb6c:	ea000003 	b	bb80 <do_data_transfer+0xcc>
    bb70:	e59f2024 	ldr	r2, [pc, #36]	; bb9c <do_data_transfer+0xe8>
    bb74:	e5922020 	ldr	r2, [r2, #32]
    bb78:	e4842004 	str	r2, [r4], #4
    bb7c:	e2433004 	sub	r3, r3, #4, 0
    bb80:	e3530000 	cmp	r3, #0, 0
    bb84:	1afffff9 	bne	bb70 <do_data_transfer+0xbc>
    bb88:	eaffffe0 	b	bb10 <do_data_transfer+0x5c>
    bb8c:	e3a00001 	mov	r0, #1, 0
    bb90:	e28dd008 	add	sp, sp, #8, 0
    bb94:	e8bd81f0 	pop	{r4, r5, r6, r7, r8, pc}
    bb98:	00010280 	.word	0x00010280
    bb9c:	20300000 	.word	0x20300000
    bba0:	20300030 	.word	0x20300030

0000bba4 <emmc_issue_command>:
    bba4:	e92d4030 	push	{r4, r5, lr}
    bba8:	e24dd014 	sub	sp, sp, #20, 0
    bbac:	e58d0004 	str	r0, [sp, #4]
    bbb0:	e1a05002 	mov	r5, r2
    bbb4:	e59d2004 	ldr	r2, [sp, #4]
    bbb8:	e59f31c8 	ldr	r3, [pc, #456]	; bd88 <emmc_issue_command+0x1e4>
    bbbc:	e583200c 	str	r2, [r3, #12]
    bbc0:	e593200c 	ldr	r2, [r3, #12]
    bbc4:	e58d200c 	str	r2, [sp, #12]
    bbc8:	e5932004 	ldr	r2, [r3, #4]
    bbcc:	e3520801 	cmp	r2, #65536	; 0x10000
    bbd0:	2a000014 	bcs	bc28 <emmc_issue_command+0x84>
    bbd4:	e59f31ac 	ldr	r3, [pc, #428]	; bd88 <emmc_issue_command+0x1e4>
    bbd8:	e5933010 	ldr	r3, [r3, #16]
    bbdc:	e1832802 	orr	r2, r3, r2, lsl #16
    bbe0:	e59f31a4 	ldr	r3, [pc, #420]	; bd8c <emmc_issue_command+0x1e8>
    bbe4:	e5832004 	str	r2, [r3, #4]
    bbe8:	e5831008 	str	r1, [r3, #8]
    bbec:	e59d200c 	ldr	r2, [sp, #12]
    bbf0:	e583200c 	str	r2, [r3, #12]
    bbf4:	e3a04000 	mov	r4, #0, 0
    bbf8:	e1a02004 	mov	r2, r4
    bbfc:	e1540005 	cmp	r4, r5
    bc00:	2a00000d 	bcs	bc3c <emmc_issue_command+0x98>
    bc04:	e59f3180 	ldr	r3, [pc, #384]	; bd8c <emmc_issue_command+0x1e8>
    bc08:	e5931030 	ldr	r1, [r3, #48]	; 0x30
    bc0c:	e59f317c 	ldr	r3, [pc, #380]	; bd90 <emmc_issue_command+0x1ec>
    bc10:	e1110003 	tst	r1, r3
    bc14:	1a000008 	bne	bc3c <emmc_issue_command+0x98>
    bc18:	e3a00001 	mov	r0, #1, 0
    bc1c:	eb000585 	bl	d238 <delay_ms>
    bc20:	e2844001 	add	r4, r4, #1, 0
    bc24:	eafffff3 	b	bbf8 <emmc_issue_command+0x54>
    bc28:	e1a01002 	mov	r1, r2
    bc2c:	e59f0160 	ldr	r0, [pc, #352]	; bd94 <emmc_issue_command+0x1f0>
    bc30:	eb0003e1 	bl	cbbc <printk>
    bc34:	e3a00000 	mov	r0, #0, 0
    bc38:	ea000034 	b	bd10 <emmc_issue_command+0x16c>
    bc3c:	e1520005 	cmp	r2, r5
    bc40:	2a000034 	bcs	bd18 <emmc_issue_command+0x174>
    bc44:	e59f3140 	ldr	r3, [pc, #320]	; bd8c <emmc_issue_command+0x1e8>
    bc48:	e5930030 	ldr	r0, [r3, #48]	; 0x30
    bc4c:	e59f2144 	ldr	r2, [pc, #324]	; bd98 <emmc_issue_command+0x1f4>
    bc50:	e5832030 	str	r2, [r3, #48]	; 0x30
    bc54:	e3c03cff 	bic	r3, r0, #65280	; 0xff00
    bc58:	e3c330fe 	bic	r3, r3, #254, 0	; 0xfe
    bc5c:	e3530001 	cmp	r3, #1, 0
    bc60:	1a000032 	bne	bd30 <emmc_issue_command+0x18c>
    bc64:	e5dd3006 	ldrb	r3, [sp, #6]
    bc68:	e2033003 	and	r3, r3, #3, 0
    bc6c:	e3530001 	cmp	r3, #1, 0
    bc70:	0a000033 	beq	bd44 <emmc_issue_command+0x1a0>
    bc74:	e6af2073 	sxtb	r2, r3
    bc78:	e3520000 	cmp	r2, #0, 0
    bc7c:	0a000006 	beq	bc9c <emmc_issue_command+0xf8>
    bc80:	e2833002 	add	r3, r3, #2, 0
    bc84:	e2033003 	and	r3, r3, #3, 0
    bc88:	e3530001 	cmp	r3, #1, 0
    bc8c:	959f30f8 	ldrls	r3, [pc, #248]	; bd8c <emmc_issue_command+0x1e8>
    bc90:	95932010 	ldrls	r2, [r3, #16]
    bc94:	959f30ec 	ldrls	r3, [pc, #236]	; bd88 <emmc_issue_command+0x1e4>
    bc98:	95832014 	strls	r2, [r3, #20]
    bc9c:	e5dd4006 	ldrb	r4, [sp, #6]
    bca0:	e2145020 	ands	r5, r4, #32, 0
    bca4:	1a000031 	bne	bd70 <emmc_issue_command+0x1cc>
    bca8:	e2044003 	and	r4, r4, #3, 0
    bcac:	e3540003 	cmp	r4, #3, 0
    bcb0:	0a000001 	beq	bcbc <emmc_issue_command+0x118>
    bcb4:	e3550000 	cmp	r5, #0, 0
    bcb8:	0a000011 	beq	bd04 <emmc_issue_command+0x160>
    bcbc:	e3a03e7d 	mov	r3, #2000	; 0x7d0
    bcc0:	e3a02001 	mov	r2, #1, 0
    bcc4:	e59f10d0 	ldr	r1, [pc, #208]	; bd9c <emmc_issue_command+0x1f8>
    bcc8:	e59f00d0 	ldr	r0, [pc, #208]	; bda0 <emmc_issue_command+0x1fc>
    bccc:	ebffff61 	bl	ba58 <wait_reg_mask>
    bcd0:	e59f30b4 	ldr	r3, [pc, #180]	; bd8c <emmc_issue_command+0x1e8>
    bcd4:	e5930030 	ldr	r0, [r3, #48]	; 0x30
    bcd8:	e59f20c4 	ldr	r2, [pc, #196]	; bda4 <emmc_issue_command+0x200>
    bcdc:	e5832030 	str	r2, [r3, #48]	; 0x30
    bce0:	e3c03cff 	bic	r3, r0, #65280	; 0xff00
    bce4:	e3c330fd 	bic	r3, r3, #253, 0	; 0xfd
    bce8:	e2822811 	add	r2, r2, #1114112	; 0x110000
    bcec:	e3530002 	cmp	r3, #2, 0
    bcf0:	11530002 	cmpne	r3, r2
    bcf4:	1a000020 	bne	bd7c <emmc_issue_command+0x1d8>
    bcf8:	e59f308c 	ldr	r3, [pc, #140]	; bd8c <emmc_issue_command+0x1e8>
    bcfc:	e59f20a0 	ldr	r2, [pc, #160]	; bda4 <emmc_issue_command+0x200>
    bd00:	e5832030 	str	r2, [r3, #48]	; 0x30
    bd04:	e3a00001 	mov	r0, #1, 0
    bd08:	e59f3078 	ldr	r3, [pc, #120]	; bd88 <emmc_issue_command+0x1e4>
    bd0c:	e5c30000 	strb	r0, [r3]
    bd10:	e28dd014 	add	sp, sp, #20, 0
    bd14:	e8bd8030 	pop	{r4, r5, pc}
    bd18:	e59f0088 	ldr	r0, [pc, #136]	; bda8 <emmc_issue_command+0x204>
    bd1c:	eb0003a6 	bl	cbbc <printk>
    bd20:	e3a00000 	mov	r0, #0, 0
    bd24:	e59f305c 	ldr	r3, [pc, #92]	; bd88 <emmc_issue_command+0x1e4>
    bd28:	e5c30000 	strb	r0, [r3]
    bd2c:	eafffff7 	b	bd10 <emmc_issue_command+0x16c>
    bd30:	ebffff25 	bl	b9cc <set_last_error>
    bd34:	e3a00000 	mov	r0, #0, 0
    bd38:	e59f3048 	ldr	r3, [pc, #72]	; bd88 <emmc_issue_command+0x1e4>
    bd3c:	e5c30000 	strb	r0, [r3]
    bd40:	eafffff2 	b	bd10 <emmc_issue_command+0x16c>
    bd44:	e59f2040 	ldr	r2, [pc, #64]	; bd8c <emmc_issue_command+0x1e8>
    bd48:	e5921010 	ldr	r1, [r2, #16]
    bd4c:	e59f3034 	ldr	r3, [pc, #52]	; bd88 <emmc_issue_command+0x1e4>
    bd50:	e5831014 	str	r1, [r3, #20]
    bd54:	e5921014 	ldr	r1, [r2, #20]
    bd58:	e5831018 	str	r1, [r3, #24]
    bd5c:	e5921018 	ldr	r1, [r2, #24]
    bd60:	e583101c 	str	r1, [r3, #28]
    bd64:	e592201c 	ldr	r2, [r2, #28]
    bd68:	e5832020 	str	r2, [r3, #32]
    bd6c:	eaffffca 	b	bc9c <emmc_issue_command+0xf8>
    bd70:	e59d0004 	ldr	r0, [sp, #4]
    bd74:	ebffff4e 	bl	bab4 <do_data_transfer>
    bd78:	eaffffca 	b	bca8 <emmc_issue_command+0x104>
    bd7c:	ebffff12 	bl	b9cc <set_last_error>
    bd80:	e3a00000 	mov	r0, #0, 0
    bd84:	eaffffe1 	b	bd10 <emmc_issue_command+0x16c>
    bd88:	00010280 	.word	0x00010280
    bd8c:	20300000 	.word	0x20300000
    bd90:	00008001 	.word	0x00008001
    bd94:	0000f16c 	.word	0x0000f16c
    bd98:	ffff0001 	.word	0xffff0001
    bd9c:	00008002 	.word	0x00008002
    bda0:	20300030 	.word	0x20300030
    bda4:	ffff0002 	.word	0xffff0002
    bda8:	0000f194 	.word	0x0000f194

0000bdac <emmc_command>:
    bdac:	e92d4010 	push	{r4, lr}
    bdb0:	e3500000 	cmp	r0, #0, 0
    bdb4:	ba00000b 	blt	bde8 <emmc_command+0x3c>
    bdb8:	e59fc048 	ldr	ip, [pc, #72]	; be08 <emmc_command+0x5c>
    bdbc:	e59f3048 	ldr	r3, [pc, #72]	; be0c <emmc_command+0x60>
    bdc0:	e7930100 	ldr	r0, [r3, r0, lsl #2]
    bdc4:	e58c0008 	str	r0, [ip, #8]
    bdc8:	e59c0008 	ldr	r0, [ip, #8]
    bdcc:	e59330e0 	ldr	r3, [r3, #224]	; 0xe0
    bdd0:	e1500003 	cmp	r0, r3
    bdd4:	0a000007 	beq	bdf8 <emmc_command+0x4c>
    bdd8:	e59f3028 	ldr	r3, [pc, #40]	; be08 <emmc_command+0x5c>
    bddc:	e5930008 	ldr	r0, [r3, #8]
    bde0:	ebffff6f 	bl	bba4 <emmc_issue_command>
    bde4:	e8bd8010 	pop	{r4, pc}
    bde8:	e59f0020 	ldr	r0, [pc, #32]	; be10 <emmc_command+0x64>
    bdec:	eb000372 	bl	cbbc <printk>
    bdf0:	e3a00000 	mov	r0, #0, 0
    bdf4:	e8bd8010 	pop	{r4, pc}
    bdf8:	e59f0014 	ldr	r0, [pc, #20]	; be14 <emmc_command+0x68>
    bdfc:	eb00036e 	bl	cbbc <printk>
    be00:	e3a00000 	mov	r0, #0, 0
    be04:	e8bd8010 	pop	{r4, pc}
    be08:	00010280 	.word	0x00010280
    be0c:	0000f5d8 	.word	0x0000f5d8
    be10:	0000f1c0 	.word	0x0000f1c0
    be14:	0000f1e4 	.word	0x0000f1e4

0000be18 <check_v2_card>:
    be18:	e92d4010 	push	{r4, lr}
    be1c:	e3a020c8 	mov	r2, #200, 0	; 0xc8
    be20:	e59f10a0 	ldr	r1, [pc, #160]	; bec8 <check_v2_card+0xb0>
    be24:	e3a00008 	mov	r0, #8, 0
    be28:	ebffffdf 	bl	bdac <emmc_command>
    be2c:	e2504000 	subs	r4, r0, #0, 0
    be30:	1a000017 	bne	be94 <check_v2_card+0x7c>
    be34:	e59f3090 	ldr	r3, [pc, #144]	; becc <check_v2_card+0xb4>
    be38:	e5933040 	ldr	r3, [r3, #64]	; 0x40
    be3c:	e3530000 	cmp	r3, #0, 0
    be40:	0a000006 	beq	be60 <check_v2_card+0x48>
    be44:	e3130801 	tst	r3, #65536	; 0x10000
    be48:	0a00000e 	beq	be88 <check_v2_card+0x70>
    be4c:	ebfffee5 	bl	b9e8 <reset_command>
    be50:	e3500000 	cmp	r0, #0, 0
    be54:	1a000004 	bne	be6c <check_v2_card+0x54>
    be58:	e1a04000 	mov	r4, r0
    be5c:	ea000013 	b	beb0 <check_v2_card+0x98>
    be60:	e59f0068 	ldr	r0, [pc, #104]	; bed0 <check_v2_card+0xb8>
    be64:	eb000354 	bl	cbbc <printk>
    be68:	ea000010 	b	beb0 <check_v2_card+0x98>
    be6c:	e3a00000 	mov	r0, #0, 0
    be70:	ebfffed1 	bl	b9bc <sd_error_mask>
    be74:	e59f3058 	ldr	r3, [pc, #88]	; bed4 <check_v2_card+0xbc>
    be78:	e5830030 	str	r0, [r3, #48]	; 0x30
    be7c:	e59f0054 	ldr	r0, [pc, #84]	; bed8 <check_v2_card+0xc0>
    be80:	eb00034d 	bl	cbbc <printk>
    be84:	ea000009 	b	beb0 <check_v2_card+0x98>
    be88:	e59f004c 	ldr	r0, [pc, #76]	; bedc <check_v2_card+0xc4>
    be8c:	eb00034a 	bl	cbbc <printk>
    be90:	ea000006 	b	beb0 <check_v2_card+0x98>
    be94:	e59f3030 	ldr	r3, [pc, #48]	; becc <check_v2_card+0xb4>
    be98:	e5931014 	ldr	r1, [r3, #20]
    be9c:	e1a03a01 	lsl	r3, r1, #20
    bea0:	e1a03a23 	lsr	r3, r3, #20
    bea4:	e59f201c 	ldr	r2, [pc, #28]	; bec8 <check_v2_card+0xb0>
    bea8:	e1530002 	cmp	r3, r2
    beac:	1a000001 	bne	beb8 <check_v2_card+0xa0>
    beb0:	e1a00004 	mov	r0, r4
    beb4:	e8bd8010 	pop	{r4, pc}
    beb8:	e59f0020 	ldr	r0, [pc, #32]	; bee0 <check_v2_card+0xc8>
    bebc:	eb00033e 	bl	cbbc <printk>
    bec0:	e3a04000 	mov	r4, #0, 0
    bec4:	eafffff9 	b	beb0 <check_v2_card+0x98>
    bec8:	000001aa 	.word	0x000001aa
    becc:	00010280 	.word	0x00010280
    bed0:	0000f200 	.word	0x0000f200
    bed4:	20300000 	.word	0x20300000
    bed8:	0000f220 	.word	0x0000f220
    bedc:	0000f244 	.word	0x0000f244
    bee0:	0000f26c 	.word	0x0000f26c

0000bee4 <check_usable_card>:
    bee4:	e92d4010 	push	{r4, lr}
    bee8:	e3a02ffa 	mov	r2, #1000	; 0x3e8
    beec:	e3a01000 	mov	r1, #0, 0
    bef0:	e3a00005 	mov	r0, #5, 0
    bef4:	ebffffac 	bl	bdac <emmc_command>
    bef8:	e2504000 	subs	r4, r0, #0, 0
    befc:	1a000010 	bne	bf44 <check_usable_card+0x60>
    bf00:	e59f3050 	ldr	r3, [pc, #80]	; bf58 <check_usable_card+0x74>
    bf04:	e5933040 	ldr	r3, [r3, #64]	; 0x40
    bf08:	e3530000 	cmp	r3, #0, 0
    bf0c:	0a000009 	beq	bf38 <check_usable_card+0x54>
    bf10:	e3130801 	tst	r3, #65536	; 0x10000
    bf14:	0a00000c 	beq	bf4c <check_usable_card+0x68>
    bf18:	ebfffeb2 	bl	b9e8 <reset_command>
    bf1c:	e2504000 	subs	r4, r0, #0, 0
    bf20:	0a000007 	beq	bf44 <check_usable_card+0x60>
    bf24:	e3a00000 	mov	r0, #0, 0
    bf28:	ebfffea3 	bl	b9bc <sd_error_mask>
    bf2c:	e59f3028 	ldr	r3, [pc, #40]	; bf5c <check_usable_card+0x78>
    bf30:	e5830030 	str	r0, [r3, #48]	; 0x30
    bf34:	ea000002 	b	bf44 <check_usable_card+0x60>
    bf38:	e59f0020 	ldr	r0, [pc, #32]	; bf60 <check_usable_card+0x7c>
    bf3c:	eb00031e 	bl	cbbc <printk>
    bf40:	e3a04001 	mov	r4, #1, 0
    bf44:	e1a00004 	mov	r0, r4
    bf48:	e8bd8010 	pop	{r4, pc}
    bf4c:	e59f0010 	ldr	r0, [pc, #16]	; bf64 <check_usable_card+0x80>
    bf50:	eb000319 	bl	cbbc <printk>
    bf54:	eafffffa 	b	bf44 <check_usable_card+0x60>
    bf58:	00010280 	.word	0x00010280
    bf5c:	20300000 	.word	0x20300000
    bf60:	0000f28c 	.word	0x0000f28c
    bf64:	0000f2b0 	.word	0x0000f2b0

0000bf68 <check_rca>:
    bf68:	e92d4010 	push	{r4, lr}
    bf6c:	e3a02e7d 	mov	r2, #2000	; 0x7d0
    bf70:	e3a01000 	mov	r1, #0, 0
    bf74:	e3a00002 	mov	r0, #2, 0
    bf78:	ebffff8b 	bl	bdac <emmc_command>
    bf7c:	e2504000 	subs	r4, r0, #0, 0
    bf80:	0a00000d 	beq	bfbc <check_rca+0x54>
    bf84:	e3a02e7d 	mov	r2, #2000	; 0x7d0
    bf88:	e3a01000 	mov	r1, #0, 0
    bf8c:	e3a00003 	mov	r0, #3, 0
    bf90:	ebffff85 	bl	bdac <emmc_command>
    bf94:	e2504000 	subs	r4, r0, #0, 0
    bf98:	0a00000a 	beq	bfc8 <check_rca+0x60>
    bf9c:	e59f2040 	ldr	r2, [pc, #64]	; bfe4 <check_rca+0x7c>
    bfa0:	e5923014 	ldr	r3, [r2, #20]
    bfa4:	e1a01823 	lsr	r1, r3, #16
    bfa8:	e5821028 	str	r1, [r2, #40]	; 0x28
    bfac:	e3130c01 	tst	r3, #256	; 0x100
    bfb0:	0a000007 	beq	bfd4 <check_rca+0x6c>
    bfb4:	e1a00004 	mov	r0, r4
    bfb8:	e8bd8010 	pop	{r4, pc}
    bfbc:	e59f0024 	ldr	r0, [pc, #36]	; bfe8 <check_rca+0x80>
    bfc0:	eb0002fd 	bl	cbbc <printk>
    bfc4:	eafffffa 	b	bfb4 <check_rca+0x4c>
    bfc8:	e59f001c 	ldr	r0, [pc, #28]	; bfec <check_rca+0x84>
    bfcc:	eb0002fa 	bl	cbbc <printk>
    bfd0:	eafffff7 	b	bfb4 <check_rca+0x4c>
    bfd4:	e59f0014 	ldr	r0, [pc, #20]	; bff0 <check_rca+0x88>
    bfd8:	eb0002f7 	bl	cbbc <printk>
    bfdc:	e3a04000 	mov	r4, #0, 0
    bfe0:	eafffff3 	b	bfb4 <check_rca+0x4c>
    bfe4:	00010280 	.word	0x00010280
    bfe8:	0000f2d4 	.word	0x0000f2d4
    bfec:	0000f2f4 	.word	0x0000f2f4
    bff0:	0000f31c 	.word	0x0000f31c

0000bff4 <select_card>:
    bff4:	e92d4010 	push	{r4, lr}
    bff8:	e59f3058 	ldr	r3, [pc, #88]	; c058 <select_card+0x64>
    bffc:	e5931028 	ldr	r1, [r3, #40]	; 0x28
    c000:	e3a02e7d 	mov	r2, #2000	; 0x7d0
    c004:	e1a01801 	lsl	r1, r1, #16
    c008:	e3a00007 	mov	r0, #7, 0
    c00c:	ebffff66 	bl	bdac <emmc_command>
    c010:	e2504000 	subs	r4, r0, #0, 0
    c014:	0a000008 	beq	c03c <select_card+0x48>
    c018:	e59f3038 	ldr	r3, [pc, #56]	; c058 <select_card+0x64>
    c01c:	e5931014 	ldr	r1, [r3, #20]
    c020:	e1a014a1 	lsr	r1, r1, #9
    c024:	e201100f 	and	r1, r1, #15, 0
    c028:	e2413003 	sub	r3, r1, #3, 0
    c02c:	e3530001 	cmp	r3, #1, 0
    c030:	8a000004 	bhi	c048 <select_card+0x54>
    c034:	e1a00004 	mov	r0, r4
    c038:	e8bd8010 	pop	{r4, pc}
    c03c:	e59f0018 	ldr	r0, [pc, #24]	; c05c <select_card+0x68>
    c040:	eb0002dd 	bl	cbbc <printk>
    c044:	eafffffa 	b	c034 <select_card+0x40>
    c048:	e59f0010 	ldr	r0, [pc, #16]	; c060 <select_card+0x6c>
    c04c:	eb0002da 	bl	cbbc <printk>
    c050:	e3a04000 	mov	r4, #0, 0
    c054:	eafffff6 	b	c034 <select_card+0x40>
    c058:	00010280 	.word	0x00010280
    c05c:	0000f33c 	.word	0x0000f33c
    c060:	0000f360 	.word	0x0000f360

0000c064 <do_data_command>:
    c064:	e92d40f0 	push	{r4, r5, r6, r7, lr}
    c068:	e24dd00c 	sub	sp, sp, #12, 0
    c06c:	e1a0c001 	mov	ip, r1
    c070:	e1a01002 	mov	r1, r2
    c074:	e1a05003 	mov	r5, r3
    c078:	e59f3114 	ldr	r3, [pc, #276]	; c194 <do_data_command+0x130>
    c07c:	e5d33024 	ldrb	r3, [r3, #36]	; 0x24
    c080:	e3530000 	cmp	r3, #0, 0
    c084:	01a05485 	lsleq	r5, r5, #9
    c088:	e59f3104 	ldr	r3, [pc, #260]	; c194 <do_data_command+0x130>
    c08c:	e5932010 	ldr	r2, [r3, #16]
    c090:	e1520001 	cmp	r2, r1
    c094:	8a000010 	bhi	c0dc <do_data_command+0x78>
    c098:	e3520c02 	cmp	r2, #512	; 0x200
    c09c:	1a000012 	bne	c0ec <do_data_command+0x88>
    c0a0:	e1a034a1 	lsr	r3, r1, #9
    c0a4:	e59f20e8 	ldr	r2, [pc, #232]	; c194 <do_data_command+0x130>
    c0a8:	e5823004 	str	r3, [r2, #4]
    c0ac:	e1a02b81 	lsl	r2, r1, #23
    c0b0:	e1a02ba2 	lsr	r2, r2, #23
    c0b4:	e3520000 	cmp	r2, #0, 0
    c0b8:	1a000013 	bne	c10c <do_data_command+0xa8>
    c0bc:	e59f20d0 	ldr	r2, [pc, #208]	; c194 <do_data_command+0x130>
    c0c0:	e582c038 	str	ip, [r2, #56]	; 0x38
    c0c4:	e3500000 	cmp	r0, #0, 0
    c0c8:	0a000013 	beq	c11c <do_data_command+0xb8>
    c0cc:	e3530001 	cmp	r3, #1, 0
    c0d0:	9a000011 	bls	c11c <do_data_command+0xb8>
    c0d4:	e3a07019 	mov	r7, #25, 0
    c0d8:	ea000017 	b	c13c <do_data_command+0xd8>
    c0dc:	e59f00b4 	ldr	r0, [pc, #180]	; c198 <do_data_command+0x134>
    c0e0:	eb0002b5 	bl	cbbc <printk>
    c0e4:	e3a04000 	mov	r4, #0, 0
    c0e8:	ea000026 	b	c188 <do_data_command+0x124>
    c0ec:	e59f30a8 	ldr	r3, [pc, #168]	; c19c <do_data_command+0x138>
    c0f0:	e58d3000 	str	r3, [sp]
    c0f4:	e59f30a4 	ldr	r3, [pc, #164]	; c1a0 <do_data_command+0x13c>
    c0f8:	e59f20a4 	ldr	r2, [pc, #164]	; c1a4 <do_data_command+0x140>
    c0fc:	e59f10a4 	ldr	r1, [pc, #164]	; c1a8 <do_data_command+0x144>
    c100:	e59f00a4 	ldr	r0, [pc, #164]	; c1ac <do_data_command+0x148>
    c104:	eb0002ac 	bl	cbbc <printk>
    c108:	eb0003db 	bl	d07c <clean_reboot>
    c10c:	e59f009c 	ldr	r0, [pc, #156]	; c1b0 <do_data_command+0x14c>
    c110:	eb0002a9 	bl	cbbc <printk>
    c114:	e3a04000 	mov	r4, #0, 0
    c118:	ea00001a 	b	c188 <do_data_command+0x124>
    c11c:	e3500000 	cmp	r0, #0, 0
    c120:	1a000004 	bne	c138 <do_data_command+0xd4>
    c124:	e3530001 	cmp	r3, #1, 0
    c128:	83a07012 	movhi	r7, #18, 0
    c12c:	8a000002 	bhi	c13c <do_data_command+0xd8>
    c130:	e3a07011 	mov	r7, #17, 0
    c134:	ea000000 	b	c13c <do_data_command+0xd8>
    c138:	e3a07018 	mov	r7, #24, 0
    c13c:	e3a06000 	mov	r6, #0, 0
    c140:	e3560002 	cmp	r6, #2, 0
    c144:	ca00000e 	bgt	c184 <do_data_command+0x120>
    c148:	e59f2064 	ldr	r2, [pc, #100]	; c1b4 <do_data_command+0x150>
    c14c:	e1a01005 	mov	r1, r5
    c150:	e1a00007 	mov	r0, r7
    c154:	ebffff14 	bl	bdac <emmc_command>
    c158:	e2504000 	subs	r4, r0, #0, 0
    c15c:	1a000009 	bne	c188 <do_data_command+0x124>
    c160:	e2866001 	add	r6, r6, #1, 0
    c164:	e3560002 	cmp	r6, #2, 0
    c168:	ca000002 	bgt	c178 <do_data_command+0x114>
    c16c:	e59f0044 	ldr	r0, [pc, #68]	; c1b8 <do_data_command+0x154>
    c170:	eb000291 	bl	cbbc <printk>
    c174:	eafffff1 	b	c140 <do_data_command+0xdc>
    c178:	e59f003c 	ldr	r0, [pc, #60]	; c1bc <do_data_command+0x158>
    c17c:	eb00028e 	bl	cbbc <printk>
    c180:	ea000000 	b	c188 <do_data_command+0x124>
    c184:	e3a04001 	mov	r4, #1, 0
    c188:	e1a00004 	mov	r0, r4
    c18c:	e28dd00c 	add	sp, sp, #12, 0
    c190:	e8bd80f0 	pop	{r4, r5, r6, r7, pc}
    c194:	00010280 	.word	0x00010280
    c198:	0000f380 	.word	0x0000f380
    c19c:	0000f3b8 	.word	0x0000f3b8
    c1a0:	000002b1 	.word	0x000002b1
    c1a4:	0000f6bc 	.word	0x0000f6bc
    c1a8:	0000f3a0 	.word	0x0000f3a0
    c1ac:	0000da34 	.word	0x0000da34
    c1b0:	0000f3d4 	.word	0x0000f3d4
    c1b4:	00001388 	.word	0x00001388
    c1b8:	0000f3f0 	.word	0x0000f3f0
    c1bc:	0000f414 	.word	0x0000f414

0000c1c0 <emmc_setup_clock>:
    c1c0:	e92d4070 	push	{r4, r5, r6, lr}
    c1c4:	e59f5074 	ldr	r5, [pc, #116]	; c240 <emmc_setup_clock+0x80>
    c1c8:	e3a03000 	mov	r3, #0, 0
    c1cc:	e585303c 	str	r3, [r5, #60]	; 0x3c
    c1d0:	e595402c 	ldr	r4, [r5, #44]	; 0x2c
    c1d4:	e3844001 	orr	r4, r4, #1, 0
    c1d8:	e59f0064 	ldr	r0, [pc, #100]	; c244 <emmc_setup_clock+0x84>
    c1dc:	ebfffdc5 	bl	b8f8 <get_clock_divider>
    c1e0:	e1844000 	orr	r4, r4, r0
    c1e4:	e3c4480f 	bic	r4, r4, #983040	; 0xf0000
    c1e8:	e384480b 	orr	r4, r4, #720896	; 0xb0000
    c1ec:	e585402c 	str	r4, [r5, #44]	; 0x2c
    c1f0:	e3a03e7d 	mov	r3, #2000	; 0x7d0
    c1f4:	e3a02001 	mov	r2, #1, 0
    c1f8:	e3a01002 	mov	r1, #2, 0
    c1fc:	e59f0044 	ldr	r0, [pc, #68]	; c248 <emmc_setup_clock+0x88>
    c200:	ebfffe14 	bl	ba58 <wait_reg_mask>
    c204:	e2504000 	subs	r4, r0, #0, 0
    c208:	0a000009 	beq	c234 <emmc_setup_clock+0x74>
    c20c:	e3a0001e 	mov	r0, #30, 0
    c210:	eb000408 	bl	d238 <delay_ms>
    c214:	e59f2024 	ldr	r2, [pc, #36]	; c240 <emmc_setup_clock+0x80>
    c218:	e592302c 	ldr	r3, [r2, #44]	; 0x2c
    c21c:	e3833004 	orr	r3, r3, #4, 0
    c220:	e582302c 	str	r3, [r2, #44]	; 0x2c
    c224:	e3a0001e 	mov	r0, #30, 0
    c228:	eb000402 	bl	d238 <delay_ms>
    c22c:	e1a00004 	mov	r0, r4
    c230:	e8bd8070 	pop	{r4, r5, r6, pc}
    c234:	e59f0010 	ldr	r0, [pc, #16]	; c24c <emmc_setup_clock+0x8c>
    c238:	eb00025f 	bl	cbbc <printk>
    c23c:	eafffffa 	b	c22c <emmc_setup_clock+0x6c>
    c240:	20300000 	.word	0x20300000
    c244:	0ee6b280 	.word	0x0ee6b280
    c248:	2030002c 	.word	0x2030002c
    c24c:	0000f438 	.word	0x0000f438

0000c250 <emmc_app_command>:
    c250:	e92d4070 	push	{r4, r5, r6, lr}
    c254:	e59f307c 	ldr	r3, [pc, #124]	; c2d8 <emmc_app_command+0x88>
    c258:	e0833100 	add	r3, r3, r0, lsl #2
    c25c:	e5d33003 	ldrb	r3, [r3, #3]
    c260:	e203303f 	and	r3, r3, #63, 0	; 0x3f
    c264:	e353003b 	cmp	r3, #59, 0	; 0x3b
    c268:	8a000016 	bhi	c2c8 <emmc_app_command+0x78>
    c26c:	e1a04000 	mov	r4, r0
    c270:	e1a05001 	mov	r5, r1
    c274:	e59f3060 	ldr	r3, [pc, #96]	; c2dc <emmc_app_command+0x8c>
    c278:	e59f2058 	ldr	r2, [pc, #88]	; c2d8 <emmc_app_command+0x88>
    c27c:	e59220dc 	ldr	r2, [r2, #220]	; 0xdc
    c280:	e5832008 	str	r2, [r3, #8]
    c284:	e5931028 	ldr	r1, [r3, #40]	; 0x28
    c288:	e3510000 	cmp	r1, #0, 0
    c28c:	11a01801 	lslne	r1, r1, #16
    c290:	e3a02e7d 	mov	r2, #2000	; 0x7d0
    c294:	e59f3040 	ldr	r3, [pc, #64]	; c2dc <emmc_app_command+0x8c>
    c298:	e5930008 	ldr	r0, [r3, #8]
    c29c:	ebfffe40 	bl	bba4 <emmc_issue_command>
    c2a0:	e3500000 	cmp	r0, #0, 0
    c2a4:	08bd8070 	popeq	{r4, r5, r6, pc}
    c2a8:	e59f3028 	ldr	r3, [pc, #40]	; c2d8 <emmc_app_command+0x88>
    c2ac:	e7930104 	ldr	r0, [r3, r4, lsl #2]
    c2b0:	e59f3024 	ldr	r3, [pc, #36]	; c2dc <emmc_app_command+0x8c>
    c2b4:	e5830008 	str	r0, [r3, #8]
    c2b8:	e3a02e7d 	mov	r2, #2000	; 0x7d0
    c2bc:	e1a01005 	mov	r1, r5
    c2c0:	ebfffe37 	bl	bba4 <emmc_issue_command>
    c2c4:	e8bd8070 	pop	{r4, r5, r6, pc}
    c2c8:	e59f0010 	ldr	r0, [pc, #16]	; c2e0 <emmc_app_command+0x90>
    c2cc:	eb00023a 	bl	cbbc <printk>
    c2d0:	e3a00000 	mov	r0, #0, 0
    c2d4:	e8bd8070 	pop	{r4, r5, r6, pc}
    c2d8:	0000f5d8 	.word	0x0000f5d8
    c2dc:	00010280 	.word	0x00010280
    c2e0:	0000f458 	.word	0x0000f458

0000c2e4 <check_ocr>:
    c2e4:	e92d4010 	push	{r4, lr}
    c2e8:	e3a02e7d 	mov	r2, #2000	; 0x7d0
    c2ec:	e3a01000 	mov	r1, #0, 0
    c2f0:	e3a00029 	mov	r0, #41, 0	; 0x29
    c2f4:	ebffffd5 	bl	c250 <emmc_app_command>
    c2f8:	e2504000 	subs	r4, r0, #0, 0
    c2fc:	0a000005 	beq	c318 <check_ocr+0x34>
    c300:	e59f2020 	ldr	r2, [pc, #32]	; c328 <check_ocr+0x44>
    c304:	e5923014 	ldr	r3, [r2, #20]
    c308:	e1a03423 	lsr	r3, r3, #8
    c30c:	e1c232b6 	strh	r3, [r2, #38]	; 0x26
    c310:	e1a00004 	mov	r0, r4
    c314:	e8bd8010 	pop	{r4, pc}
    c318:	e3a01001 	mov	r1, #1, 0
    c31c:	e59f0008 	ldr	r0, [pc, #8]	; c32c <check_ocr+0x48>
    c320:	eb000225 	bl	cbbc <printk>
    c324:	eafffff9 	b	c310 <check_ocr+0x2c>
    c328:	00010280 	.word	0x00010280
    c32c:	0000f478 	.word	0x0000f478

0000c330 <check_sdhc_support>:
    c330:	e92d4070 	push	{r4, r5, r6, lr}
    c334:	e1a05000 	mov	r5, r0
    c338:	ea00000d 	b	c374 <check_sdhc_support+0x44>
    c33c:	e3a01101 	mov	r1, #1073741824	; 0x40000000
    c340:	e3a02e7d 	mov	r2, #2000	; 0x7d0
    c344:	e38118ff 	orr	r1, r1, #16711680	; 0xff0000
    c348:	e3811902 	orr	r1, r1, #32768	; 0x8000
    c34c:	e3a00029 	mov	r0, #41, 0	; 0x29
    c350:	ebffffbe 	bl	c250 <emmc_app_command>
    c354:	e2504000 	subs	r4, r0, #0, 0
    c358:	0a000009 	beq	c384 <check_sdhc_support+0x54>
    c35c:	e59f304c 	ldr	r3, [pc, #76]	; c3b0 <check_sdhc_support+0x80>
    c360:	e5933014 	ldr	r3, [r3, #20]
    c364:	e3530000 	cmp	r3, #0, 0
    c368:	ba000009 	blt	c394 <check_sdhc_support+0x64>
    c36c:	e3a00f7d 	mov	r0, #500	; 0x1f4
    c370:	eb0003b0 	bl	d238 <delay_ms>
    c374:	e3550000 	cmp	r5, #0, 0
    c378:	1affffef 	bne	c33c <check_sdhc_support+0xc>
    c37c:	e3a01000 	mov	r1, #0, 0
    c380:	eaffffee 	b	c340 <check_sdhc_support+0x10>
    c384:	e59f0028 	ldr	r0, [pc, #40]	; c3b4 <check_sdhc_support+0x84>
    c388:	eb00020b 	bl	cbbc <printk>
    c38c:	e1a00004 	mov	r0, r4
    c390:	e8bd8070 	pop	{r4, r5, r6, pc}
    c394:	e1a01423 	lsr	r1, r3, #8
    c398:	e59f2010 	ldr	r2, [pc, #16]	; c3b0 <check_sdhc_support+0x80>
    c39c:	e1c212b6 	strh	r1, [r2, #38]	; 0x26
    c3a0:	e1a03f23 	lsr	r3, r3, #30
    c3a4:	e2033001 	and	r3, r3, #1, 0
    c3a8:	e5c23024 	strb	r3, [r2, #36]	; 0x24
    c3ac:	eafffff6 	b	c38c <check_sdhc_support+0x5c>
    c3b0:	00010280 	.word	0x00010280
    c3b4:	0000f4a4 	.word	0x0000f4a4

0000c3b8 <set_scr>:
    c3b8:	e92d4010 	push	{r4, lr}
    c3bc:	e59f313c 	ldr	r3, [pc, #316]	; c500 <set_scr+0x148>
    c3c0:	e5d33024 	ldrb	r3, [r3, #36]	; 0x24
    c3c4:	e3530000 	cmp	r3, #0, 0
    c3c8:	1a000005 	bne	c3e4 <set_scr+0x2c>
    c3cc:	e3a02e7d 	mov	r2, #2000	; 0x7d0
    c3d0:	e3a01c02 	mov	r1, #512	; 0x200
    c3d4:	e3a00010 	mov	r0, #16, 0
    c3d8:	ebfffe73 	bl	bdac <emmc_command>
    c3dc:	e2504000 	subs	r4, r0, #0, 0
    c3e0:	0a00002a 	beq	c490 <set_scr+0xd8>
    c3e4:	e59f2118 	ldr	r2, [pc, #280]	; c504 <set_scr+0x14c>
    c3e8:	e5923004 	ldr	r3, [r2, #4]
    c3ec:	e3c33eff 	bic	r3, r3, #4080	; 0xff0
    c3f0:	e3c3300f 	bic	r3, r3, #15, 0
    c3f4:	e3833c02 	orr	r3, r3, #512	; 0x200
    c3f8:	e5823004 	str	r3, [r2, #4]
    c3fc:	e59f30fc 	ldr	r3, [pc, #252]	; c500 <set_scr+0x148>
    c400:	e2832048 	add	r2, r3, #72, 0	; 0x48
    c404:	e5832038 	str	r2, [r3, #56]	; 0x38
    c408:	e3a02008 	mov	r2, #8, 0
    c40c:	e5832010 	str	r2, [r3, #16]
    c410:	e3a02001 	mov	r2, #1, 0
    c414:	e5832004 	str	r2, [r3, #4]
    c418:	e59f20e8 	ldr	r2, [pc, #232]	; c508 <set_scr+0x150>
    c41c:	e3a01000 	mov	r1, #0, 0
    c420:	e3a00033 	mov	r0, #51, 0	; 0x33
    c424:	ebffff89 	bl	c250 <emmc_app_command>
    c428:	e2504000 	subs	r4, r0, #0, 0
    c42c:	0a00001a 	beq	c49c <set_scr+0xe4>
    c430:	e59f10c8 	ldr	r1, [pc, #200]	; c500 <set_scr+0x148>
    c434:	e3a03c02 	mov	r3, #512	; 0x200
    c438:	e5813010 	str	r3, [r1, #16]
    c43c:	e5913048 	ldr	r3, [r1, #72]	; 0x48
    c440:	e1a02403 	lsl	r2, r3, #8
    c444:	e20228ff 	and	r2, r2, #16711680	; 0xff0000
    c448:	e1822c03 	orr	r2, r2, r3, lsl #24
    c44c:	e1a03423 	lsr	r3, r3, #8
    c450:	e2033cff 	and	r3, r3, #65280	; 0xff00
    c454:	e1823003 	orr	r3, r2, r3
    c458:	e3e00000 	mvn	r0, #0, 0
    c45c:	e5810054 	str	r0, [r1, #84]	; 0x54
    c460:	e1a02c22 	lsr	r2, r2, #24
    c464:	e1a017a3 	lsr	r1, r3, #15
    c468:	e2011001 	and	r1, r1, #1, 0
    c46c:	e1a03523 	lsr	r3, r3, #10
    c470:	e2033001 	and	r3, r3, #1, 0
    c474:	e212200f 	ands	r2, r2, #15, 0
    c478:	1a00000a 	bne	c4a8 <set_scr+0xf0>
    c47c:	e59f307c 	ldr	r3, [pc, #124]	; c500 <set_scr+0x148>
    c480:	e3a02001 	mov	r2, #1, 0
    c484:	e5832054 	str	r2, [r3, #84]	; 0x54
    c488:	e1a00004 	mov	r0, r4
    c48c:	e8bd8010 	pop	{r4, pc}
    c490:	e59f0074 	ldr	r0, [pc, #116]	; c50c <set_scr+0x154>
    c494:	eb0001c8 	bl	cbbc <printk>
    c498:	eafffffa 	b	c488 <set_scr+0xd0>
    c49c:	e59f006c 	ldr	r0, [pc, #108]	; c510 <set_scr+0x158>
    c4a0:	eb0001c5 	bl	cbbc <printk>
    c4a4:	eafffff7 	b	c488 <set_scr+0xd0>
    c4a8:	e3520001 	cmp	r2, #1, 0
    c4ac:	0a000006 	beq	c4cc <set_scr+0x114>
    c4b0:	e3520002 	cmp	r2, #2, 0
    c4b4:	1afffff3 	bne	c488 <set_scr+0xd0>
    c4b8:	e3510000 	cmp	r1, #0, 0
    c4bc:	1a000006 	bne	c4dc <set_scr+0x124>
    c4c0:	e59f3038 	ldr	r3, [pc, #56]	; c500 <set_scr+0x148>
    c4c4:	e5832054 	str	r2, [r3, #84]	; 0x54
    c4c8:	eaffffee 	b	c488 <set_scr+0xd0>
    c4cc:	e59f302c 	ldr	r3, [pc, #44]	; c500 <set_scr+0x148>
    c4d0:	e3a0200b 	mov	r2, #11, 0
    c4d4:	e5832054 	str	r2, [r3, #84]	; 0x54
    c4d8:	eaffffea 	b	c488 <set_scr+0xd0>
    c4dc:	e3530000 	cmp	r3, #0, 0
    c4e0:	059f2018 	ldreq	r2, [pc, #24]	; c500 <set_scr+0x148>
    c4e4:	03a01003 	moveq	r1, #3, 0
    c4e8:	05821054 	streq	r1, [r2, #84]	; 0x54
    c4ec:	e3530000 	cmp	r3, #0, 0
    c4f0:	159f3008 	ldrne	r3, [pc, #8]	; c500 <set_scr+0x148>
    c4f4:	13a02004 	movne	r2, #4, 0
    c4f8:	15832054 	strne	r2, [r3, #84]	; 0x54
    c4fc:	eaffffe1 	b	c488 <set_scr+0xd0>
    c500:	00010280 	.word	0x00010280
    c504:	20300000 	.word	0x20300000
    c508:	00007530 	.word	0x00007530
    c50c:	0000f4c8 	.word	0x0000f4c8
    c510:	0000f4ec 	.word	0x0000f4ec

0000c514 <emmc_card_reset>:
    c514:	e92d4070 	push	{r4, r5, r6, lr}
    c518:	e59f30fc 	ldr	r3, [pc, #252]	; c61c <emmc_card_reset+0x108>
    c51c:	e3a02401 	mov	r2, #16777216	; 0x1000000
    c520:	e583202c 	str	r2, [r3, #44]	; 0x2c
    c524:	e3a03e7d 	mov	r3, #2000	; 0x7d0
    c528:	e3a02000 	mov	r2, #0, 0
    c52c:	e3a01407 	mov	r1, #117440512	; 0x7000000
    c530:	e59f00e8 	ldr	r0, [pc, #232]	; c620 <emmc_card_reset+0x10c>
    c534:	ebfffd47 	bl	ba58 <wait_reg_mask>
    c538:	e2504000 	subs	r4, r0, #0, 0
    c53c:	0a00002f 	beq	c600 <emmc_card_reset+0xec>
    c540:	ebffff1e 	bl	c1c0 <emmc_setup_clock>
    c544:	e2504000 	subs	r4, r0, #0, 0
    c548:	0a00002e 	beq	c608 <emmc_card_reset+0xf4>
    c54c:	e59f30c8 	ldr	r3, [pc, #200]	; c61c <emmc_card_reset+0x108>
    c550:	e3a04000 	mov	r4, #0, 0
    c554:	e5834038 	str	r4, [r3, #56]	; 0x38
    c558:	e3e02000 	mvn	r2, #0, 0
    c55c:	e5832030 	str	r2, [r3, #48]	; 0x30
    c560:	e5832034 	str	r2, [r3, #52]	; 0x34
    c564:	e3a000cb 	mov	r0, #203, 0	; 0xcb
    c568:	eb000332 	bl	d238 <delay_ms>
    c56c:	e59f30b0 	ldr	r3, [pc, #176]	; c624 <emmc_card_reset+0x110>
    c570:	e5834004 	str	r4, [r3, #4]
    c574:	e583400c 	str	r4, [r3, #12]
    c578:	e5c34000 	strb	r4, [r3]
    c57c:	e5834010 	str	r4, [r3, #16]
    c580:	e3a02e7d 	mov	r2, #2000	; 0x7d0
    c584:	e1a01004 	mov	r1, r4
    c588:	e1a00004 	mov	r0, r4
    c58c:	ebfffe06 	bl	bdac <emmc_command>
    c590:	e2504000 	subs	r4, r0, #0, 0
    c594:	0a00001d 	beq	c610 <emmc_card_reset+0xfc>
    c598:	ebfffe1e 	bl	be18 <check_v2_card>
    c59c:	e1a05000 	mov	r5, r0
    c5a0:	ebfffe4f 	bl	bee4 <check_usable_card>
    c5a4:	e2504000 	subs	r4, r0, #0, 0
    c5a8:	0a000016 	beq	c608 <emmc_card_reset+0xf4>
    c5ac:	ebffff4c 	bl	c2e4 <check_ocr>
    c5b0:	e2504000 	subs	r4, r0, #0, 0
    c5b4:	0a000013 	beq	c608 <emmc_card_reset+0xf4>
    c5b8:	e1a00005 	mov	r0, r5
    c5bc:	ebffff5b 	bl	c330 <check_sdhc_support>
    c5c0:	e2504000 	subs	r4, r0, #0, 0
    c5c4:	0a00000f 	beq	c608 <emmc_card_reset+0xf4>
    c5c8:	e3a0000a 	mov	r0, #10, 0
    c5cc:	eb000319 	bl	d238 <delay_ms>
    c5d0:	ebfffe64 	bl	bf68 <check_rca>
    c5d4:	e2504000 	subs	r4, r0, #0, 0
    c5d8:	0a00000a 	beq	c608 <emmc_card_reset+0xf4>
    c5dc:	ebfffe84 	bl	bff4 <select_card>
    c5e0:	e2504000 	subs	r4, r0, #0, 0
    c5e4:	0a000007 	beq	c608 <emmc_card_reset+0xf4>
    c5e8:	ebffff72 	bl	c3b8 <set_scr>
    c5ec:	e2504000 	subs	r4, r0, #0, 0
    c5f0:	159f3024 	ldrne	r3, [pc, #36]	; c61c <emmc_card_reset+0x108>
    c5f4:	13e02000 	mvnne	r2, #0, 0
    c5f8:	15832030 	strne	r2, [r3, #48]	; 0x30
    c5fc:	ea000001 	b	c608 <emmc_card_reset+0xf4>
    c600:	e59f0020 	ldr	r0, [pc, #32]	; c628 <emmc_card_reset+0x114>
    c604:	eb00016c 	bl	cbbc <printk>
    c608:	e1a00004 	mov	r0, r4
    c60c:	e8bd8070 	pop	{r4, r5, r6, pc}
    c610:	e59f0014 	ldr	r0, [pc, #20]	; c62c <emmc_card_reset+0x118>
    c614:	eb000168 	bl	cbbc <printk>
    c618:	eafffffa 	b	c608 <emmc_card_reset+0xf4>
    c61c:	20300000 	.word	0x20300000
    c620:	2030002c 	.word	0x2030002c
    c624:	00010280 	.word	0x00010280
    c628:	0000f50c 	.word	0x0000f50c
    c62c:	0000f52c 	.word	0x0000f52c

0000c630 <emmc_read>:
    c630:	e92d4030 	push	{r4, r5, lr}
    c634:	e24dd00c 	sub	sp, sp, #12, 0
    c638:	e1a03b82 	lsl	r3, r2, #23
    c63c:	e1a03ba3 	lsr	r3, r3, #23
    c640:	e3530000 	cmp	r3, #0, 0
    c644:	1a000009 	bne	c670 <emmc_read+0x40>
    c648:	e1a05000 	mov	r5, r0
    c64c:	e1a04002 	mov	r4, r2
    c650:	e1a03000 	mov	r3, r0
    c654:	e3a00000 	mov	r0, #0, 0
    c658:	ebfffe81 	bl	c064 <do_data_command>
    c65c:	e3500000 	cmp	r0, #0, 0
    c660:	0a00000a 	beq	c690 <emmc_read+0x60>
    c664:	e1a00004 	mov	r0, r4
    c668:	e28dd00c 	add	sp, sp, #12, 0
    c66c:	e8bd8030 	pop	{r4, r5, pc}
    c670:	e59f3030 	ldr	r3, [pc, #48]	; c6a8 <emmc_read+0x78>
    c674:	e58d3000 	str	r3, [sp]
    c678:	e59f302c 	ldr	r3, [pc, #44]	; c6ac <emmc_read+0x7c>
    c67c:	e59f202c 	ldr	r2, [pc, #44]	; c6b0 <emmc_read+0x80>
    c680:	e59f102c 	ldr	r1, [pc, #44]	; c6b4 <emmc_read+0x84>
    c684:	e59f002c 	ldr	r0, [pc, #44]	; c6b8 <emmc_read+0x88>
    c688:	eb00014b 	bl	cbbc <printk>
    c68c:	eb00027a 	bl	d07c <clean_reboot>
    c690:	e1a02004 	mov	r2, r4
    c694:	e1a01005 	mov	r1, r5
    c698:	e59f001c 	ldr	r0, [pc, #28]	; c6bc <emmc_read+0x8c>
    c69c:	eb000146 	bl	cbbc <printk>
    c6a0:	e3e00000 	mvn	r0, #0, 0
    c6a4:	eaffffef 	b	c668 <emmc_read+0x38>
    c6a8:	0000f54c 	.word	0x0000f54c
    c6ac:	000002dd 	.word	0x000002dd
    c6b0:	0000f6cc 	.word	0x0000f6cc
    c6b4:	0000f3a0 	.word	0x0000f3a0
    c6b8:	0000da34 	.word	0x0000da34
    c6bc:	0000f55c 	.word	0x0000f55c

0000c6c0 <emmc_write>:
    c6c0:	e92d4010 	push	{r4, lr}
    c6c4:	e24dd008 	sub	sp, sp, #8, 0
    c6c8:	e1a04002 	mov	r4, r2
    c6cc:	e1a02b82 	lsl	r2, r2, #23
    c6d0:	e1a02ba2 	lsr	r2, r2, #23
    c6d4:	e3520000 	cmp	r2, #0, 0
    c6d8:	1a000008 	bne	c700 <emmc_write+0x40>
    c6dc:	e1a03000 	mov	r3, r0
    c6e0:	e1a02004 	mov	r2, r4
    c6e4:	e3a00001 	mov	r0, #1, 0
    c6e8:	ebfffe5d 	bl	c064 <do_data_command>
    c6ec:	e3500000 	cmp	r0, #0, 0
    c6f0:	0a00000a 	beq	c720 <emmc_write+0x60>
    c6f4:	e1a00004 	mov	r0, r4
    c6f8:	e28dd008 	add	sp, sp, #8, 0
    c6fc:	e8bd8010 	pop	{r4, pc}
    c700:	e59f302c 	ldr	r3, [pc, #44]	; c734 <emmc_write+0x74>
    c704:	e58d3000 	str	r3, [sp]
    c708:	e3a03e2f 	mov	r3, #752	; 0x2f0
    c70c:	e59f2024 	ldr	r2, [pc, #36]	; c738 <emmc_write+0x78>
    c710:	e59f1024 	ldr	r1, [pc, #36]	; c73c <emmc_write+0x7c>
    c714:	e59f0024 	ldr	r0, [pc, #36]	; c740 <emmc_write+0x80>
    c718:	eb000127 	bl	cbbc <printk>
    c71c:	eb000256 	bl	d07c <clean_reboot>
    c720:	e1a01000 	mov	r1, r0
    c724:	e59f0018 	ldr	r0, [pc, #24]	; c744 <emmc_write+0x84>
    c728:	eb000123 	bl	cbbc <printk>
    c72c:	e3e00000 	mvn	r0, #0, 0
    c730:	eafffff0 	b	c6f8 <emmc_write+0x38>
    c734:	0000f54c 	.word	0x0000f54c
    c738:	0000f6d8 	.word	0x0000f6d8
    c73c:	0000f3a0 	.word	0x0000f3a0
    c740:	0000da34 	.word	0x0000da34
    c744:	0000f588 	.word	0x0000f588

0000c748 <emmc_init>:
    c748:	e92d4070 	push	{r4, r5, r6, lr}
    c74c:	e3a01000 	mov	r1, #0, 0
    c750:	e3a00022 	mov	r0, #34, 0	; 0x22
    c754:	eb0002c3 	bl	d268 <gpio_set_function>
    c758:	e3a01000 	mov	r1, #0, 0
    c75c:	e3a00023 	mov	r0, #35, 0	; 0x23
    c760:	eb0002c0 	bl	d268 <gpio_set_function>
    c764:	e3a01000 	mov	r1, #0, 0
    c768:	e3a00024 	mov	r0, #36, 0	; 0x24
    c76c:	eb0002bd 	bl	d268 <gpio_set_function>
    c770:	e3a01000 	mov	r1, #0, 0
    c774:	e3a00025 	mov	r0, #37, 0	; 0x25
    c778:	eb0002ba 	bl	d268 <gpio_set_function>
    c77c:	e3a01000 	mov	r1, #0, 0
    c780:	e3a00026 	mov	r0, #38, 0	; 0x26
    c784:	eb0002b7 	bl	d268 <gpio_set_function>
    c788:	e3a01000 	mov	r1, #0, 0
    c78c:	e3a00027 	mov	r0, #39, 0	; 0x27
    c790:	eb0002b4 	bl	d268 <gpio_set_function>
    c794:	e3a01007 	mov	r1, #7, 0
    c798:	e3a00030 	mov	r0, #48, 0	; 0x30
    c79c:	eb0002b1 	bl	d268 <gpio_set_function>
    c7a0:	e3a01007 	mov	r1, #7, 0
    c7a4:	e3a00031 	mov	r0, #49, 0	; 0x31
    c7a8:	eb0002ae 	bl	d268 <gpio_set_function>
    c7ac:	e3a01007 	mov	r1, #7, 0
    c7b0:	e3a00032 	mov	r0, #50, 0	; 0x32
    c7b4:	eb0002ab 	bl	d268 <gpio_set_function>
    c7b8:	e3a01007 	mov	r1, #7, 0
    c7bc:	e3a00033 	mov	r0, #51, 0	; 0x33
    c7c0:	eb0002a8 	bl	d268 <gpio_set_function>
    c7c4:	e3a01007 	mov	r1, #7, 0
    c7c8:	e3a00034 	mov	r0, #52, 0	; 0x34
    c7cc:	eb0002a5 	bl	d268 <gpio_set_function>
    c7d0:	e59f305c 	ldr	r3, [pc, #92]	; c834 <emmc_init+0xec>
    c7d4:	e3a00000 	mov	r0, #0, 0
    c7d8:	e5830004 	str	r0, [r3, #4]
    c7dc:	e583000c 	str	r0, [r3, #12]
    c7e0:	e5c30000 	strb	r0, [r3]
    c7e4:	e5830010 	str	r0, [r3, #16]
    c7e8:	e5c30024 	strb	r0, [r3, #36]	; 0x24
    c7ec:	e1c302b6 	strh	r0, [r3, #38]	; 0x26
    c7f0:	e5830028 	str	r0, [r3, #40]	; 0x28
    c7f4:	e583003c 	str	r0, [r3, #60]	; 0x3c
    c7f8:	e1a05000 	mov	r5, r0
    c7fc:	e1a04000 	mov	r4, r0
    c800:	e3550009 	cmp	r5, #9, 0
    c804:	ca000008 	bgt	c82c <emmc_init+0xe4>
    c808:	ebffff41 	bl	c514 <emmc_card_reset>
    c80c:	e2504000 	subs	r4, r0, #0, 0
    c810:	1a000005 	bne	c82c <emmc_init+0xe4>
    c814:	e3a00064 	mov	r0, #100, 0	; 0x64
    c818:	eb000286 	bl	d238 <delay_ms>
    c81c:	e59f0014 	ldr	r0, [pc, #20]	; c838 <emmc_init+0xf0>
    c820:	eb0000e5 	bl	cbbc <printk>
    c824:	e2855001 	add	r5, r5, #1, 0
    c828:	eafffff4 	b	c800 <emmc_init+0xb8>
    c82c:	e1a00004 	mov	r0, r4
    c830:	e8bd8070 	pop	{r4, r5, r6, pc}
    c834:	00010280 	.word	0x00010280
    c838:	0000f5a4 	.word	0x0000f5a4

0000c83c <rpi_clock_hz_set>:
    c83c:	e92d4070 	push	{r4, r5, r6, lr}
    c840:	e24dd008 	sub	sp, sp, #8, 0
    c844:	e1a06000 	mov	r6, r0
    c848:	e1a05001 	mov	r5, r1
    c84c:	e59f3138 	ldr	r3, [pc, #312]	; c98c <rpi_clock_hz_set+0x150>
    c850:	e5933000 	ldr	r3, [r3]
    c854:	e3530000 	cmp	r3, #0, 0
    c858:	0a00002f 	beq	c91c <rpi_clock_hz_set+0xe0>
    c85c:	e59f4128 	ldr	r4, [pc, #296]	; c98c <rpi_clock_hz_set+0x150>
    c860:	e3a02024 	mov	r2, #36, 0	; 0x24
    c864:	e3a01000 	mov	r1, #0, 0
    c868:	e5940000 	ldr	r0, [r4]
    c86c:	eb0000aa 	bl	cb1c <memset>
    c870:	e5944000 	ldr	r4, [r4]
    c874:	e3a03024 	mov	r3, #36, 0	; 0x24
    c878:	e5843000 	str	r3, [r4]
    c87c:	e3a03000 	mov	r3, #0, 0
    c880:	e5843004 	str	r3, [r4, #4]
    c884:	e59f2104 	ldr	r2, [pc, #260]	; c990 <rpi_clock_hz_set+0x154>
    c888:	e5842008 	str	r2, [r4, #8]
    c88c:	e3a0200c 	mov	r2, #12, 0
    c890:	e584200c 	str	r2, [r4, #12]
    c894:	e5843010 	str	r3, [r4, #16]
    c898:	e5846014 	str	r6, [r4, #20]
    c89c:	e5845018 	str	r5, [r4, #24]
    c8a0:	e584301c 	str	r3, [r4, #28]
    c8a4:	e5843020 	str	r3, [r4, #32]
    c8a8:	e314000f 	tst	r4, #15, 0
    c8ac:	1a000020 	bne	c934 <rpi_clock_hz_set+0xf8>
    c8b0:	eb000225 	bl	d14c <dev_barrier>
    c8b4:	e59f00d8 	ldr	r0, [pc, #216]	; c994 <rpi_clock_hz_set+0x158>
    c8b8:	ebffeddb 	bl	802c <GET32>
    c8bc:	e3500000 	cmp	r0, #0, 0
    c8c0:	bafffffb 	blt	c8b4 <rpi_clock_hz_set+0x78>
    c8c4:	e3841121 	orr	r1, r4, #1073741832	; 0x40000008
    c8c8:	e59f00c8 	ldr	r0, [pc, #200]	; c998 <rpi_clock_hz_set+0x15c>
    c8cc:	ebffedd4 	bl	8024 <PUT32>
    c8d0:	eb00021d 	bl	d14c <dev_barrier>
    c8d4:	eb00021c 	bl	d14c <dev_barrier>
    c8d8:	e59f00b4 	ldr	r0, [pc, #180]	; c994 <rpi_clock_hz_set+0x158>
    c8dc:	ebffedd2 	bl	802c <GET32>
    c8e0:	e3100101 	tst	r0, #1073741824	; 0x40000000
    c8e4:	1afffffb 	bne	c8d8 <rpi_clock_hz_set+0x9c>
    c8e8:	e59f00ac 	ldr	r0, [pc, #172]	; c99c <rpi_clock_hz_set+0x160>
    c8ec:	ebffedce 	bl	802c <GET32>
    c8f0:	e200000f 	and	r0, r0, #15, 0
    c8f4:	e3500008 	cmp	r0, #8, 0
    c8f8:	1a000015 	bne	c954 <rpi_clock_hz_set+0x118>
    c8fc:	e5943004 	ldr	r3, [r4, #4]
    c900:	e3530102 	cmp	r3, #-2147483648	; 0x80000000
    c904:	1a000018 	bne	c96c <rpi_clock_hz_set+0x130>
    c908:	e59f307c 	ldr	r3, [pc, #124]	; c98c <rpi_clock_hz_set+0x150>
    c90c:	e5933000 	ldr	r3, [r3]
    c910:	e5930018 	ldr	r0, [r3, #24]
    c914:	e28dd008 	add	sp, sp, #8, 0
    c918:	e8bd8070 	pop	{r4, r5, r6, pc}
    c91c:	e3a01010 	mov	r1, #16, 0
    c920:	e3a00024 	mov	r0, #36, 0	; 0x24
    c924:	eb0003be 	bl	d824 <kmalloc_aligned>
    c928:	e59f305c 	ldr	r3, [pc, #92]	; c98c <rpi_clock_hz_set+0x150>
    c92c:	e5830000 	str	r0, [r3]
    c930:	eaffffc9 	b	c85c <rpi_clock_hz_set+0x20>
    c934:	e59f3064 	ldr	r3, [pc, #100]	; c9a0 <rpi_clock_hz_set+0x164>
    c938:	e58d3000 	str	r3, [sp]
    c93c:	e3a03042 	mov	r3, #66, 0	; 0x42
    c940:	e59f205c 	ldr	r2, [pc, #92]	; c9a4 <rpi_clock_hz_set+0x168>
    c944:	e59f105c 	ldr	r1, [pc, #92]	; c9a8 <rpi_clock_hz_set+0x16c>
    c948:	e59f005c 	ldr	r0, [pc, #92]	; c9ac <rpi_clock_hz_set+0x170>
    c94c:	eb00009a 	bl	cbbc <printk>
    c950:	eb0001c9 	bl	d07c <clean_reboot>
    c954:	e3a03061 	mov	r3, #97, 0	; 0x61
    c958:	e59f2050 	ldr	r2, [pc, #80]	; c9b0 <rpi_clock_hz_set+0x174>
    c95c:	e59f1044 	ldr	r1, [pc, #68]	; c9a8 <rpi_clock_hz_set+0x16c>
    c960:	e59f004c 	ldr	r0, [pc, #76]	; c9b4 <rpi_clock_hz_set+0x178>
    c964:	eb000094 	bl	cbbc <printk>
    c968:	eb0001c3 	bl	d07c <clean_reboot>
    c96c:	e5943004 	ldr	r3, [r4, #4]
    c970:	e58d3000 	str	r3, [sp]
    c974:	e3a0306e 	mov	r3, #110, 0	; 0x6e
    c978:	e59f2038 	ldr	r2, [pc, #56]	; c9b8 <rpi_clock_hz_set+0x17c>
    c97c:	e59f1024 	ldr	r1, [pc, #36]	; c9a8 <rpi_clock_hz_set+0x16c>
    c980:	e59f0034 	ldr	r0, [pc, #52]	; c9bc <rpi_clock_hz_set+0x180>
    c984:	eb00008c 	bl	cbbc <printk>
    c988:	eb0001bb 	bl	d07c <clean_reboot>
    c98c:	000102d8 	.word	0x000102d8
    c990:	00038002 	.word	0x00038002
    c994:	2000b898 	.word	0x2000b898
    c998:	2000b8a0 	.word	0x2000b8a0
    c99c:	2000b880 	.word	0x2000b880
    c9a0:	0000f6fc 	.word	0x0000f6fc
    c9a4:	0000f788 	.word	0x0000f788
    c9a8:	0000f6e4 	.word	0x0000f6e4
    c9ac:	0000da34 	.word	0x0000da34
    c9b0:	0000f794 	.word	0x0000f794
    c9b4:	0000f714 	.word	0x0000f714
    c9b8:	0000f7a0 	.word	0x0000f7a0
    c9bc:	0000f75c 	.word	0x0000f75c

0000c9c0 <our_crc32_inc>:
    c9c0:	e1e02002 	mvn	r2, r2
    c9c4:	e241c001 	sub	ip, r1, #1, 0
    c9c8:	e3510000 	cmp	r1, #0, 0
    c9cc:	0a000007 	beq	c9f0 <our_crc32_inc+0x30>
    c9d0:	e4d03001 	ldrb	r3, [r0], #1
    c9d4:	e0233002 	eor	r3, r3, r2
    c9d8:	e6ef3073 	uxtb	r3, r3
    c9dc:	e59f1014 	ldr	r1, [pc, #20]	; c9f8 <our_crc32_inc+0x38>
    c9e0:	e7913103 	ldr	r3, [r1, r3, lsl #2]
    c9e4:	e0232422 	eor	r2, r3, r2, lsr #8
    c9e8:	e1a0100c 	mov	r1, ip
    c9ec:	eafffff4 	b	c9c4 <our_crc32_inc+0x4>
    c9f0:	e1e00002 	mvn	r0, r2
    c9f4:	e12fff1e 	bx	lr
    c9f8:	0000f7ac 	.word	0x0000f7ac

0000c9fc <our_crc32>:
    c9fc:	e92d4010 	push	{r4, lr}
    ca00:	e3a02000 	mov	r2, #0, 0
    ca04:	ebffffed 	bl	c9c0 <our_crc32_inc>
    ca08:	e8bd8010 	pop	{r4, pc}

0000ca0c <memcmp>:
    ca0c:	e52de004 	push	{lr}		; (str lr, [sp, #-4]!)
    ca10:	e1a0e000 	mov	lr, r0
    ca14:	e3a03000 	mov	r3, #0, 0
    ca18:	e1530002 	cmp	r3, r2
    ca1c:	2a000005 	bcs	ca38 <memcmp+0x2c>
    ca20:	e7dec003 	ldrb	ip, [lr, r3]
    ca24:	e7d10003 	ldrb	r0, [r1, r3]
    ca28:	e05c0000 	subs	r0, ip, r0
    ca2c:	149df004 	popne	{pc}		; (ldrne pc, [sp], #4)
    ca30:	e2833001 	add	r3, r3, #1, 0
    ca34:	eafffff7 	b	ca18 <memcmp+0xc>
    ca38:	e3a00000 	mov	r0, #0, 0
    ca3c:	e49df004 	pop	{pc}		; (ldr pc, [sp], #4)

0000ca40 <memcpy>:
    ca40:	e3100007 	tst	r0, #7, 0
    ca44:	1a00000f 	bne	ca88 <memcpy+0x48>
    ca48:	e3110007 	tst	r1, #7, 0
    ca4c:	1a00000d 	bne	ca88 <memcpy+0x48>
    ca50:	e2123007 	ands	r3, r2, #7, 0
    ca54:	1a00000b 	bne	ca88 <memcpy+0x48>
    ca58:	e1a021a2 	lsr	r2, r2, #3
    ca5c:	e1530002 	cmp	r3, r2
    ca60:	212fff1e 	bxcs	lr
    ca64:	e92d0030 	push	{r4, r5}
    ca68:	e1a0c183 	lsl	ip, r3, #3
    ca6c:	e18140dc 	ldrd	r4, [r1, ip]
    ca70:	e18040fc 	strd	r4, [r0, ip]
    ca74:	e2833001 	add	r3, r3, #1, 0
    ca78:	e1530002 	cmp	r3, r2
    ca7c:	3afffff9 	bcc	ca68 <memcpy+0x28>
    ca80:	e8bd0030 	pop	{r4, r5}
    ca84:	e12fff1e 	bx	lr
    ca88:	e2103003 	ands	r3, r0, #3, 0
    ca8c:	1a000011 	bne	cad8 <memcpy+0x98>
    ca90:	e211c003 	ands	ip, r1, #3, 0
    ca94:	1a00000c 	bne	cacc <memcpy+0x8c>
    ca98:	e2123003 	ands	r3, r2, #3, 0
    ca9c:	1a00000f 	bne	cae0 <memcpy+0xa0>
    caa0:	e1a02122 	lsr	r2, r2, #2
    caa4:	ea000002 	b	cab4 <memcpy+0x74>
    caa8:	e791c103 	ldr	ip, [r1, r3, lsl #2]
    caac:	e780c103 	str	ip, [r0, r3, lsl #2]
    cab0:	e2833001 	add	r3, r3, #1, 0
    cab4:	e1530002 	cmp	r3, r2
    cab8:	3afffffa 	bcc	caa8 <memcpy+0x68>
    cabc:	e12fff1e 	bx	lr
    cac0:	e7d1c003 	ldrb	ip, [r1, r3]
    cac4:	e7c0c003 	strb	ip, [r0, r3]
    cac8:	e2833001 	add	r3, r3, #1, 0
    cacc:	e1530002 	cmp	r3, r2
    cad0:	3afffffa 	bcc	cac0 <memcpy+0x80>
    cad4:	e12fff1e 	bx	lr
    cad8:	e3a03000 	mov	r3, #0, 0
    cadc:	eafffffa 	b	cacc <memcpy+0x8c>
    cae0:	e1a0300c 	mov	r3, ip
    cae4:	eafffff8 	b	cacc <memcpy+0x8c>

0000cae8 <memcpy_end>:
    cae8:	e12fff1e 	bx	lr

0000caec <memiszero>:
    caec:	e3a03000 	mov	r3, #0, 0
    caf0:	e1530001 	cmp	r3, r1
    caf4:	2a000004 	bcs	cb0c <memiszero+0x20>
    caf8:	e7d02003 	ldrb	r2, [r0, r3]
    cafc:	e3520000 	cmp	r2, #0, 0
    cb00:	1a000003 	bne	cb14 <memiszero+0x28>
    cb04:	e2833001 	add	r3, r3, #1, 0
    cb08:	eafffff8 	b	caf0 <memiszero+0x4>
    cb0c:	e3a00001 	mov	r0, #1, 0
    cb10:	e12fff1e 	bx	lr
    cb14:	e3a00000 	mov	r0, #0, 0
    cb18:	e12fff1e 	bx	lr

0000cb1c <memset>:
    cb1c:	e3520000 	cmp	r2, #0, 0
    cb20:	012fff1e 	bxeq	lr
    cb24:	e3510000 	cmp	r1, #0, 0
    cb28:	1a000007 	bne	cb4c <memset+0x30>
    cb2c:	e3100007 	tst	r0, #7, 0
    cb30:	1a000001 	bne	cb3c <memset+0x20>
    cb34:	e3120007 	tst	r2, #7, 0
    cb38:	0a000011 	beq	cb84 <memset+0x68>
    cb3c:	e3100003 	tst	r0, #3, 0
    cb40:	1a000001 	bne	cb4c <memset+0x30>
    cb44:	e3120003 	tst	r2, #3, 0
    cb48:	0a000001 	beq	cb54 <memset+0x38>
    cb4c:	e0802002 	add	r2, r0, r2
    cb50:	ea000008 	b	cb78 <memset+0x5c>
    cb54:	e1a02122 	lsr	r2, r2, #2
    cb58:	ea000001 	b	cb64 <memset+0x48>
    cb5c:	e4801004 	str	r1, [r0], #4
    cb60:	e1a02003 	mov	r2, r3
    cb64:	e2423001 	sub	r3, r2, #1, 0
    cb68:	e3520000 	cmp	r2, #0, 0
    cb6c:	1afffffa 	bne	cb5c <memset+0x40>
    cb70:	e12fff1e 	bx	lr
    cb74:	e4c01001 	strb	r1, [r0], #1
    cb78:	e1500002 	cmp	r0, r2
    cb7c:	3afffffc 	bcc	cb74 <memset+0x58>
    cb80:	e12fff1e 	bx	lr
    cb84:	e1a021a2 	lsr	r2, r2, #3
    cb88:	e2423001 	sub	r3, r2, #1, 0
    cb8c:	e3520000 	cmp	r2, #0, 0
    cb90:	012fff1e 	bxeq	lr
    cb94:	e92d0030 	push	{r4, r5}
    cb98:	e1a04001 	mov	r4, r1
    cb9c:	e1a05fc1 	asr	r5, r1, #31
    cba0:	e0c040f8 	strd	r4, [r0], #8
    cba4:	e1a02003 	mov	r2, r3
    cba8:	e2433001 	sub	r3, r3, #1, 0
    cbac:	e3520000 	cmp	r2, #0, 0
    cbb0:	1afffff8 	bne	cb98 <memset+0x7c>
    cbb4:	e8bd0030 	pop	{r4, r5}
    cbb8:	e12fff1e 	bx	lr

0000cbbc <printk>:
    cbbc:	e92d000f 	push	{r0, r1, r2, r3}
    cbc0:	e52de004 	push	{lr}		; (str lr, [sp, #-4]!)
    cbc4:	e24dd00c 	sub	sp, sp, #12, 0
    cbc8:	e28d1014 	add	r1, sp, #20, 0
    cbcc:	e58d1004 	str	r1, [sp, #4]
    cbd0:	e59d0010 	ldr	r0, [sp, #16]
    cbd4:	eb000047 	bl	ccf8 <vprintk>
    cbd8:	e28dd00c 	add	sp, sp, #12, 0
    cbdc:	e49de004 	pop	{lr}		; (ldr lr, [sp], #4)
    cbe0:	e28dd010 	add	sp, sp, #16, 0
    cbe4:	e12fff1e 	bx	lr

0000cbe8 <emit_val>:
    cbe8:	e92d4010 	push	{r4, lr}
    cbec:	e24dd030 	sub	sp, sp, #48, 0	; 0x30
    cbf0:	e350000a 	cmp	r0, #10, 0
    cbf4:	0a000014 	beq	cc4c <emit_val+0x64>
    cbf8:	e3500010 	cmp	r0, #16, 0
    cbfc:	0a000022 	beq	cc8c <emit_val+0xa4>
    cc00:	e3500002 	cmp	r0, #2, 0
    cc04:	0a000006 	beq	cc24 <emit_val+0x3c>
    cc08:	e58d0000 	str	r0, [sp]
    cc0c:	e3a0301b 	mov	r3, #27, 0
    cc10:	e59f20c0 	ldr	r2, [pc, #192]	; ccd8 <emit_val+0xf0>
    cc14:	e59f10c0 	ldr	r1, [pc, #192]	; ccdc <emit_val+0xf4>
    cc18:	e59f00c0 	ldr	r0, [pc, #192]	; cce0 <emit_val+0xf8>
    cc1c:	ebffffe6 	bl	cbbc <printk>
    cc20:	eb000115 	bl	d07c <clean_reboot>
    cc24:	e28d400c 	add	r4, sp, #12, 0
    cc28:	e2012001 	and	r2, r1, #1, 0
    cc2c:	e59f00b0 	ldr	r0, [pc, #176]	; cce4 <emit_val+0xfc>
    cc30:	e7d02002 	ldrb	r2, [r0, r2]
    cc34:	e5c42000 	strb	r2, [r4]
    cc38:	e2844001 	add	r4, r4, #1, 0
    cc3c:	e3510001 	cmp	r1, #1, 0
    cc40:	e1a010a1 	lsr	r1, r1, #1
    cc44:	8afffff7 	bhi	cc28 <emit_val+0x40>
    cc48:	ea00001d 	b	ccc4 <emit_val+0xdc>
    cc4c:	e28d400c 	add	r4, sp, #12, 0
    cc50:	e59f3090 	ldr	r3, [pc, #144]	; cce8 <emit_val+0x100>
    cc54:	e0832193 	umull	r2, r3, r3, r1
    cc58:	e1a031a3 	lsr	r3, r3, #3
    cc5c:	e1a00003 	mov	r0, r3
    cc60:	e0833103 	add	r3, r3, r3, lsl #2
    cc64:	e0413083 	sub	r3, r1, r3, lsl #1
    cc68:	e59fc07c 	ldr	ip, [pc, #124]	; ccec <emit_val+0x104>
    cc6c:	e7dcc003 	ldrb	ip, [ip, r3]
    cc70:	e5c4c000 	strb	ip, [r4]
    cc74:	e2844001 	add	r4, r4, #1, 0
    cc78:	e1a03001 	mov	r3, r1
    cc7c:	e1a01000 	mov	r1, r0
    cc80:	e3530009 	cmp	r3, #9, 0
    cc84:	8afffff1 	bhi	cc50 <emit_val+0x68>
    cc88:	ea00000d 	b	ccc4 <emit_val+0xdc>
    cc8c:	e28d400c 	add	r4, sp, #12, 0
    cc90:	e201200f 	and	r2, r1, #15, 0
    cc94:	e59f0054 	ldr	r0, [pc, #84]	; ccf0 <emit_val+0x108>
    cc98:	e7d02002 	ldrb	r2, [r0, r2]
    cc9c:	e5c42000 	strb	r2, [r4]
    cca0:	e2844001 	add	r4, r4, #1, 0
    cca4:	e351000f 	cmp	r1, #15, 0
    cca8:	e1a01221 	lsr	r1, r1, #4
    ccac:	8afffff7 	bhi	cc90 <emit_val+0xa8>
    ccb0:	ea000003 	b	ccc4 <emit_val+0xdc>
    ccb4:	e59f3038 	ldr	r3, [pc, #56]	; ccf4 <emit_val+0x10c>
    ccb8:	e5933000 	ldr	r3, [r3]
    ccbc:	e5740001 	ldrb	r0, [r4, #-1]!
    ccc0:	e12fff33 	blx	r3
    ccc4:	e28d300c 	add	r3, sp, #12, 0
    ccc8:	e1540003 	cmp	r4, r3
    cccc:	8afffff8 	bhi	ccb4 <emit_val+0xcc>
    ccd0:	e28dd030 	add	sp, sp, #48, 0	; 0x30
    ccd4:	e8bd8010 	pop	{r4, pc}
    ccd8:	0000fc64 	.word	0x0000fc64
    ccdc:	0000fbac 	.word	0x0000fbac
    cce0:	0000fbbc 	.word	0x0000fbbc
    cce4:	0000fbe0 	.word	0x0000fbe0
    cce8:	cccccccd 	.word	0xcccccccd
    ccec:	0000fbe4 	.word	0x0000fbe4
    ccf0:	0000fbf0 	.word	0x0000fbf0
    ccf4:	0000ffa8 	.word	0x0000ffa8

0000ccf8 <vprintk>:
    ccf8:	e92d4030 	push	{r4, r5, lr}
    ccfc:	e24dd014 	sub	sp, sp, #20, 0
    cd00:	e1a04000 	mov	r4, r0
    cd04:	e58d100c 	str	r1, [sp, #12]
    cd08:	ea000003 	b	cd1c <vprintk+0x24>
    cd0c:	e59f3288 	ldr	r3, [pc, #648]	; cf9c <vprintk+0x2a4>
    cd10:	e5933000 	ldr	r3, [r3]
    cd14:	e12fff33 	blx	r3
    cd18:	e2844001 	add	r4, r4, #1, 0
    cd1c:	e5d40000 	ldrb	r0, [r4]
    cd20:	e3500000 	cmp	r0, #0, 0
    cd24:	0a00009a 	beq	cf94 <vprintk+0x29c>
    cd28:	e3500025 	cmp	r0, #37, 0	; 0x25
    cd2c:	1afffff6 	bne	cd0c <vprintk+0x14>
    cd30:	e2845001 	add	r5, r4, #1, 0
    cd34:	e5d42001 	ldrb	r2, [r4, #1]
    cd38:	e2423062 	sub	r3, r2, #98, 0	; 0x62
    cd3c:	e3530016 	cmp	r3, #22, 0
    cd40:	979ff103 	ldrls	pc, [pc, r3, lsl #2]
    cd44:	ea00008b 	b	cf78 <vprintk+0x280>
    cd48:	0000cda4 	.word	0x0000cda4
    cd4c:	0000cde4 	.word	0x0000cde4
    cd50:	0000cefc 	.word	0x0000cefc
    cd54:	0000cf78 	.word	0x0000cf78
    cd58:	0000cf78 	.word	0x0000cf78
    cd5c:	0000cf78 	.word	0x0000cf78
    cd60:	0000cf78 	.word	0x0000cf78
    cd64:	0000cf78 	.word	0x0000cf78
    cd68:	0000cf78 	.word	0x0000cf78
    cd6c:	0000cf78 	.word	0x0000cf78
    cd70:	0000ce08 	.word	0x0000ce08
    cd74:	0000cf78 	.word	0x0000cf78
    cd78:	0000cf78 	.word	0x0000cf78
    cd7c:	0000cf78 	.word	0x0000cf78
    cd80:	0000cec0 	.word	0x0000cec0
    cd84:	0000cf78 	.word	0x0000cf78
    cd88:	0000cf78 	.word	0x0000cf78
    cd8c:	0000cf40 	.word	0x0000cf40
    cd90:	0000cf78 	.word	0x0000cf78
    cd94:	0000cdc4 	.word	0x0000cdc4
    cd98:	0000cf78 	.word	0x0000cf78
    cd9c:	0000cf78 	.word	0x0000cf78
    cda0:	0000cec0 	.word	0x0000cec0
    cda4:	e59d300c 	ldr	r3, [sp, #12]
    cda8:	e2832004 	add	r2, r3, #4, 0
    cdac:	e58d200c 	str	r2, [sp, #12]
    cdb0:	e5931000 	ldr	r1, [r3]
    cdb4:	e3a00002 	mov	r0, #2, 0
    cdb8:	ebffff8a 	bl	cbe8 <emit_val>
    cdbc:	e1a04005 	mov	r4, r5
    cdc0:	eaffffd4 	b	cd18 <vprintk+0x20>
    cdc4:	e59d300c 	ldr	r3, [sp, #12]
    cdc8:	e2832004 	add	r2, r3, #4, 0
    cdcc:	e58d200c 	str	r2, [sp, #12]
    cdd0:	e5931000 	ldr	r1, [r3]
    cdd4:	e3a0000a 	mov	r0, #10, 0
    cdd8:	ebffff82 	bl	cbe8 <emit_val>
    cddc:	e1a04005 	mov	r4, r5
    cde0:	eaffffcc 	b	cd18 <vprintk+0x20>
    cde4:	e59f31b0 	ldr	r3, [pc, #432]	; cf9c <vprintk+0x2a4>
    cde8:	e5932000 	ldr	r2, [r3]
    cdec:	e59d300c 	ldr	r3, [sp, #12]
    cdf0:	e2831004 	add	r1, r3, #4, 0
    cdf4:	e58d100c 	str	r1, [sp, #12]
    cdf8:	e5930000 	ldr	r0, [r3]
    cdfc:	e12fff32 	blx	r2
    ce00:	e1a04005 	mov	r4, r5
    ce04:	eaffffc3 	b	cd18 <vprintk+0x20>
    ce08:	e2842002 	add	r2, r4, #2, 0
    ce0c:	e5d43002 	ldrb	r3, [r4, #2]
    ce10:	e353006c 	cmp	r3, #108, 0	; 0x6c
    ce14:	1a000018 	bne	ce7c <vprintk+0x184>
    ce18:	e2845003 	add	r5, r4, #3, 0
    ce1c:	e5d43003 	ldrb	r3, [r4, #3]
    ce20:	e3530078 	cmp	r3, #120, 0	; 0x78
    ce24:	1a00001b 	bne	ce98 <vprintk+0x1a0>
    ce28:	e59f416c 	ldr	r4, [pc, #364]	; cf9c <vprintk+0x2a4>
    ce2c:	e5943000 	ldr	r3, [r4]
    ce30:	e3a00030 	mov	r0, #48, 0	; 0x30
    ce34:	e12fff33 	blx	r3
    ce38:	e5943000 	ldr	r3, [r4]
    ce3c:	e3a00078 	mov	r0, #120, 0	; 0x78
    ce40:	e12fff33 	blx	r3
    ce44:	e59d300c 	ldr	r3, [sp, #12]
    ce48:	e2833007 	add	r3, r3, #7, 0
    ce4c:	e3c33007 	bic	r3, r3, #7, 0
    ce50:	e2832008 	add	r2, r3, #8, 0
    ce54:	e58d200c 	str	r2, [sp, #12]
    ce58:	e5934000 	ldr	r4, [r3]
    ce5c:	e5931004 	ldr	r1, [r3, #4]
    ce60:	e3510000 	cmp	r1, #0, 0
    ce64:	1a000012 	bne	ceb4 <vprintk+0x1bc>
    ce68:	e1a01004 	mov	r1, r4
    ce6c:	e3a00010 	mov	r0, #16, 0
    ce70:	ebffff5c 	bl	cbe8 <emit_val>
    ce74:	e1a04005 	mov	r4, r5
    ce78:	eaffffa6 	b	cd18 <vprintk+0x20>
    ce7c:	e58d2000 	str	r2, [sp]
    ce80:	e3a0303b 	mov	r3, #59, 0	; 0x3b
    ce84:	e59f2114 	ldr	r2, [pc, #276]	; cfa0 <vprintk+0x2a8>
    ce88:	e59f1114 	ldr	r1, [pc, #276]	; cfa4 <vprintk+0x2ac>
    ce8c:	e59f0114 	ldr	r0, [pc, #276]	; cfa8 <vprintk+0x2b0>
    ce90:	ebffff49 	bl	cbbc <printk>
    ce94:	eb000078 	bl	d07c <clean_reboot>
    ce98:	e58d5000 	str	r5, [sp]
    ce9c:	e3a0303e 	mov	r3, #62, 0	; 0x3e
    cea0:	e59f20f8 	ldr	r2, [pc, #248]	; cfa0 <vprintk+0x2a8>
    cea4:	e59f10f8 	ldr	r1, [pc, #248]	; cfa4 <vprintk+0x2ac>
    cea8:	e59f00f8 	ldr	r0, [pc, #248]	; cfa8 <vprintk+0x2b0>
    ceac:	ebffff42 	bl	cbbc <printk>
    ceb0:	eb000071 	bl	d07c <clean_reboot>
    ceb4:	e3a00010 	mov	r0, #16, 0
    ceb8:	ebffff4a 	bl	cbe8 <emit_val>
    cebc:	eaffffe9 	b	ce68 <vprintk+0x170>
    cec0:	e59f40d4 	ldr	r4, [pc, #212]	; cf9c <vprintk+0x2a4>
    cec4:	e5943000 	ldr	r3, [r4]
    cec8:	e3a00030 	mov	r0, #48, 0	; 0x30
    cecc:	e12fff33 	blx	r3
    ced0:	e5943000 	ldr	r3, [r4]
    ced4:	e3a00078 	mov	r0, #120, 0	; 0x78
    ced8:	e12fff33 	blx	r3
    cedc:	e59d300c 	ldr	r3, [sp, #12]
    cee0:	e2832004 	add	r2, r3, #4, 0
    cee4:	e58d200c 	str	r2, [sp, #12]
    cee8:	e5931000 	ldr	r1, [r3]
    ceec:	e3a00010 	mov	r0, #16, 0
    cef0:	ebffff3c 	bl	cbe8 <emit_val>
    cef4:	e1a04005 	mov	r4, r5
    cef8:	eaffff86 	b	cd18 <vprintk+0x20>
    cefc:	e59d300c 	ldr	r3, [sp, #12]
    cf00:	e2832004 	add	r2, r3, #4, 0
    cf04:	e58d200c 	str	r2, [sp, #12]
    cf08:	e5934000 	ldr	r4, [r3]
    cf0c:	e3540000 	cmp	r4, #0, 0
    cf10:	ba000004 	blt	cf28 <vprintk+0x230>
    cf14:	e1a01004 	mov	r1, r4
    cf18:	e3a0000a 	mov	r0, #10, 0
    cf1c:	ebffff31 	bl	cbe8 <emit_val>
    cf20:	e1a04005 	mov	r4, r5
    cf24:	eaffff7b 	b	cd18 <vprintk+0x20>
    cf28:	e59f306c 	ldr	r3, [pc, #108]	; cf9c <vprintk+0x2a4>
    cf2c:	e5933000 	ldr	r3, [r3]
    cf30:	e3a0002d 	mov	r0, #45, 0	; 0x2d
    cf34:	e12fff33 	blx	r3
    cf38:	e2644000 	rsb	r4, r4, #0, 0
    cf3c:	eafffff4 	b	cf14 <vprintk+0x21c>
    cf40:	e59d300c 	ldr	r3, [sp, #12]
    cf44:	e2832004 	add	r2, r3, #4, 0
    cf48:	e58d200c 	str	r2, [sp, #12]
    cf4c:	e5934000 	ldr	r4, [r3]
    cf50:	e5d40000 	ldrb	r0, [r4]
    cf54:	e3500000 	cmp	r0, #0, 0
    cf58:	0a000004 	beq	cf70 <vprintk+0x278>
    cf5c:	e59f3038 	ldr	r3, [pc, #56]	; cf9c <vprintk+0x2a4>
    cf60:	e5933000 	ldr	r3, [r3]
    cf64:	e12fff33 	blx	r3
    cf68:	e2844001 	add	r4, r4, #1, 0
    cf6c:	eafffff7 	b	cf50 <vprintk+0x258>
    cf70:	e1a04005 	mov	r4, r5
    cf74:	eaffff67 	b	cd18 <vprintk+0x20>
    cf78:	e58d2000 	str	r2, [sp]
    cf7c:	e3a03062 	mov	r3, #98, 0	; 0x62
    cf80:	e59f2018 	ldr	r2, [pc, #24]	; cfa0 <vprintk+0x2a8>
    cf84:	e59f1018 	ldr	r1, [pc, #24]	; cfa4 <vprintk+0x2ac>
    cf88:	e59f001c 	ldr	r0, [pc, #28]	; cfac <vprintk+0x2b4>
    cf8c:	ebffff0a 	bl	cbbc <printk>
    cf90:	eb000039 	bl	d07c <clean_reboot>
    cf94:	e28dd014 	add	sp, sp, #20, 0
    cf98:	e8bd8030 	pop	{r4, r5, pc}
    cf9c:	0000ffa8 	.word	0x0000ffa8
    cfa0:	0000fc70 	.word	0x0000fc70
    cfa4:	0000fbac 	.word	0x0000fbac
    cfa8:	0000fc04 	.word	0x0000fc04
    cfac:	0000fc3c 	.word	0x0000fc3c

0000cfb0 <default_putchar>:
    cfb0:	e92d4010 	push	{r4, lr}
    cfb4:	e1a04000 	mov	r4, r0
    cfb8:	e6ef0070 	uxtb	r0, r0
    cfbc:	eb00015f 	bl	d540 <uart_put8>
    cfc0:	e1a00004 	mov	r0, r4
    cfc4:	e8bd8010 	pop	{r4, pc}

0000cfc8 <rpi_putchar_set>:
    cfc8:	e59f300c 	ldr	r3, [pc, #12]	; cfdc <rpi_putchar_set+0x14>
    cfcc:	e5932000 	ldr	r2, [r3]
    cfd0:	e5830000 	str	r0, [r3]
    cfd4:	e1a00002 	mov	r0, r2
    cfd8:	e12fff1e 	bx	lr
    cfdc:	0000ffa8 	.word	0x0000ffa8

0000cfe0 <strcat>:
    cfe0:	e1a02000 	mov	r2, r0
    cfe4:	e1a03002 	mov	r3, r2
    cfe8:	e2822001 	add	r2, r2, #1, 0
    cfec:	e5d3c000 	ldrb	ip, [r3]
    cff0:	e35c0000 	cmp	ip, #0, 0
    cff4:	1afffffa 	bne	cfe4 <strcat+0x4>
    cff8:	e2433001 	sub	r3, r3, #1, 0
    cffc:	e5d12000 	ldrb	r2, [r1]
    d000:	e2811001 	add	r1, r1, #1, 0
    d004:	e5e32001 	strb	r2, [r3, #1]!
    d008:	e3520000 	cmp	r2, #0, 0
    d00c:	1afffffa 	bne	cffc <strcat+0x1c>
    d010:	e12fff1e 	bx	lr

0000d014 <strcmp>:
    d014:	e5d03000 	ldrb	r3, [r0]
    d018:	e3530000 	cmp	r3, #0, 0
    d01c:	0a000004 	beq	d034 <strcmp+0x20>
    d020:	e5d12000 	ldrb	r2, [r1]
    d024:	e1530002 	cmp	r3, r2
    d028:	02800001 	addeq	r0, r0, #1, 0
    d02c:	02811001 	addeq	r1, r1, #1, 0
    d030:	0afffff7 	beq	d014 <strcmp>
    d034:	e5d10000 	ldrb	r0, [r1]
    d038:	e0430000 	sub	r0, r3, r0
    d03c:	e12fff1e 	bx	lr

0000d040 <strcpy>:
    d040:	e1a0c000 	mov	ip, r0
    d044:	e5d12000 	ldrb	r2, [r1]
    d048:	e2811001 	add	r1, r1, #1, 0
    d04c:	e5cc2000 	strb	r2, [ip]
    d050:	e28cc001 	add	ip, ip, #1, 0
    d054:	e3520000 	cmp	r2, #0, 0
    d058:	1afffff9 	bne	d044 <strcpy+0x4>
    d05c:	e12fff1e 	bx	lr

0000d060 <strlen>:
    d060:	e1a02000 	mov	r2, r0
    d064:	e3a00000 	mov	r0, #0, 0
    d068:	e7d23000 	ldrb	r3, [r2, r0]
    d06c:	e3530000 	cmp	r3, #0, 0
    d070:	012fff1e 	bxeq	lr
    d074:	e2800001 	add	r0, r0, #1, 0
    d078:	eafffffa 	b	d068 <strlen+0x8>

0000d07c <clean_reboot>:
    d07c:	e92d4010 	push	{r4, lr}
    d080:	e59f0010 	ldr	r0, [pc, #16]	; d098 <clean_reboot+0x1c>
    d084:	eb000247 	bl	d9a8 <putk>
    d088:	eb000147 	bl	d5ac <uart_flush_tx>
    d08c:	e3a0000a 	mov	r0, #10, 0
    d090:	eb000068 	bl	d238 <delay_ms>
    d094:	eb00003d 	bl	d190 <rpi_reboot>
    d098:	0000fc78 	.word	0x0000fc78

0000d09c <_cstart>:
    d09c:	e52de004 	push	{lr}		; (str lr, [sp, #-4]!)
    d0a0:	e24dd014 	sub	sp, sp, #20, 0
    d0a4:	eb000027 	bl	d148 <custom_loader>
    d0a8:	e59f3084 	ldr	r3, [pc, #132]	; d134 <_cstart+0x98>
    d0ac:	ea000001 	b	d0b8 <_cstart+0x1c>
    d0b0:	e3a02000 	mov	r2, #0, 0
    d0b4:	e4832004 	str	r2, [r3], #4
    d0b8:	e59f2078 	ldr	r2, [pc, #120]	; d138 <_cstart+0x9c>
    d0bc:	e1530002 	cmp	r3, r2
    d0c0:	3afffffa 	bcc	d0b0 <_cstart+0x14>
    d0c4:	e3a02a01 	mov	r2, #4096	; 0x1000
    d0c8:	e3a01000 	mov	r1, #0, 0
    d0cc:	e1a00001 	mov	r0, r1
    d0d0:	ebfffe91 	bl	cb1c <memset>
    d0d4:	e3a03000 	mov	r3, #0, 0
    d0d8:	e3530b01 	cmp	r3, #1024	; 0x400
    d0dc:	2a00000f 	bcs	d120 <_cstart+0x84>
    d0e0:	e1a02103 	lsl	r2, r3, #2
    d0e4:	e5921000 	ldr	r1, [r2]
    d0e8:	e3510000 	cmp	r1, #0, 0
    d0ec:	02833001 	addeq	r3, r3, #1, 0
    d0f0:	0afffff8 	beq	d0d8 <_cstart+0x3c>
    d0f4:	e5923000 	ldr	r3, [r2]
    d0f8:	e3a01001 	mov	r1, #1, 0
    d0fc:	e58d1008 	str	r1, [sp, #8]
    d100:	e58d3004 	str	r3, [sp, #4]
    d104:	e58d2000 	str	r2, [sp]
    d108:	e3a03012 	mov	r3, #18, 0
    d10c:	e59f2028 	ldr	r2, [pc, #40]	; d13c <_cstart+0xa0>
    d110:	e59f1028 	ldr	r1, [pc, #40]	; d140 <_cstart+0xa4>
    d114:	e59f0028 	ldr	r0, [pc, #40]	; d144 <_cstart+0xa8>
    d118:	ebfffea7 	bl	cbbc <printk>
    d11c:	ebffffd6 	bl	d07c <clean_reboot>
    d120:	eb0000ba 	bl	d410 <uart_init>
    d124:	e3a03001 	mov	r3, #1, 0
    d128:	ee0f3f1c 	mcr	15, 0, r3, cr15, cr12, {0}
    d12c:	ebffebfe 	bl	812c <notmain>
    d130:	ebffffd1 	bl	d07c <clean_reboot>
    d134:	0000ffb8 	.word	0x0000ffb8
    d138:	000104e0 	.word	0x000104e0
    d13c:	0000fd08 	.word	0x0000fd08
    d140:	0000fc84 	.word	0x0000fc84
    d144:	0000fccc 	.word	0x0000fccc

0000d148 <custom_loader>:
    d148:	e12fff1e 	bx	lr

0000d14c <dev_barrier>:
    d14c:	ea000002 	b	d15c <dsb>

0000d150 <dmb>:
    d150:	e3a00000 	mov	r0, #0, 0
    d154:	ee070fba 	mcr	15, 0, r0, cr7, cr10, {5}
    d158:	e12fff1e 	bx	lr

0000d15c <dsb>:
    d15c:	ee070f9a 	mcr	15, 0, r0, cr7, cr10, {4}
    d160:	e12fff1e 	bx	lr

0000d164 <at_user_level>:
    d164:	e10f0000 	mrs	r0, CPSR
    d168:	e200001f 	and	r0, r0, #31, 0
    d16c:	e3500010 	cmp	r0, #16, 0
    d170:	13a00000 	movne	r0, #0, 0
    d174:	03a00001 	moveq	r0, #1, 0
    d178:	e12fff1e 	bx	lr

0000d17c <set_user_level>:
    d17c:	e10f3000 	mrs	r3, CPSR
    d180:	e3c3301f 	bic	r3, r3, #31, 0
    d184:	e3833010 	orr	r3, r3, #16, 0
    d188:	e129f003 	msr	CPSR_fc, r3
    d18c:	e12fff1e 	bx	lr

0000d190 <rpi_reboot>:
    d190:	e92d4010 	push	{r4, lr}
    d194:	ebfffff2 	bl	d164 <at_user_level>
    d198:	e3500000 	cmp	r0, #0, 0
    d19c:	1a00000a 	bne	d1cc <rpi_reboot+0x3c>
    d1a0:	eb00020d 	bl	d9dc <reboot_callout>
    d1a4:	eb000100 	bl	d5ac <uart_flush_tx>
    d1a8:	e3a0000a 	mov	r0, #10, 0
    d1ac:	eb000021 	bl	d238 <delay_ms>
    d1b0:	e59f101c 	ldr	r1, [pc, #28]	; d1d4 <rpi_reboot+0x44>
    d1b4:	e59f001c 	ldr	r0, [pc, #28]	; d1d8 <rpi_reboot+0x48>
    d1b8:	ebffeb99 	bl	8024 <PUT32>
    d1bc:	e59f1018 	ldr	r1, [pc, #24]	; d1dc <rpi_reboot+0x4c>
    d1c0:	e59f0018 	ldr	r0, [pc, #24]	; d1e0 <rpi_reboot+0x50>
    d1c4:	ebffeb96 	bl	8024 <PUT32>
    d1c8:	eafffffe 	b	d1c8 <rpi_reboot+0x38>
    d1cc:	ebffffea 	bl	d17c <set_user_level>
    d1d0:	eafffff2 	b	d1a0 <rpi_reboot+0x10>
    d1d4:	5a000001 	.word	0x5a000001
    d1d8:	20100024 	.word	0x20100024
    d1dc:	5a000020 	.word	0x5a000020
    d1e0:	2010001c 	.word	0x2010001c

0000d1e4 <timer_get_usec_raw>:
    d1e4:	e92d4010 	push	{r4, lr}
    d1e8:	e59f0004 	ldr	r0, [pc, #4]	; d1f4 <timer_get_usec_raw+0x10>
    d1ec:	ebffeb8e 	bl	802c <GET32>
    d1f0:	e8bd8010 	pop	{r4, pc}
    d1f4:	20003004 	.word	0x20003004

0000d1f8 <timer_get_usec>:
    d1f8:	e92d4010 	push	{r4, lr}
    d1fc:	ebffffd2 	bl	d14c <dev_barrier>
    d200:	ebfffff7 	bl	d1e4 <timer_get_usec_raw>
    d204:	e1a04000 	mov	r4, r0
    d208:	ebffffcf 	bl	d14c <dev_barrier>
    d20c:	e1a00004 	mov	r0, r4
    d210:	e8bd8010 	pop	{r4, pc}

0000d214 <delay_us>:
    d214:	e92d4070 	push	{r4, r5, r6, lr}
    d218:	e1a05000 	mov	r5, r0
    d21c:	ebfffff5 	bl	d1f8 <timer_get_usec>
    d220:	e1a04000 	mov	r4, r0
    d224:	ebfffff3 	bl	d1f8 <timer_get_usec>
    d228:	e0400004 	sub	r0, r0, r4
    d22c:	e1500005 	cmp	r0, r5
    d230:	3afffffb 	bcc	d224 <delay_us+0x10>
    d234:	e8bd8070 	pop	{r4, r5, r6, pc}

0000d238 <delay_ms>:
    d238:	e92d4010 	push	{r4, lr}
    d23c:	e0603280 	rsb	r3, r0, r0, lsl #5
    d240:	e0800103 	add	r0, r0, r3, lsl #2
    d244:	e1a00180 	lsl	r0, r0, #3
    d248:	ebfffff1 	bl	d214 <delay_us>
    d24c:	e8bd8010 	pop	{r4, pc}

0000d250 <delay_sec>:
    d250:	e92d4010 	push	{r4, lr}
    d254:	e0603280 	rsb	r3, r0, r0, lsl #5
    d258:	e0800103 	add	r0, r0, r3, lsl #2
    d25c:	e1a00180 	lsl	r0, r0, #3
    d260:	ebfffff4 	bl	d238 <delay_ms>
    d264:	e8bd8010 	pop	{r4, pc}

0000d268 <gpio_set_function>:
    d268:	e350002f 	cmp	r0, #47, 0	; 0x2f
    d26c:	1350001f 	cmpne	r0, #31, 0
    d270:	812fff1e 	bxhi	lr
    d274:	e92d4070 	push	{r4, r5, r6, lr}
    d278:	e1a05001 	mov	r5, r1
    d27c:	e3d13007 	bics	r3, r1, #7, 0
    d280:	18bd8070 	popne	{r4, r5, r6, pc}
    d284:	e59f3040 	ldr	r3, [pc, #64]	; d2cc <gpio_set_function+0x64>
    d288:	e0832093 	umull	r2, r3, r3, r0
    d28c:	e1a031a3 	lsr	r3, r3, #3
    d290:	e1a02003 	mov	r2, r3
    d294:	e0833103 	add	r3, r3, r3, lsl #2
    d298:	e0403083 	sub	r3, r0, r3, lsl #1
    d29c:	e0834083 	add	r4, r3, r3, lsl #1
    d2a0:	e2820302 	add	r0, r2, #134217728	; 0x8000000
    d2a4:	e2800702 	add	r0, r0, #524288	; 0x80000
    d2a8:	e1a06100 	lsl	r6, r0, #2
    d2ac:	e1a00006 	mov	r0, r6
    d2b0:	ebffeb5d 	bl	802c <GET32>
    d2b4:	e3a01007 	mov	r1, #7, 0
    d2b8:	e1c01411 	bic	r1, r0, r1, lsl r4
    d2bc:	e1811415 	orr	r1, r1, r5, lsl r4
    d2c0:	e1a00006 	mov	r0, r6
    d2c4:	ebffeb56 	bl	8024 <PUT32>
    d2c8:	e8bd8070 	pop	{r4, r5, r6, pc}
    d2cc:	cccccccd 	.word	0xcccccccd

0000d2d0 <gpio_set_output>:
    d2d0:	e92d4010 	push	{r4, lr}
    d2d4:	e3a01001 	mov	r1, #1, 0
    d2d8:	ebffffe2 	bl	d268 <gpio_set_function>
    d2dc:	e8bd8010 	pop	{r4, pc}

0000d2e0 <gpio_set_on>:
    d2e0:	e92d4010 	push	{r4, lr}
    d2e4:	e350002f 	cmp	r0, #47, 0	; 0x2f
    d2e8:	0a000006 	beq	d308 <gpio_set_on+0x28>
    d2ec:	e350001f 	cmp	r0, #31, 0
    d2f0:	88bd8010 	pophi	{r4, pc}
    d2f4:	e3a01001 	mov	r1, #1, 0
    d2f8:	e1a01011 	lsl	r1, r1, r0
    d2fc:	e59f001c 	ldr	r0, [pc, #28]	; d320 <gpio_set_on+0x40>
    d300:	ebffeb47 	bl	8024 <PUT32>
    d304:	e8bd8010 	pop	{r4, pc}
    d308:	e200001f 	and	r0, r0, #31, 0
    d30c:	e3a01001 	mov	r1, #1, 0
    d310:	e1a01011 	lsl	r1, r1, r0
    d314:	e59f0008 	ldr	r0, [pc, #8]	; d324 <gpio_set_on+0x44>
    d318:	ebffeb41 	bl	8024 <PUT32>
    d31c:	e8bd8010 	pop	{r4, pc}
    d320:	2020001c 	.word	0x2020001c
    d324:	20200020 	.word	0x20200020

0000d328 <gpio_set_off>:
    d328:	e92d4010 	push	{r4, lr}
    d32c:	e350002f 	cmp	r0, #47, 0	; 0x2f
    d330:	0a000006 	beq	d350 <gpio_set_off+0x28>
    d334:	e350001f 	cmp	r0, #31, 0
    d338:	88bd8010 	pophi	{r4, pc}
    d33c:	e3a01001 	mov	r1, #1, 0
    d340:	e1a01011 	lsl	r1, r1, r0
    d344:	e59f001c 	ldr	r0, [pc, #28]	; d368 <gpio_set_off+0x40>
    d348:	ebffeb35 	bl	8024 <PUT32>
    d34c:	e8bd8010 	pop	{r4, pc}
    d350:	e200001f 	and	r0, r0, #31, 0
    d354:	e3a01001 	mov	r1, #1, 0
    d358:	e1a01011 	lsl	r1, r1, r0
    d35c:	e59f0008 	ldr	r0, [pc, #8]	; d36c <gpio_set_off+0x44>
    d360:	ebffeb2f 	bl	8024 <PUT32>
    d364:	e8bd8010 	pop	{r4, pc}
    d368:	20200028 	.word	0x20200028
    d36c:	2020002c 	.word	0x2020002c

0000d370 <gpio_set_input>:
    d370:	e92d4010 	push	{r4, lr}
    d374:	e3a01000 	mov	r1, #0, 0
    d378:	ebffffba 	bl	d268 <gpio_set_function>
    d37c:	e8bd8010 	pop	{r4, pc}

0000d380 <gpio_write>:
    d380:	e92d4010 	push	{r4, lr}
    d384:	e3510000 	cmp	r1, #0, 0
    d388:	0a000001 	beq	d394 <gpio_write+0x14>
    d38c:	ebffffd3 	bl	d2e0 <gpio_set_on>
    d390:	e8bd8010 	pop	{r4, pc}
    d394:	ebffffe3 	bl	d328 <gpio_set_off>
    d398:	e8bd8010 	pop	{r4, pc}

0000d39c <gpio_read>:
    d39c:	e350001f 	cmp	r0, #31, 0
    d3a0:	8a000006 	bhi	d3c0 <gpio_read+0x24>
    d3a4:	e92d4010 	push	{r4, lr}
    d3a8:	e1a04000 	mov	r4, r0
    d3ac:	e59f0014 	ldr	r0, [pc, #20]	; d3c8 <gpio_read+0x2c>
    d3b0:	ebffeb1d 	bl	802c <GET32>
    d3b4:	e1a00430 	lsr	r0, r0, r4
    d3b8:	e2000001 	and	r0, r0, #1, 0
    d3bc:	e8bd8010 	pop	{r4, pc}
    d3c0:	e3e00000 	mvn	r0, #0, 0
    d3c4:	e12fff1e 	bx	lr
    d3c8:	20200034 	.word	0x20200034

0000d3cc <using_staff_gpio>:
    d3cc:	e12fff1e 	bx	lr

0000d3d0 <and_in32>:
    d3d0:	e92d4070 	push	{r4, r5, r6, lr}
    d3d4:	e1a04000 	mov	r4, r0
    d3d8:	e1a05001 	mov	r5, r1
    d3dc:	ebffeb12 	bl	802c <GET32>
    d3e0:	e0001005 	and	r1, r0, r5
    d3e4:	e1a00004 	mov	r0, r4
    d3e8:	ebffeb0d 	bl	8024 <PUT32>
    d3ec:	e8bd8070 	pop	{r4, r5, r6, pc}

0000d3f0 <or_in32>:
    d3f0:	e92d4070 	push	{r4, r5, r6, lr}
    d3f4:	e1a04000 	mov	r4, r0
    d3f8:	e1a05001 	mov	r5, r1
    d3fc:	ebffeb0a 	bl	802c <GET32>
    d400:	e1801005 	orr	r1, r0, r5
    d404:	e1a00004 	mov	r0, r4
    d408:	ebffeb05 	bl	8024 <PUT32>
    d40c:	e8bd8070 	pop	{r4, r5, r6, pc}

0000d410 <uart_init>:
    d410:	e92d4010 	push	{r4, lr}
    d414:	ebffff4c 	bl	d14c <dev_barrier>
    d418:	e3a01002 	mov	r1, #2, 0
    d41c:	e3a0000e 	mov	r0, #14, 0
    d420:	ebffff90 	bl	d268 <gpio_set_function>
    d424:	e3a01002 	mov	r1, #2, 0
    d428:	e3a0000f 	mov	r0, #15, 0
    d42c:	ebffff8d 	bl	d268 <gpio_set_function>
    d430:	ebffff45 	bl	d14c <dev_barrier>
    d434:	e3a01001 	mov	r1, #1, 0
    d438:	e59f0064 	ldr	r0, [pc, #100]	; d4a4 <uart_init+0x94>
    d43c:	ebffffeb 	bl	d3f0 <or_in32>
    d440:	ebffff41 	bl	d14c <dev_barrier>
    d444:	e59f405c 	ldr	r4, [pc, #92]	; d4a8 <uart_init+0x98>
    d448:	e3a01000 	mov	r1, #0, 0
    d44c:	e1a00004 	mov	r0, r4
    d450:	ebffeaf3 	bl	8024 <PUT32>
    d454:	e3a01000 	mov	r1, #0, 0
    d458:	e59f004c 	ldr	r0, [pc, #76]	; d4ac <uart_init+0x9c>
    d45c:	ebffeaf0 	bl	8024 <PUT32>
    d460:	e3a01003 	mov	r1, #3, 0
    d464:	e59f0044 	ldr	r0, [pc, #68]	; d4b0 <uart_init+0xa0>
    d468:	ebffeaed 	bl	8024 <PUT32>
    d46c:	e3a01000 	mov	r1, #0, 0
    d470:	e59f003c 	ldr	r0, [pc, #60]	; d4b4 <uart_init+0xa4>
    d474:	ebffeaea 	bl	8024 <PUT32>
    d478:	e3a01006 	mov	r1, #6, 0
    d47c:	e59f0034 	ldr	r0, [pc, #52]	; d4b8 <uart_init+0xa8>
    d480:	ebffeae7 	bl	8024 <PUT32>
    d484:	e59f1030 	ldr	r1, [pc, #48]	; d4bc <uart_init+0xac>
    d488:	e59f0030 	ldr	r0, [pc, #48]	; d4c0 <uart_init+0xb0>
    d48c:	ebffeae4 	bl	8024 <PUT32>
    d490:	e3a01003 	mov	r1, #3, 0
    d494:	e1a00004 	mov	r0, r4
    d498:	ebffeae1 	bl	8024 <PUT32>
    d49c:	ebffff2a 	bl	d14c <dev_barrier>
    d4a0:	e8bd8010 	pop	{r4, pc}
    d4a4:	20215004 	.word	0x20215004
    d4a8:	20215060 	.word	0x20215060
    d4ac:	20215044 	.word	0x20215044
    d4b0:	2021504c 	.word	0x2021504c
    d4b4:	20215050 	.word	0x20215050
    d4b8:	20215048 	.word	0x20215048
    d4bc:	0000010e 	.word	0x0000010e
    d4c0:	20215068 	.word	0x20215068

0000d4c4 <uart_can_getc>:
    d4c4:	e92d4010 	push	{r4, lr}
    d4c8:	e59f0008 	ldr	r0, [pc, #8]	; d4d8 <uart_can_getc+0x14>
    d4cc:	ebffead6 	bl	802c <GET32>
    d4d0:	e2000001 	and	r0, r0, #1, 0
    d4d4:	e8bd8010 	pop	{r4, pc}
    d4d8:	20215054 	.word	0x20215054

0000d4dc <uart_can_putc>:
    d4dc:	e92d4010 	push	{r4, lr}
    d4e0:	e59f0010 	ldr	r0, [pc, #16]	; d4f8 <uart_can_putc+0x1c>
    d4e4:	ebffead0 	bl	802c <GET32>
    d4e8:	e3100020 	tst	r0, #32, 0
    d4ec:	13a00001 	movne	r0, #1, 0
    d4f0:	03a00000 	moveq	r0, #0, 0
    d4f4:	e8bd8010 	pop	{r4, pc}
    d4f8:	20215054 	.word	0x20215054

0000d4fc <uart_can_put8>:
    d4fc:	e92d4010 	push	{r4, lr}
    d500:	ebfffff5 	bl	d4dc <uart_can_putc>
    d504:	e8bd8010 	pop	{r4, pc}

0000d508 <uart_get8>:
    d508:	e92d4010 	push	{r4, lr}
    d50c:	ebffff0e 	bl	d14c <dev_barrier>
    d510:	ea000000 	b	d518 <uart_get8+0x10>
    d514:	eb000131 	bl	d9e0 <rpi_wait>
    d518:	ebffffe9 	bl	d4c4 <uart_can_getc>
    d51c:	e3500000 	cmp	r0, #0, 0
    d520:	0afffffb 	beq	d514 <uart_get8+0xc>
    d524:	e59f0010 	ldr	r0, [pc, #16]	; d53c <uart_get8+0x34>
    d528:	ebffeabf 	bl	802c <GET32>
    d52c:	e6ef4070 	uxtb	r4, r0
    d530:	ebffff05 	bl	d14c <dev_barrier>
    d534:	e1a00004 	mov	r0, r4
    d538:	e8bd8010 	pop	{r4, pc}
    d53c:	20215040 	.word	0x20215040

0000d540 <uart_put8>:
    d540:	e92d4010 	push	{r4, lr}
    d544:	e1a04000 	mov	r4, r0
    d548:	ebfffeff 	bl	d14c <dev_barrier>
    d54c:	ea000000 	b	d554 <uart_put8+0x14>
    d550:	eb000122 	bl	d9e0 <rpi_wait>
    d554:	ebffffe0 	bl	d4dc <uart_can_putc>
    d558:	e3500000 	cmp	r0, #0, 0
    d55c:	0afffffb 	beq	d550 <uart_put8+0x10>
    d560:	e1a01004 	mov	r1, r4
    d564:	e59f000c 	ldr	r0, [pc, #12]	; d578 <uart_put8+0x38>
    d568:	ebffeaad 	bl	8024 <PUT32>
    d56c:	ebfffef6 	bl	d14c <dev_barrier>
    d570:	e3a00001 	mov	r0, #1, 0
    d574:	e8bd8010 	pop	{r4, pc}
    d578:	20215040 	.word	0x20215040

0000d57c <uart_has_data>:
    d57c:	e92d4010 	push	{r4, lr}
    d580:	ebfffef1 	bl	d14c <dev_barrier>
    d584:	ebffffce 	bl	d4c4 <uart_can_getc>
    d588:	e8bd8010 	pop	{r4, pc}

0000d58c <uart_tx_is_empty>:
    d58c:	e92d4010 	push	{r4, lr}
    d590:	ebfffeed 	bl	d14c <dev_barrier>
    d594:	e59f000c 	ldr	r0, [pc, #12]	; d5a8 <uart_tx_is_empty+0x1c>
    d598:	ebffeaa3 	bl	802c <GET32>
    d59c:	e1a004a0 	lsr	r0, r0, #9
    d5a0:	e2000001 	and	r0, r0, #1, 0
    d5a4:	e8bd8010 	pop	{r4, pc}
    d5a8:	20215064 	.word	0x20215064

0000d5ac <uart_flush_tx>:
    d5ac:	e92d4010 	push	{r4, lr}
    d5b0:	ea000000 	b	d5b8 <uart_flush_tx+0xc>
    d5b4:	eb000109 	bl	d9e0 <rpi_wait>
    d5b8:	ebfffff3 	bl	d58c <uart_tx_is_empty>
    d5bc:	e3500000 	cmp	r0, #0, 0
    d5c0:	0afffffb 	beq	d5b4 <uart_flush_tx+0x8>
    d5c4:	e8bd8010 	pop	{r4, pc}

0000d5c8 <uart_disable>:
    d5c8:	e92d4010 	push	{r4, lr}
    d5cc:	ebfffff6 	bl	d5ac <uart_flush_tx>
    d5d0:	ebfffedd 	bl	d14c <dev_barrier>
    d5d4:	e3e01001 	mvn	r1, #1, 0
    d5d8:	e59f0008 	ldr	r0, [pc, #8]	; d5e8 <uart_disable+0x20>
    d5dc:	ebffff7b 	bl	d3d0 <and_in32>
    d5e0:	ebfffed9 	bl	d14c <dev_barrier>
    d5e4:	e8bd8010 	pop	{r4, pc}
    d5e8:	20215004 	.word	0x20215004

0000d5ec <using_staff_uart>:
    d5ec:	e12fff1e 	bx	lr

0000d5f0 <kmalloc_heap_end>:
    d5f0:	e59f3004 	ldr	r3, [pc, #4]	; d5fc <kmalloc_heap_end+0xc>
    d5f4:	e5930000 	ldr	r0, [r3]
    d5f8:	e12fff1e 	bx	lr
    d5fc:	0000ffac 	.word	0x0000ffac

0000d600 <kmalloc_heap_start>:
    d600:	e59f3004 	ldr	r3, [pc, #4]	; d60c <kmalloc_heap_start+0xc>
    d604:	e5930004 	ldr	r0, [r3, #4]
    d608:	e12fff1e 	bx	lr
    d60c:	0000ffac 	.word	0x0000ffac

0000d610 <kmalloc_heap_ptr>:
    d610:	e59f3004 	ldr	r3, [pc, #4]	; d61c <kmalloc_heap_ptr+0xc>
    d614:	e5930008 	ldr	r0, [r3, #8]
    d618:	e12fff1e 	bx	lr
    d61c:	0000ffac 	.word	0x0000ffac

0000d620 <kmalloc_init_set_start>:
    d620:	e52de004 	push	{lr}		; (str lr, [sp, #-4]!)
    d624:	e24dd00c 	sub	sp, sp, #12, 0
    d628:	e59f30a8 	ldr	r3, [pc, #168]	; d6d8 <kmalloc_init_set_start+0xb8>
    d62c:	e5933000 	ldr	r3, [r3]
    d630:	e3530000 	cmp	r3, #0, 0
    d634:	1a00000f 	bne	d678 <kmalloc_init_set_start+0x58>
    d638:	e59f3098 	ldr	r3, [pc, #152]	; d6d8 <kmalloc_init_set_start+0xb8>
    d63c:	e3a02001 	mov	r2, #1, 0
    d640:	e5832000 	str	r2, [r3]
    d644:	e3510000 	cmp	r1, #0, 0
    d648:	0a000010 	beq	d690 <kmalloc_init_set_start+0x70>
    d64c:	e59f3088 	ldr	r3, [pc, #136]	; d6dc <kmalloc_init_set_start+0xbc>
    d650:	e5933008 	ldr	r3, [r3, #8]
    d654:	e1530000 	cmp	r3, r0
    d658:	8a000014 	bhi	d6b0 <kmalloc_init_set_start+0x90>
    d65c:	e59f3078 	ldr	r3, [pc, #120]	; d6dc <kmalloc_init_set_start+0xbc>
    d660:	e5830008 	str	r0, [r3, #8]
    d664:	e5830004 	str	r0, [r3, #4]
    d668:	e0800001 	add	r0, r0, r1
    d66c:	e5830000 	str	r0, [r3]
    d670:	e28dd00c 	add	sp, sp, #12, 0
    d674:	e49df004 	pop	{pc}		; (ldr pc, [sp], #4)
    d678:	e3a03031 	mov	r3, #49, 0	; 0x31
    d67c:	e59f205c 	ldr	r2, [pc, #92]	; d6e0 <kmalloc_init_set_start+0xc0>
    d680:	e59f105c 	ldr	r1, [pc, #92]	; d6e4 <kmalloc_init_set_start+0xc4>
    d684:	e59f005c 	ldr	r0, [pc, #92]	; d6e8 <kmalloc_init_set_start+0xc8>
    d688:	ebfffd4b 	bl	cbbc <printk>
    d68c:	ebfffe7a 	bl	d07c <clean_reboot>
    d690:	e59f3054 	ldr	r3, [pc, #84]	; d6ec <kmalloc_init_set_start+0xcc>
    d694:	e58d3000 	str	r3, [sp]
    d698:	e3a03036 	mov	r3, #54, 0	; 0x36
    d69c:	e59f203c 	ldr	r2, [pc, #60]	; d6e0 <kmalloc_init_set_start+0xc0>
    d6a0:	e59f103c 	ldr	r1, [pc, #60]	; d6e4 <kmalloc_init_set_start+0xc4>
    d6a4:	e59f0044 	ldr	r0, [pc, #68]	; d6f0 <kmalloc_init_set_start+0xd0>
    d6a8:	ebfffd43 	bl	cbbc <printk>
    d6ac:	ebfffe72 	bl	d07c <clean_reboot>
    d6b0:	e59f3024 	ldr	r3, [pc, #36]	; d6dc <kmalloc_init_set_start+0xbc>
    d6b4:	e5933000 	ldr	r3, [r3]
    d6b8:	e58d3004 	str	r3, [sp, #4]
    d6bc:	e58d0000 	str	r0, [sp]
    d6c0:	e3a0303a 	mov	r3, #58, 0	; 0x3a
    d6c4:	e59f2014 	ldr	r2, [pc, #20]	; d6e0 <kmalloc_init_set_start+0xc0>
    d6c8:	e59f1014 	ldr	r1, [pc, #20]	; d6e4 <kmalloc_init_set_start+0xc4>
    d6cc:	e59f0020 	ldr	r0, [pc, #32]	; d6f4 <kmalloc_init_set_start+0xd4>
    d6d0:	ebfffd39 	bl	cbbc <printk>
    d6d4:	ebfffe68 	bl	d07c <clean_reboot>
    d6d8:	000102dc 	.word	0x000102dc
    d6dc:	0000ffac 	.word	0x0000ffac
    d6e0:	0000feec 	.word	0x0000feec
    d6e4:	0000fd18 	.word	0x0000fd18
    d6e8:	0000fd24 	.word	0x0000fd24
    d6ec:	0000fd58 	.word	0x0000fd58
    d6f0:	0000da34 	.word	0x0000da34
    d6f4:	0000fd64 	.word	0x0000fd64

0000d6f8 <kmalloc_notzero>:
    d6f8:	e52de004 	push	{lr}		; (str lr, [sp, #-4]!)
    d6fc:	e24dd00c 	sub	sp, sp, #12, 0
    d700:	e3500000 	cmp	r0, #0, 0
    d704:	0a00000d 	beq	d740 <kmalloc_notzero+0x48>
    d708:	e2800007 	add	r0, r0, #7, 0
    d70c:	e3c03007 	bic	r3, r0, #7, 0
    d710:	e59f208c 	ldr	r2, [pc, #140]	; d7a4 <kmalloc_notzero+0xac>
    d714:	e5920008 	ldr	r0, [r2, #8]
    d718:	e3100007 	tst	r0, #7, 0
    d71c:	1a00000f 	bne	d760 <kmalloc_notzero+0x68>
    d720:	e0802003 	add	r2, r0, r3
    d724:	e59f1078 	ldr	r1, [pc, #120]	; d7a4 <kmalloc_notzero+0xac>
    d728:	e5812008 	str	r2, [r1, #8]
    d72c:	e5911000 	ldr	r1, [r1]
    d730:	e1520001 	cmp	r2, r1
    d734:	8a000011 	bhi	d780 <kmalloc_notzero+0x88>
    d738:	e28dd00c 	add	sp, sp, #12, 0
    d73c:	e49df004 	pop	{pc}		; (ldr pc, [sp], #4)
    d740:	e59f3060 	ldr	r3, [pc, #96]	; d7a8 <kmalloc_notzero+0xb0>
    d744:	e58d3000 	str	r3, [sp]
    d748:	e3a03053 	mov	r3, #83, 0	; 0x53
    d74c:	e59f2058 	ldr	r2, [pc, #88]	; d7ac <kmalloc_notzero+0xb4>
    d750:	e59f1058 	ldr	r1, [pc, #88]	; d7b0 <kmalloc_notzero+0xb8>
    d754:	e59f0058 	ldr	r0, [pc, #88]	; d7b4 <kmalloc_notzero+0xbc>
    d758:	ebfffd17 	bl	cbbc <printk>
    d75c:	ebfffe46 	bl	d07c <clean_reboot>
    d760:	e59f3050 	ldr	r3, [pc, #80]	; d7b8 <kmalloc_notzero+0xc0>
    d764:	e58d3000 	str	r3, [sp]
    d768:	e3a03056 	mov	r3, #86, 0	; 0x56
    d76c:	e59f2038 	ldr	r2, [pc, #56]	; d7ac <kmalloc_notzero+0xb4>
    d770:	e59f1038 	ldr	r1, [pc, #56]	; d7b0 <kmalloc_notzero+0xb8>
    d774:	e59f0038 	ldr	r0, [pc, #56]	; d7b4 <kmalloc_notzero+0xbc>
    d778:	ebfffd0f 	bl	cbbc <printk>
    d77c:	ebfffe3e 	bl	d07c <clean_reboot>
    d780:	e0422001 	sub	r2, r2, r1
    d784:	e58d2004 	str	r2, [sp, #4]
    d788:	e58d3000 	str	r3, [sp]
    d78c:	e3a0305b 	mov	r3, #91, 0	; 0x5b
    d790:	e59f2014 	ldr	r2, [pc, #20]	; d7ac <kmalloc_notzero+0xb4>
    d794:	e59f1014 	ldr	r1, [pc, #20]	; d7b0 <kmalloc_notzero+0xb8>
    d798:	e59f001c 	ldr	r0, [pc, #28]	; d7bc <kmalloc_notzero+0xc4>
    d79c:	ebfffd06 	bl	cbbc <printk>
    d7a0:	ebfffe35 	bl	d07c <clean_reboot>
    d7a4:	0000ffac 	.word	0x0000ffac
    d7a8:	0000fd5c 	.word	0x0000fd5c
    d7ac:	0000ff04 	.word	0x0000ff04
    d7b0:	0000fd18 	.word	0x0000fd18
    d7b4:	0000da34 	.word	0x0000da34
    d7b8:	0000fda8 	.word	0x0000fda8
    d7bc:	0000fdc0 	.word	0x0000fdc0

0000d7c0 <kmalloc>:
    d7c0:	e92d4030 	push	{r4, r5, lr}
    d7c4:	e24dd00c 	sub	sp, sp, #12, 0
    d7c8:	e2504000 	subs	r4, r0, #0, 0
    d7cc:	0a000008 	beq	d7f4 <kmalloc+0x34>
    d7d0:	e1a00004 	mov	r0, r4
    d7d4:	ebffffc7 	bl	d6f8 <kmalloc_notzero>
    d7d8:	e1a05000 	mov	r5, r0
    d7dc:	e1a02004 	mov	r2, r4
    d7e0:	e3a01000 	mov	r1, #0, 0
    d7e4:	ebfffccc 	bl	cb1c <memset>
    d7e8:	e1a00005 	mov	r0, r5
    d7ec:	e28dd00c 	add	sp, sp, #12, 0
    d7f0:	e8bd8030 	pop	{r4, r5, pc}
    d7f4:	e59f3018 	ldr	r3, [pc, #24]	; d814 <kmalloc+0x54>
    d7f8:	e58d3000 	str	r3, [sp]
    d7fc:	e3a03062 	mov	r3, #98, 0	; 0x62
    d800:	e59f2010 	ldr	r2, [pc, #16]	; d818 <kmalloc+0x58>
    d804:	e59f1010 	ldr	r1, [pc, #16]	; d81c <kmalloc+0x5c>
    d808:	e59f0010 	ldr	r0, [pc, #16]	; d820 <kmalloc+0x60>
    d80c:	ebfffcea 	bl	cbbc <printk>
    d810:	ebfffe19 	bl	d07c <clean_reboot>
    d814:	0000fd5c 	.word	0x0000fd5c
    d818:	0000ff14 	.word	0x0000ff14
    d81c:	0000fd18 	.word	0x0000fd18
    d820:	0000da34 	.word	0x0000da34

0000d824 <kmalloc_aligned>:
    d824:	e52de004 	push	{lr}		; (str lr, [sp, #-4]!)
    d828:	e24dd00c 	sub	sp, sp, #12, 0
    d82c:	e3500000 	cmp	r0, #0, 0
    d830:	0a000014 	beq	d888 <kmalloc_aligned+0x64>
    d834:	e2613000 	rsb	r3, r1, #0, 0
    d838:	e1d13003 	bics	r3, r1, r3
    d83c:	1a000019 	bne	d8a8 <kmalloc_aligned+0x84>
    d840:	e3510008 	cmp	r1, #8, 0
    d844:	33a01008 	movcc	r1, #8, 0
    d848:	e59f30b8 	ldr	r3, [pc, #184]	; d908 <kmalloc_aligned+0xe4>
    d84c:	e5932008 	ldr	r2, [r3, #8]
    d850:	e2613000 	rsb	r3, r1, #0, 0
    d854:	e1d1c003 	bics	ip, r1, r3
    d858:	1a00001a 	bne	d8c8 <kmalloc_aligned+0xa4>
    d85c:	e0822001 	add	r2, r2, r1
    d860:	e2422001 	sub	r2, r2, #1, 0
    d864:	e0033002 	and	r3, r3, r2
    d868:	e2411001 	sub	r1, r1, #1, 0
    d86c:	e1110003 	tst	r1, r3
    d870:	1a00001c 	bne	d8e8 <kmalloc_aligned+0xc4>
    d874:	e59f208c 	ldr	r2, [pc, #140]	; d908 <kmalloc_aligned+0xe4>
    d878:	e5823008 	str	r3, [r2, #8]
    d87c:	ebffffcf 	bl	d7c0 <kmalloc>
    d880:	e28dd00c 	add	sp, sp, #12, 0
    d884:	e49df004 	pop	{pc}		; (ldr pc, [sp], #4)
    d888:	e59f307c 	ldr	r3, [pc, #124]	; d90c <kmalloc_aligned+0xe8>
    d88c:	e58d3000 	str	r3, [sp]
    d890:	e3a0306d 	mov	r3, #109, 0	; 0x6d
    d894:	e59f2074 	ldr	r2, [pc, #116]	; d910 <kmalloc_aligned+0xec>
    d898:	e59f1074 	ldr	r1, [pc, #116]	; d914 <kmalloc_aligned+0xf0>
    d89c:	e59f0074 	ldr	r0, [pc, #116]	; d918 <kmalloc_aligned+0xf4>
    d8a0:	ebfffcc5 	bl	cbbc <printk>
    d8a4:	ebfffdf4 	bl	d07c <clean_reboot>
    d8a8:	e59f306c 	ldr	r3, [pc, #108]	; d91c <kmalloc_aligned+0xf8>
    d8ac:	e58d3000 	str	r3, [sp]
    d8b0:	e3a0306e 	mov	r3, #110, 0	; 0x6e
    d8b4:	e59f2054 	ldr	r2, [pc, #84]	; d910 <kmalloc_aligned+0xec>
    d8b8:	e59f1054 	ldr	r1, [pc, #84]	; d914 <kmalloc_aligned+0xf0>
    d8bc:	e59f005c 	ldr	r0, [pc, #92]	; d920 <kmalloc_aligned+0xfc>
    d8c0:	ebfffcbd 	bl	cbbc <printk>
    d8c4:	ebfffdec 	bl	d07c <clean_reboot>
    d8c8:	e59f3054 	ldr	r3, [pc, #84]	; d924 <kmalloc_aligned+0x100>
    d8cc:	e58d3000 	str	r3, [sp]
    d8d0:	e3a03011 	mov	r3, #17, 0
    d8d4:	e59f204c 	ldr	r2, [pc, #76]	; d928 <kmalloc_aligned+0x104>
    d8d8:	e59f1034 	ldr	r1, [pc, #52]	; d914 <kmalloc_aligned+0xf0>
    d8dc:	e59f0034 	ldr	r0, [pc, #52]	; d918 <kmalloc_aligned+0xf4>
    d8e0:	ebfffcb5 	bl	cbbc <printk>
    d8e4:	ebfffde4 	bl	d07c <clean_reboot>
    d8e8:	e59f303c 	ldr	r3, [pc, #60]	; d92c <kmalloc_aligned+0x108>
    d8ec:	e58d3000 	str	r3, [sp]
    d8f0:	e3a03076 	mov	r3, #118, 0	; 0x76
    d8f4:	e59f2014 	ldr	r2, [pc, #20]	; d910 <kmalloc_aligned+0xec>
    d8f8:	e59f1014 	ldr	r1, [pc, #20]	; d914 <kmalloc_aligned+0xf0>
    d8fc:	e59f002c 	ldr	r0, [pc, #44]	; d930 <kmalloc_aligned+0x10c>
    d900:	ebfffcad 	bl	cbbc <printk>
    d904:	ebfffddc 	bl	d07c <clean_reboot>
    d908:	0000ffac 	.word	0x0000ffac
    d90c:	0000fd5c 	.word	0x0000fd5c
    d910:	0000ff1c 	.word	0x0000ff1c
    d914:	0000fd18 	.word	0x0000fd18
    d918:	0000da34 	.word	0x0000da34
    d91c:	0000fe48 	.word	0x0000fe48
    d920:	0000fe08 	.word	0x0000fe08
    d924:	0000fe5c 	.word	0x0000fe5c
    d928:	0000ff2c 	.word	0x0000ff2c
    d92c:	0000fea0 	.word	0x0000fea0
    d930:	0000fe68 	.word	0x0000fe68

0000d934 <kfree_all>:
    d934:	e59f3008 	ldr	r3, [pc, #8]	; d944 <kfree_all+0x10>
    d938:	e5932004 	ldr	r2, [r3, #4]
    d93c:	e5832008 	str	r2, [r3, #8]
    d940:	e12fff1e 	bx	lr
    d944:	0000ffac 	.word	0x0000ffac

0000d948 <kfree_pop>:
    d948:	e59f3048 	ldr	r3, [pc, #72]	; d998 <kfree_pop+0x50>
    d94c:	e5933004 	ldr	r3, [r3, #4]
    d950:	e1530000 	cmp	r3, r0
    d954:	8a000006 	bhi	d974 <kfree_pop+0x2c>
    d958:	e59f3038 	ldr	r3, [pc, #56]	; d998 <kfree_pop+0x50>
    d95c:	e5933000 	ldr	r3, [r3]
    d960:	e1530000 	cmp	r3, r0
    d964:	3a000002 	bcc	d974 <kfree_pop+0x2c>
    d968:	e59f3028 	ldr	r3, [pc, #40]	; d998 <kfree_pop+0x50>
    d96c:	e5830008 	str	r0, [r3, #8]
    d970:	e12fff1e 	bx	lr
    d974:	e52de004 	push	{lr}		; (str lr, [sp, #-4]!)
    d978:	e24dd00c 	sub	sp, sp, #12, 0
    d97c:	e58d0000 	str	r0, [sp]
    d980:	e3a03085 	mov	r3, #133, 0	; 0x85
    d984:	e59f2010 	ldr	r2, [pc, #16]	; d99c <kfree_pop+0x54>
    d988:	e59f1010 	ldr	r1, [pc, #16]	; d9a0 <kfree_pop+0x58>
    d98c:	e59f0010 	ldr	r0, [pc, #16]	; d9a4 <kfree_pop+0x5c>
    d990:	ebfffc89 	bl	cbbc <printk>
    d994:	ebfffdb8 	bl	d07c <clean_reboot>
    d998:	0000ffac 	.word	0x0000ffac
    d99c:	0000ff34 	.word	0x0000ff34
    d9a0:	0000fd18 	.word	0x0000fd18
    d9a4:	0000febc 	.word	0x0000febc

0000d9a8 <putk>:
    d9a8:	e92d4010 	push	{r4, lr}
    d9ac:	e1a04000 	mov	r4, r0
    d9b0:	e5d40000 	ldrb	r0, [r4]
    d9b4:	e3500000 	cmp	r0, #0, 0
    d9b8:	0a000004 	beq	d9d0 <putk+0x28>
    d9bc:	e59f3014 	ldr	r3, [pc, #20]	; d9d8 <putk+0x30>
    d9c0:	e5933000 	ldr	r3, [r3]
    d9c4:	e12fff33 	blx	r3
    d9c8:	e2844001 	add	r4, r4, #1, 0
    d9cc:	eafffff7 	b	d9b0 <putk+0x8>
    d9d0:	e3a00001 	mov	r0, #1, 0
    d9d4:	e8bd8010 	pop	{r4, pc}
    d9d8:	0000ffa8 	.word	0x0000ffa8

0000d9dc <reboot_callout>:
    d9dc:	e12fff1e 	bx	lr

0000d9e0 <rpi_wait>:
    d9e0:	e12fff1e 	bx	lr

0000d9e4 <__code_end__>:
    d9e4:	00000000 	andeq	r0, r0, r0
