
objs/tests/1-test-setup.elf:     file format elf32-littlearm


Disassembly of section .text:

00008000 <__code_start__>:
    8000:	e3a00013 	mov	r0, #19, 0
    8004:	e3800080 	orr	r0, r0, #128, 0	; 0x80
    8008:	e129f000 	msr	CPSR_fc, r0
    800c:	e3a01000 	mov	r1, #0, 0
    8010:	ee071f95 	mcr	15, 0, r1, cr7, cr5, {4}
    8014:	e3a0d302 	mov	sp, #134217728	; 0x8000000
    8018:	e3a0b000 	mov	fp, #0, 0
    801c:	eb00084c 	bl	a154 <_cstart>
    8020:	eb0008af 	bl	a2e4 <rpi_reboot>

00008024 <PUT32>:
    8024:	e5801000 	str	r1, [r0]
    8028:	e12fff1e 	bx	lr

0000802c <GET32>:
    802c:	e5900000 	ldr	r0, [r0]
    8030:	e12fff1e 	bx	lr

00008034 <BRANCHTO>:
    8034:	e12fff10 	bx	r0

00008038 <notmain>:
    8038:	e92d41f0 	push	{r4, r5, r6, r7, r8, lr}
    803c:	e24dd050 	sub	sp, sp, #80, 0	; 0x50
    8040:	eb0004cb 	bl	9374 <staff_mmu_is_enabled>
    8044:	e3500000 	cmp	r0, #0, 0
    8048:	1a0000a7 	bne	82ec <notmain+0x2b4>
    804c:	e3a01601 	mov	r1, #1048576	; 0x100000
    8050:	e1a00001 	mov	r0, r1
    8054:	eb00096c 	bl	a60c <kmalloc_init_set_start>
    8058:	e3e00000 	mvn	r0, #0, 0
    805c:	eb0006b6 	bl	9b3c <staff_pin_mmu_init>
    8060:	e3a04001 	mov	r4, #1, 0
    8064:	e58d403c 	str	r4, [sp, #60]	; 0x3c
    8068:	e3a06000 	mov	r6, #0, 0
    806c:	e58d6040 	str	r6, [sp, #64]	; 0x40
    8070:	e58d4044 	str	r4, [sp, #68]	; 0x44
    8074:	e3a07003 	mov	r7, #3, 0
    8078:	e58d7048 	str	r7, [sp, #72]	; 0x48
    807c:	e5cd404c 	strb	r4, [sp, #76]	; 0x4c
    8080:	e5cd604d 	strb	r6, [sp, #77]	; 0x4d
    8084:	e58d4028 	str	r4, [sp, #40]	; 0x28
    8088:	e58d602c 	str	r6, [sp, #44]	; 0x2c
    808c:	e58d4030 	str	r4, [sp, #48]	; 0x30
    8090:	e58d7034 	str	r7, [sp, #52]	; 0x34
    8094:	e5cd4038 	strb	r4, [sp, #56]	; 0x38
    8098:	e3a08004 	mov	r8, #4, 0
    809c:	e5cd8039 	strb	r8, [sp, #57]	; 0x39
    80a0:	e28d5040 	add	r5, sp, #64, 0	; 0x40
    80a4:	e895000f 	ldm	r5, {r0, r1, r2, r3}
    80a8:	e88d000f 	stm	sp, {r0, r1, r2, r3}
    80ac:	e1a03004 	mov	r3, r4
    80b0:	e3a02202 	mov	r2, #536870912	; 0x20000000
    80b4:	e1a01002 	mov	r1, r2
    80b8:	eb00014b 	bl	85ec <pin_mmu_sec>
    80bc:	e59fc360 	ldr	ip, [pc, #864]	; 8424 <notmain+0x3ec>
    80c0:	e895000f 	ldm	r5, {r0, r1, r2, r3}
    80c4:	e88d000f 	stm	sp, {r0, r1, r2, r3}
    80c8:	e59d303c 	ldr	r3, [sp, #60]	; 0x3c
    80cc:	e1a0200c 	mov	r2, ip
    80d0:	e1a0100c 	mov	r1, ip
    80d4:	e1a00004 	mov	r0, r4
    80d8:	eb000143 	bl	85ec <pin_mmu_sec>
    80dc:	e59fc344 	ldr	ip, [pc, #836]	; 8428 <notmain+0x3f0>
    80e0:	e895000f 	ldm	r5, {r0, r1, r2, r3}
    80e4:	e88d000f 	stm	sp, {r0, r1, r2, r3}
    80e8:	e59d303c 	ldr	r3, [sp, #60]	; 0x3c
    80ec:	e1a0200c 	mov	r2, ip
    80f0:	e1a0100c 	mov	r1, ip
    80f4:	e3a00002 	mov	r0, #2, 0
    80f8:	eb00013b 	bl	85ec <pin_mmu_sec>
    80fc:	e28d502c 	add	r5, sp, #44, 0	; 0x2c
    8100:	e895000f 	ldm	r5, {r0, r1, r2, r3}
    8104:	e88d000f 	stm	sp, {r0, r1, r2, r3}
    8108:	e59d3028 	ldr	r3, [sp, #40]	; 0x28
    810c:	e1a02006 	mov	r2, r6
    8110:	e1a01006 	mov	r1, r6
    8114:	e1a00007 	mov	r0, r7
    8118:	eb000133 	bl	85ec <pin_mmu_sec>
    811c:	e895000f 	ldm	r5, {r0, r1, r2, r3}
    8120:	e88d000f 	stm	sp, {r0, r1, r2, r3}
    8124:	e59d3028 	ldr	r3, [sp, #40]	; 0x28
    8128:	e3a02601 	mov	r2, #1048576	; 0x100000
    812c:	e1a01002 	mov	r1, r2
    8130:	e1a00008 	mov	r0, r8
    8134:	eb00012c 	bl	85ec <pin_mmu_sec>
    8138:	e895000f 	ldm	r5, {r0, r1, r2, r3}
    813c:	e88d000f 	stm	sp, {r0, r1, r2, r3}
    8140:	e59d3028 	ldr	r3, [sp, #40]	; 0x28
    8144:	e3a0267f 	mov	r2, #133169152	; 0x7f00000
    8148:	e1a01002 	mov	r1, r2
    814c:	e3a00005 	mov	r0, #5, 0
    8150:	eb000125 	bl	85ec <pin_mmu_sec>
    8154:	e58d6014 	str	r6, [sp, #20]
    8158:	e58d4018 	str	r4, [sp, #24]
    815c:	e58d401c 	str	r4, [sp, #28]
    8160:	e58d7020 	str	r7, [sp, #32]
    8164:	e5cd4024 	strb	r4, [sp, #36]	; 0x24
    8168:	e5cd8025 	strb	r8, [sp, #37]	; 0x25
    816c:	e59f12b8 	ldr	r1, [pc, #696]	; 842c <notmain+0x3f4>
    8170:	e3a00401 	mov	r0, #16777216	; 0x1000000
    8174:	ebffffaa 	bl	8024 <PUT32>
    8178:	e28d3018 	add	r3, sp, #24, 0
    817c:	e893000f 	ldm	r3, {r0, r1, r2, r3}
    8180:	e88d000f 	stm	sp, {r0, r1, r2, r3}
    8184:	e59d3014 	ldr	r3, [sp, #20]
    8188:	e3a02401 	mov	r2, #16777216	; 0x1000000
    818c:	e1a01002 	mov	r1, r2
    8190:	e3a00006 	mov	r0, #6, 0
    8194:	eb000114 	bl	85ec <pin_mmu_sec>
    8198:	e59f1290 	ldr	r1, [pc, #656]	; 8430 <notmain+0x3f8>
    819c:	e59f0290 	ldr	r0, [pc, #656]	; 8434 <notmain+0x3fc>
    81a0:	eb0006b3 	bl	9c74 <printk>
    81a4:	e59f028c 	ldr	r0, [pc, #652]	; 8438 <notmain+0x400>
    81a8:	eb0006b1 	bl	9c74 <printk>
    81ac:	e59f0288 	ldr	r0, [pc, #648]	; 843c <notmain+0x404>
    81b0:	eb00054f 	bl	96f4 <lockdown_print_entries>
    81b4:	e1a01004 	mov	r1, r4
    81b8:	e1a00006 	mov	r0, r6
    81bc:	eb00067d 	bl	9bb8 <staff_pin_mmu_switch>
    81c0:	eb00046b 	bl	9374 <staff_mmu_is_enabled>
    81c4:	e1500006 	cmp	r0, r6
    81c8:	1a00004f 	bne	830c <notmain+0x2d4>
    81cc:	eb000420 	bl	9254 <staff_mmu_enable>
    81d0:	eb000467 	bl	9374 <staff_mmu_is_enabled>
    81d4:	e3500000 	cmp	r0, #0, 0
    81d8:	0a000053 	beq	832c <notmain+0x2f4>
    81dc:	e3a0160a 	mov	r1, #10485760	; 0xa00000
    81e0:	e28d0010 	add	r0, sp, #16, 0
    81e4:	eb0000dd 	bl	8560 <tlb_contains_va>
    81e8:	e3500000 	cmp	r0, #0, 0
    81ec:	1a000056 	bne	834c <notmain+0x314>
    81f0:	e59f0248 	ldr	r0, [pc, #584]	; 8440 <notmain+0x408>
    81f4:	eb00069e 	bl	9c74 <printk>
    81f8:	eb00045d 	bl	9374 <staff_mmu_is_enabled>
    81fc:	e3500000 	cmp	r0, #0, 0
    8200:	0a000057 	beq	8364 <notmain+0x32c>
    8204:	e59f6224 	ldr	r6, [pc, #548]	; 8430 <notmain+0x3f8>
    8208:	e59f5224 	ldr	r5, [pc, #548]	; 8434 <notmain+0x3fc>
    820c:	e1a01006 	mov	r1, r6
    8210:	e1a00005 	mov	r0, r5
    8214:	eb000696 	bl	9c74 <printk>
    8218:	e59f0224 	ldr	r0, [pc, #548]	; 8444 <notmain+0x40c>
    821c:	eb000694 	bl	9c74 <printk>
    8220:	e3a00401 	mov	r0, #16777216	; 0x1000000
    8224:	ebffff80 	bl	802c <GET32>
    8228:	e1a04000 	mov	r4, r0
    822c:	e1a01006 	mov	r1, r6
    8230:	e1a00005 	mov	r0, r5
    8234:	eb00068e 	bl	9c74 <printk>
    8238:	e1a01004 	mov	r1, r4
    823c:	e59f0204 	ldr	r0, [pc, #516]	; 8448 <notmain+0x410>
    8240:	eb00068b 	bl	9c74 <printk>
    8244:	e59f31e0 	ldr	r3, [pc, #480]	; 842c <notmain+0x3f4>
    8248:	e1540003 	cmp	r4, r3
    824c:	1a00004c 	bne	8384 <notmain+0x34c>
    8250:	e3a01001 	mov	r1, #1, 0
    8254:	e3a00401 	mov	r0, #16777216	; 0x1000000
    8258:	ebffff71 	bl	8024 <PUT32>
    825c:	eb000444 	bl	9374 <staff_mmu_is_enabled>
    8260:	e3500000 	cmp	r0, #0, 0
    8264:	0a00004e 	beq	83a4 <notmain+0x36c>
    8268:	eb0003e4 	bl	9200 <staff_mmu_disable>
    826c:	eb000440 	bl	9374 <staff_mmu_is_enabled>
    8270:	e3500000 	cmp	r0, #0, 0
    8274:	1a000052 	bne	83c4 <notmain+0x38c>
    8278:	eb00043d 	bl	9374 <staff_mmu_is_enabled>
    827c:	e3500000 	cmp	r0, #0, 0
    8280:	1a000057 	bne	83e4 <notmain+0x3ac>
    8284:	e59f51a4 	ldr	r5, [pc, #420]	; 8430 <notmain+0x3f8>
    8288:	e59f41a4 	ldr	r4, [pc, #420]	; 8434 <notmain+0x3fc>
    828c:	e1a01005 	mov	r1, r5
    8290:	e1a00004 	mov	r0, r4
    8294:	eb000676 	bl	9c74 <printk>
    8298:	e59f01ac 	ldr	r0, [pc, #428]	; 844c <notmain+0x414>
    829c:	eb000674 	bl	9c74 <printk>
    82a0:	e1a01005 	mov	r1, r5
    82a4:	e1a00004 	mov	r0, r4
    82a8:	eb000671 	bl	9c74 <printk>
    82ac:	e3a00401 	mov	r0, #16777216	; 0x1000000
    82b0:	ebffff5d 	bl	802c <GET32>
    82b4:	e1a01000 	mov	r1, r0
    82b8:	e59f0190 	ldr	r0, [pc, #400]	; 8450 <notmain+0x418>
    82bc:	eb00066c 	bl	9c74 <printk>
    82c0:	e3a00401 	mov	r0, #16777216	; 0x1000000
    82c4:	ebffff58 	bl	802c <GET32>
    82c8:	e3500001 	cmp	r0, #1, 0
    82cc:	1a00004c 	bne	8404 <notmain+0x3cc>
    82d0:	e59f1158 	ldr	r1, [pc, #344]	; 8430 <notmain+0x3f8>
    82d4:	e59f0158 	ldr	r0, [pc, #344]	; 8434 <notmain+0x3fc>
    82d8:	eb000665 	bl	9c74 <printk>
    82dc:	e59f0170 	ldr	r0, [pc, #368]	; 8454 <notmain+0x41c>
    82e0:	eb000663 	bl	9c74 <printk>
    82e4:	e28dd050 	add	sp, sp, #80, 0	; 0x50
    82e8:	e8bd81f0 	pop	{r4, r5, r6, r7, r8, pc}
    82ec:	e59f3164 	ldr	r3, [pc, #356]	; 8458 <notmain+0x420>
    82f0:	e58d3000 	str	r3, [sp]
    82f4:	e3a03007 	mov	r3, #7, 0
    82f8:	e59f2130 	ldr	r2, [pc, #304]	; 8430 <notmain+0x3f8>
    82fc:	e59f1158 	ldr	r1, [pc, #344]	; 845c <notmain+0x424>
    8300:	e59f0158 	ldr	r0, [pc, #344]	; 8460 <notmain+0x428>
    8304:	eb00065a 	bl	9c74 <printk>
    8308:	eb000789 	bl	a134 <clean_reboot>
    830c:	e59f3144 	ldr	r3, [pc, #324]	; 8458 <notmain+0x420>
    8310:	e58d3000 	str	r3, [sp]
    8314:	e59f3148 	ldr	r3, [pc, #328]	; 8464 <notmain+0x42c>
    8318:	e59f2148 	ldr	r2, [pc, #328]	; 8468 <notmain+0x430>
    831c:	e59f1148 	ldr	r1, [pc, #328]	; 846c <notmain+0x434>
    8320:	e59f0138 	ldr	r0, [pc, #312]	; 8460 <notmain+0x428>
    8324:	eb000652 	bl	9c74 <printk>
    8328:	eb000781 	bl	a134 <clean_reboot>
    832c:	e59f313c 	ldr	r3, [pc, #316]	; 8470 <notmain+0x438>
    8330:	e58d3000 	str	r3, [sp]
    8334:	e59f3138 	ldr	r3, [pc, #312]	; 8474 <notmain+0x43c>
    8338:	e59f2128 	ldr	r2, [pc, #296]	; 8468 <notmain+0x430>
    833c:	e59f1128 	ldr	r1, [pc, #296]	; 846c <notmain+0x434>
    8340:	e59f0118 	ldr	r0, [pc, #280]	; 8460 <notmain+0x428>
    8344:	eb00064a 	bl	9c74 <printk>
    8348:	eb000779 	bl	a134 <clean_reboot>
    834c:	e3a03049 	mov	r3, #73, 0	; 0x49
    8350:	e59f20d8 	ldr	r2, [pc, #216]	; 8430 <notmain+0x3f8>
    8354:	e59f1100 	ldr	r1, [pc, #256]	; 845c <notmain+0x424>
    8358:	e59f0118 	ldr	r0, [pc, #280]	; 8478 <notmain+0x440>
    835c:	eb000644 	bl	9c74 <printk>
    8360:	eb000773 	bl	a134 <clean_reboot>
    8364:	e59f3104 	ldr	r3, [pc, #260]	; 8470 <notmain+0x438>
    8368:	e58d3000 	str	r3, [sp]
    836c:	e3a0304d 	mov	r3, #77, 0	; 0x4d
    8370:	e59f20b8 	ldr	r2, [pc, #184]	; 8430 <notmain+0x3f8>
    8374:	e59f10e0 	ldr	r1, [pc, #224]	; 845c <notmain+0x424>
    8378:	e59f00e0 	ldr	r0, [pc, #224]	; 8460 <notmain+0x428>
    837c:	eb00063c 	bl	9c74 <printk>
    8380:	eb00076b 	bl	a134 <clean_reboot>
    8384:	e59f30f0 	ldr	r3, [pc, #240]	; 847c <notmain+0x444>
    8388:	e58d3000 	str	r3, [sp]
    838c:	e3a03052 	mov	r3, #82, 0	; 0x52
    8390:	e1a02006 	mov	r2, r6
    8394:	e59f10c0 	ldr	r1, [pc, #192]	; 845c <notmain+0x424>
    8398:	e59f00c0 	ldr	r0, [pc, #192]	; 8460 <notmain+0x428>
    839c:	eb000634 	bl	9c74 <printk>
    83a0:	eb000763 	bl	a134 <clean_reboot>
    83a4:	e59f30c4 	ldr	r3, [pc, #196]	; 8470 <notmain+0x438>
    83a8:	e58d3000 	str	r3, [sp]
    83ac:	e59f30cc 	ldr	r3, [pc, #204]	; 8480 <notmain+0x448>
    83b0:	e59f20cc 	ldr	r2, [pc, #204]	; 8484 <notmain+0x44c>
    83b4:	e59f10b0 	ldr	r1, [pc, #176]	; 846c <notmain+0x434>
    83b8:	e59f00a0 	ldr	r0, [pc, #160]	; 8460 <notmain+0x428>
    83bc:	eb00062c 	bl	9c74 <printk>
    83c0:	eb00075b 	bl	a134 <clean_reboot>
    83c4:	e59f308c 	ldr	r3, [pc, #140]	; 8458 <notmain+0x420>
    83c8:	e58d3000 	str	r3, [sp]
    83cc:	e59f30b4 	ldr	r3, [pc, #180]	; 8488 <notmain+0x450>
    83d0:	e59f20ac 	ldr	r2, [pc, #172]	; 8484 <notmain+0x44c>
    83d4:	e59f1090 	ldr	r1, [pc, #144]	; 846c <notmain+0x434>
    83d8:	e59f0080 	ldr	r0, [pc, #128]	; 8460 <notmain+0x428>
    83dc:	eb000624 	bl	9c74 <printk>
    83e0:	eb000753 	bl	a134 <clean_reboot>
    83e4:	e59f306c 	ldr	r3, [pc, #108]	; 8458 <notmain+0x420>
    83e8:	e58d3000 	str	r3, [sp]
    83ec:	e3a03056 	mov	r3, #86, 0	; 0x56
    83f0:	e59f2038 	ldr	r2, [pc, #56]	; 8430 <notmain+0x3f8>
    83f4:	e59f1060 	ldr	r1, [pc, #96]	; 845c <notmain+0x424>
    83f8:	e59f0060 	ldr	r0, [pc, #96]	; 8460 <notmain+0x428>
    83fc:	eb00061c 	bl	9c74 <printk>
    8400:	eb00074b 	bl	a134 <clean_reboot>
    8404:	e59f3080 	ldr	r3, [pc, #128]	; 848c <notmain+0x454>
    8408:	e58d3000 	str	r3, [sp]
    840c:	e3a03059 	mov	r3, #89, 0	; 0x59
    8410:	e1a02005 	mov	r2, r5
    8414:	e59f1040 	ldr	r1, [pc, #64]	; 845c <notmain+0x424>
    8418:	e59f0040 	ldr	r0, [pc, #64]	; 8460 <notmain+0x428>
    841c:	eb000614 	bl	9c74 <printk>
    8420:	eb000743 	bl	a134 <clean_reboot>
    8424:	20100000 	.word	0x20100000
    8428:	20200000 	.word	0x20200000
    842c:	deadbeef 	.word	0xdeadbeef
    8430:	0000ad58 	.word	0x0000ad58
    8434:	0000ac4c 	.word	0x0000ac4c
    8438:	0000ac58 	.word	0x0000ac58
    843c:	0000ac6c 	.word	0x0000ac6c
    8440:	0000accc 	.word	0x0000accc
    8444:	0000acd8 	.word	0x0000acd8
    8448:	0000acf0 	.word	0x0000acf0
    844c:	0000ad14 	.word	0x0000ad14
    8450:	0000ad24 	.word	0x0000ad24
    8454:	0000ad4c 	.word	0x0000ad4c
    8458:	0000ac38 	.word	0x0000ac38
    845c:	0000abf0 	.word	0x0000abf0
    8460:	0000ac08 	.word	0x0000ac08
    8464:	0000013d 	.word	0x0000013d
    8468:	0000ad60 	.word	0x0000ad60
    846c:	0000ac88 	.word	0x0000ac88
    8470:	0000ac98 	.word	0x0000ac98
    8474:	0000013f 	.word	0x0000013f
    8478:	0000acac 	.word	0x0000acac
    847c:	0000ad04 	.word	0x0000ad04
    8480:	00000143 	.word	0x00000143
    8484:	0000ad70 	.word	0x0000ad70
    8488:	00000145 	.word	0x00000145
    848c:	0000ad34 	.word	0x0000ad34

00008490 <bits_get>:
    8490:	e52de004 	push	{lr}		; (str lr, [sp, #-4]!)
    8494:	e24dd00c 	sub	sp, sp, #12, 0
    8498:	e1510002 	cmp	r1, r2
    849c:	8a00000e 	bhi	84dc <bits_get+0x4c>
    84a0:	e352001f 	cmp	r2, #31, 0
    84a4:	8a000014 	bhi	84fc <bits_get+0x6c>
    84a8:	e1a00130 	lsr	r0, r0, r1
    84ac:	e0422001 	sub	r2, r2, r1
    84b0:	e2821001 	add	r1, r2, #1, 0
    84b4:	e352001f 	cmp	r2, #31, 0
    84b8:	0a00001f 	beq	853c <bits_get+0xac>
    84bc:	e351001f 	cmp	r1, #31, 0
    84c0:	8a000015 	bhi	851c <bits_get+0x8c>
    84c4:	e3a03001 	mov	r3, #1, 0
    84c8:	e1a03113 	lsl	r3, r3, r1
    84cc:	e2433001 	sub	r3, r3, #1, 0
    84d0:	e0000003 	and	r0, r0, r3
    84d4:	e28dd00c 	add	sp, sp, #12, 0
    84d8:	e49df004 	pop	{pc}		; (ldr pc, [sp], #4)
    84dc:	e59f3060 	ldr	r3, [pc, #96]	; 8544 <bits_get+0xb4>
    84e0:	e58d3000 	str	r3, [sp]
    84e4:	e3a0303a 	mov	r3, #58, 0	; 0x3a
    84e8:	e59f2058 	ldr	r2, [pc, #88]	; 8548 <bits_get+0xb8>
    84ec:	e59f1058 	ldr	r1, [pc, #88]	; 854c <bits_get+0xbc>
    84f0:	e59f0058 	ldr	r0, [pc, #88]	; 8550 <bits_get+0xc0>
    84f4:	eb0005de 	bl	9c74 <printk>
    84f8:	eb00070d 	bl	a134 <clean_reboot>
    84fc:	e59f3050 	ldr	r3, [pc, #80]	; 8554 <bits_get+0xc4>
    8500:	e58d3000 	str	r3, [sp]
    8504:	e3a0303b 	mov	r3, #59, 0	; 0x3b
    8508:	e59f2038 	ldr	r2, [pc, #56]	; 8548 <bits_get+0xb8>
    850c:	e59f1038 	ldr	r1, [pc, #56]	; 854c <bits_get+0xbc>
    8510:	e59f0038 	ldr	r0, [pc, #56]	; 8550 <bits_get+0xc0>
    8514:	eb0005d6 	bl	9c74 <printk>
    8518:	eb000705 	bl	a134 <clean_reboot>
    851c:	e59f3034 	ldr	r3, [pc, #52]	; 8558 <bits_get+0xc8>
    8520:	e58d3000 	str	r3, [sp]
    8524:	e3a03033 	mov	r3, #51, 0	; 0x33
    8528:	e59f202c 	ldr	r2, [pc, #44]	; 855c <bits_get+0xcc>
    852c:	e59f1018 	ldr	r1, [pc, #24]	; 854c <bits_get+0xbc>
    8530:	e59f0018 	ldr	r0, [pc, #24]	; 8550 <bits_get+0xc0>
    8534:	eb0005ce 	bl	9c74 <printk>
    8538:	eb0006fd 	bl	a134 <clean_reboot>
    853c:	e3e03000 	mvn	r3, #0, 0
    8540:	eaffffe2 	b	84d0 <bits_get+0x40>
    8544:	0000adc8 	.word	0x0000adc8
    8548:	0000b084 	.word	0x0000b084
    854c:	0000ad80 	.word	0x0000ad80
    8550:	0000ac08 	.word	0x0000ac08
    8554:	0000add4 	.word	0x0000add4
    8558:	0000addc 	.word	0x0000addc
    855c:	0000b090 	.word	0x0000b090

00008560 <tlb_contains_va>:
    8560:	e3110007 	tst	r1, #7, 0
    8564:	1a00000d 	bne	85a0 <tlb_contains_va+0x40>
    8568:	e3a02000 	mov	r2, #0, 0
    856c:	e3520007 	cmp	r2, #7, 0
    8570:	ca000017 	bgt	85d4 <tlb_contains_va+0x74>
    8574:	eeaf2f54 	mcr	15, 5, r2, cr15, cr4, {2}
    8578:	e3a03000 	mov	r3, #0, 0
    857c:	ee073f95 	mcr	15, 0, r3, cr7, cr5, {4}
    8580:	eebf3f55 	mrc	15, 5, r3, cr15, cr5, {2}
    8584:	e0233001 	eor	r3, r3, r1
    8588:	e1a03a23 	lsr	r3, r3, #20
    858c:	e1a03a03 	lsl	r3, r3, #20
    8590:	e3530000 	cmp	r3, #0, 0
    8594:	0a00000b 	beq	85c8 <tlb_contains_va+0x68>
    8598:	e2822001 	add	r2, r2, #1, 0
    859c:	eafffff2 	b	856c <tlb_contains_va+0xc>
    85a0:	e52de004 	push	{lr}		; (str lr, [sp, #-4]!)
    85a4:	e24dd00c 	sub	sp, sp, #12, 0
    85a8:	e59f302c 	ldr	r3, [pc, #44]	; 85dc <tlb_contains_va+0x7c>
    85ac:	e58d3000 	str	r3, [sp]
    85b0:	e3a03042 	mov	r3, #66, 0	; 0x42
    85b4:	e59f2024 	ldr	r2, [pc, #36]	; 85e0 <tlb_contains_va+0x80>
    85b8:	e59f1024 	ldr	r1, [pc, #36]	; 85e4 <tlb_contains_va+0x84>
    85bc:	e59f0024 	ldr	r0, [pc, #36]	; 85e8 <tlb_contains_va+0x88>
    85c0:	eb0005ab 	bl	9c74 <printk>
    85c4:	eb0006da 	bl	a134 <clean_reboot>
    85c8:	e5801000 	str	r1, [r0]
    85cc:	e3a00001 	mov	r0, #1, 0
    85d0:	e12fff1e 	bx	lr
    85d4:	e3a00000 	mov	r0, #0, 0
    85d8:	e12fff1e 	bx	lr
    85dc:	0000ae00 	.word	0x0000ae00
    85e0:	0000b09c 	.word	0x0000b09c
    85e4:	0000adf4 	.word	0x0000adf4
    85e8:	0000ac08 	.word	0x0000ac08

000085ec <pin_mmu_sec>:
    85ec:	e24dd008 	sub	sp, sp, #8, 0
    85f0:	e92d4070 	push	{r4, r5, r6, lr}
    85f4:	e24dd008 	sub	sp, sp, #8, 0
    85f8:	e58d301c 	str	r3, [sp, #28]
    85fc:	e3500007 	cmp	r0, #7, 0
    8600:	8a000036 	bhi	86e0 <pin_mmu_sec+0xf4>
    8604:	e1a06000 	mov	r6, r0
    8608:	e1a05001 	mov	r5, r1
    860c:	e1a04002 	mov	r4, r2
    8610:	e3c134ff 	bic	r3, r1, #-16777216	; 0xff000000
    8614:	e3c3360f 	bic	r3, r3, #15728640	; 0xf00000
    8618:	e3530000 	cmp	r3, #0, 0
    861c:	1a000037 	bne	8700 <pin_mmu_sec+0x114>
    8620:	e3c234ff 	bic	r3, r2, #-16777216	; 0xff000000
    8624:	e3c3360f 	bic	r3, r3, #15728640	; 0xf00000
    8628:	e3530000 	cmp	r3, #0, 0
    862c:	1a00003b 	bne	8720 <pin_mmu_sec+0x134>
    8630:	e1510002 	cmp	r1, r2
    8634:	1a000041 	bne	8740 <pin_mmu_sec+0x154>
    8638:	e58d2004 	str	r2, [sp, #4]
    863c:	e58d1000 	str	r1, [sp]
    8640:	e3a0306a 	mov	r3, #106, 0	; 0x6a
    8644:	e59f2174 	ldr	r2, [pc, #372]	; 87c0 <pin_mmu_sec+0x1d4>
    8648:	e59f1174 	ldr	r1, [pc, #372]	; 87c4 <pin_mmu_sec+0x1d8>
    864c:	e59f0174 	ldr	r0, [pc, #372]	; 87c8 <pin_mmu_sec+0x1dc>
    8650:	eb000587 	bl	9c74 <printk>
    8654:	eeaf6f54 	mcr	15, 5, r6, cr15, cr4, {2}
    8658:	e3a00000 	mov	r0, #0, 0
    865c:	ee070f95 	mcr	15, 0, r0, cr7, cr5, {4}
    8660:	e59d1020 	ldr	r1, [sp, #32]
    8664:	e1815005 	orr	r5, r1, r5
    8668:	e59d101c 	ldr	r1, [sp, #28]
    866c:	e1855481 	orr	r5, r5, r1, lsl #9
    8670:	eeaf5f55 	mcr	15, 5, r5, cr15, cr5, {2}
    8674:	ee070f95 	mcr	15, 0, r0, cr7, cr5, {4}
    8678:	e59d2028 	ldr	r2, [sp, #40]	; 0x28
    867c:	e1844302 	orr	r4, r4, r2, lsl #6
    8680:	e5dd202c 	ldrb	r2, [sp, #44]	; 0x2c
    8684:	e1844082 	orr	r4, r4, r2, lsl #1
    8688:	e3844001 	orr	r4, r4, #1, 0
    868c:	eeaf4f56 	mcr	15, 5, r4, cr15, cr6, {2}
    8690:	ee070f95 	mcr	15, 0, r0, cr7, cr5, {4}
    8694:	e5dd302d 	ldrb	r3, [sp, #45]	; 0x2d
    8698:	e1a03083 	lsl	r3, r3, #1
    869c:	e59d2024 	ldr	r2, [sp, #36]	; 0x24
    86a0:	e1833382 	orr	r3, r3, r2, lsl #7
    86a4:	eeaf3f57 	mcr	15, 5, r3, cr15, cr7, {2}
    86a8:	ee070f95 	mcr	15, 0, r0, cr7, cr5, {4}
    86ac:	eebf2f55 	mrc	15, 5, r2, cr15, cr5, {2}
    86b0:	e1550002 	cmp	r5, r2
    86b4:	1a000029 	bne	8760 <pin_mmu_sec+0x174>
    86b8:	eebf2f56 	mrc	15, 5, r2, cr15, cr6, {2}
    86bc:	e1540002 	cmp	r4, r2
    86c0:	1a00002e 	bne	8780 <pin_mmu_sec+0x194>
    86c4:	eebf2f57 	mrc	15, 5, r2, cr15, cr7, {2}
    86c8:	e1530002 	cmp	r3, r2
    86cc:	1a000033 	bne	87a0 <pin_mmu_sec+0x1b4>
    86d0:	e28dd008 	add	sp, sp, #8, 0
    86d4:	e8bd4070 	pop	{r4, r5, r6, lr}
    86d8:	e28dd008 	add	sp, sp, #8, 0
    86dc:	e12fff1e 	bx	lr
    86e0:	e59f30e4 	ldr	r3, [pc, #228]	; 87cc <pin_mmu_sec+0x1e0>
    86e4:	e58d3000 	str	r3, [sp]
    86e8:	e3a03061 	mov	r3, #97, 0	; 0x61
    86ec:	e59f20cc 	ldr	r2, [pc, #204]	; 87c0 <pin_mmu_sec+0x1d4>
    86f0:	e59f10cc 	ldr	r1, [pc, #204]	; 87c4 <pin_mmu_sec+0x1d8>
    86f4:	e59f00d4 	ldr	r0, [pc, #212]	; 87d0 <pin_mmu_sec+0x1e4>
    86f8:	eb00055d 	bl	9c74 <printk>
    86fc:	eb00068c 	bl	a134 <clean_reboot>
    8700:	e59f30cc 	ldr	r3, [pc, #204]	; 87d4 <pin_mmu_sec+0x1e8>
    8704:	e58d3000 	str	r3, [sp]
    8708:	e3a03063 	mov	r3, #99, 0	; 0x63
    870c:	e59f20ac 	ldr	r2, [pc, #172]	; 87c0 <pin_mmu_sec+0x1d4>
    8710:	e59f10ac 	ldr	r1, [pc, #172]	; 87c4 <pin_mmu_sec+0x1d8>
    8714:	e59f00bc 	ldr	r0, [pc, #188]	; 87d8 <pin_mmu_sec+0x1ec>
    8718:	eb000555 	bl	9c74 <printk>
    871c:	eb000684 	bl	a134 <clean_reboot>
    8720:	e59f30b4 	ldr	r3, [pc, #180]	; 87dc <pin_mmu_sec+0x1f0>
    8724:	e58d3000 	str	r3, [sp]
    8728:	e3a03064 	mov	r3, #100, 0	; 0x64
    872c:	e59f208c 	ldr	r2, [pc, #140]	; 87c0 <pin_mmu_sec+0x1d4>
    8730:	e59f108c 	ldr	r1, [pc, #140]	; 87c4 <pin_mmu_sec+0x1d8>
    8734:	e59f009c 	ldr	r0, [pc, #156]	; 87d8 <pin_mmu_sec+0x1ec>
    8738:	eb00054d 	bl	9c74 <printk>
    873c:	eb00067c 	bl	a134 <clean_reboot>
    8740:	e58d2004 	str	r2, [sp, #4]
    8744:	e58d1000 	str	r1, [sp]
    8748:	e3a03067 	mov	r3, #103, 0	; 0x67
    874c:	e59f206c 	ldr	r2, [pc, #108]	; 87c0 <pin_mmu_sec+0x1d4>
    8750:	e59f106c 	ldr	r1, [pc, #108]	; 87c4 <pin_mmu_sec+0x1d8>
    8754:	e59f0084 	ldr	r0, [pc, #132]	; 87e0 <pin_mmu_sec+0x1f4>
    8758:	eb000545 	bl	9c74 <printk>
    875c:	eb000674 	bl	a134 <clean_reboot>
    8760:	e58d2004 	str	r2, [sp, #4]
    8764:	e58d5000 	str	r5, [sp]
    8768:	e3a030b5 	mov	r3, #181, 0	; 0xb5
    876c:	e59f204c 	ldr	r2, [pc, #76]	; 87c0 <pin_mmu_sec+0x1d4>
    8770:	e59f104c 	ldr	r1, [pc, #76]	; 87c4 <pin_mmu_sec+0x1d8>
    8774:	e59f0068 	ldr	r0, [pc, #104]	; 87e4 <pin_mmu_sec+0x1f8>
    8778:	eb00053d 	bl	9c74 <printk>
    877c:	eb00066c 	bl	a134 <clean_reboot>
    8780:	e58d2004 	str	r2, [sp, #4]
    8784:	e58d4000 	str	r4, [sp]
    8788:	e3a030b7 	mov	r3, #183, 0	; 0xb7
    878c:	e59f202c 	ldr	r2, [pc, #44]	; 87c0 <pin_mmu_sec+0x1d4>
    8790:	e59f102c 	ldr	r1, [pc, #44]	; 87c4 <pin_mmu_sec+0x1d8>
    8794:	e59f004c 	ldr	r0, [pc, #76]	; 87e8 <pin_mmu_sec+0x1fc>
    8798:	eb000535 	bl	9c74 <printk>
    879c:	eb000664 	bl	a134 <clean_reboot>
    87a0:	e58d2004 	str	r2, [sp, #4]
    87a4:	e58d3000 	str	r3, [sp]
    87a8:	e3a030b9 	mov	r3, #185, 0	; 0xb9
    87ac:	e59f200c 	ldr	r2, [pc, #12]	; 87c0 <pin_mmu_sec+0x1d4>
    87b0:	e59f100c 	ldr	r1, [pc, #12]	; 87c4 <pin_mmu_sec+0x1d8>
    87b4:	e59f0030 	ldr	r0, [pc, #48]	; 87ec <pin_mmu_sec+0x200>
    87b8:	eb00052d 	bl	9c74 <printk>
    87bc:	eb00065c 	bl	a134 <clean_reboot>
    87c0:	0000b0ac 	.word	0x0000b0ac
    87c4:	0000adf4 	.word	0x0000adf4
    87c8:	0000af24 	.word	0x0000af24
    87cc:	0000ae5c 	.word	0x0000ae5c
    87d0:	0000ae18 	.word	0x0000ae18
    87d4:	0000aeac 	.word	0x0000aeac
    87d8:	0000ae64 	.word	0x0000ae64
    87dc:	0000aec8 	.word	0x0000aec8
    87e0:	0000aee4 	.word	0x0000aee4
    87e4:	0000af48 	.word	0x0000af48
    87e8:	0000af7c 	.word	0x0000af7c
    87ec:	0000afb0 	.word	0x0000afb0

000087f0 <pin_check_exists>:
    87f0:	e92d4030 	push	{r4, r5, lr}
    87f4:	e24dd01c 	sub	sp, sp, #28, 0
    87f8:	e1a04000 	mov	r4, r0
    87fc:	eb0002dc 	bl	9374 <staff_mmu_is_enabled>
    8800:	e3500000 	cmp	r0, #0, 0
    8804:	0a000009 	beq	8830 <pin_check_exists+0x40>
    8808:	e1a01004 	mov	r1, r4
    880c:	e28d0014 	add	r0, sp, #20, 0
    8810:	ebffff52 	bl	8560 <tlb_contains_va>
    8814:	e3500000 	cmp	r0, #0, 0
    8818:	0a000012 	beq	8868 <pin_check_exists+0x78>
    881c:	e59d3014 	ldr	r3, [sp, #20]
    8820:	e1530004 	cmp	r3, r4
    8824:	1a000007 	bne	8848 <pin_check_exists+0x58>
    8828:	e28dd01c 	add	sp, sp, #28, 0
    882c:	e8bd8030 	pop	{r4, r5, pc}
    8830:	e3a030c0 	mov	r3, #192, 0	; 0xc0
    8834:	e59f2064 	ldr	r2, [pc, #100]	; 88a0 <pin_check_exists+0xb0>
    8838:	e59f1064 	ldr	r1, [pc, #100]	; 88a4 <pin_check_exists+0xb4>
    883c:	e59f0064 	ldr	r0, [pc, #100]	; 88a8 <pin_check_exists+0xb8>
    8840:	eb00050b 	bl	9c74 <printk>
    8844:	eb00063a 	bl	a134 <clean_reboot>
    8848:	e59f305c 	ldr	r3, [pc, #92]	; 88ac <pin_check_exists+0xbc>
    884c:	e58d3000 	str	r3, [sp]
    8850:	e3a030c5 	mov	r3, #197, 0	; 0xc5
    8854:	e59f2044 	ldr	r2, [pc, #68]	; 88a0 <pin_check_exists+0xb0>
    8858:	e59f1044 	ldr	r1, [pc, #68]	; 88a4 <pin_check_exists+0xb4>
    885c:	e59f004c 	ldr	r0, [pc, #76]	; 88b0 <pin_check_exists+0xc0>
    8860:	eb000503 	bl	9c74 <printk>
    8864:	eb000632 	bl	a134 <clean_reboot>
    8868:	e59d5014 	ldr	r5, [sp, #20]
    886c:	e3a02006 	mov	r2, #6, 0
    8870:	e3a01001 	mov	r1, #1, 0
    8874:	e1a00005 	mov	r0, r5
    8878:	ebffff04 	bl	8490 <bits_get>
    887c:	e58d0008 	str	r0, [sp, #8]
    8880:	e58d5004 	str	r5, [sp, #4]
    8884:	e58d4000 	str	r4, [sp]
    8888:	e3a030c7 	mov	r3, #199, 0	; 0xc7
    888c:	e59f200c 	ldr	r2, [pc, #12]	; 88a0 <pin_check_exists+0xb0>
    8890:	e59f100c 	ldr	r1, [pc, #12]	; 88a4 <pin_check_exists+0xb4>
    8894:	e59f0018 	ldr	r0, [pc, #24]	; 88b4 <pin_check_exists+0xc4>
    8898:	eb0004f5 	bl	9c74 <printk>
    889c:	eb000624 	bl	a134 <clean_reboot>
    88a0:	0000b0b8 	.word	0x0000b0b8
    88a4:	0000adf4 	.word	0x0000adf4
    88a8:	0000afe8 	.word	0x0000afe8
    88ac:	0000b034 	.word	0x0000b034
    88b0:	0000ac08 	.word	0x0000ac08
    88b4:	0000b03c 	.word	0x0000b03c

000088b8 <domain_access_ctrl_set>:
    88b8:	e92d4010 	push	{r4, lr}
    88bc:	eb00027b 	bl	92b0 <staff_domain_access_ctrl_set>
    88c0:	e8bd8010 	pop	{r4, pc}

000088c4 <pin_mmu_init>:
    88c4:	e92d4010 	push	{r4, lr}
    88c8:	eb00049b 	bl	9b3c <staff_pin_mmu_init>
    88cc:	e8bd8010 	pop	{r4, pc}

000088d0 <pin_mmu_switch>:
    88d0:	e52de004 	push	{lr}		; (str lr, [sp, #-4]!)
    88d4:	e24dd00c 	sub	sp, sp, #12, 0
    88d8:	e59f3018 	ldr	r3, [pc, #24]	; 88f8 <pin_mmu_switch+0x28>
    88dc:	e58d3000 	str	r3, [sp]
    88e0:	e3a030e5 	mov	r3, #229, 0	; 0xe5
    88e4:	e59f2010 	ldr	r2, [pc, #16]	; 88fc <pin_mmu_switch+0x2c>
    88e8:	e59f1010 	ldr	r1, [pc, #16]	; 8900 <pin_mmu_switch+0x30>
    88ec:	e59f0010 	ldr	r0, [pc, #16]	; 8904 <pin_mmu_switch+0x34>
    88f0:	eb0004df 	bl	9c74 <printk>
    88f4:	eb00060e 	bl	a134 <clean_reboot>
    88f8:	0000b07c 	.word	0x0000b07c
    88fc:	0000b0cc 	.word	0x0000b0cc
    8900:	0000adf4 	.word	0x0000adf4
    8904:	0000ac08 	.word	0x0000ac08

00008908 <bits_mask>:
    8908:	e3500020 	cmp	r0, #32, 0
    890c:	0a00000f 	beq	8950 <bits_mask+0x48>
    8910:	e350001f 	cmp	r0, #31, 0
    8914:	8a000003 	bhi	8928 <bits_mask+0x20>
    8918:	e3a03001 	mov	r3, #1, 0
    891c:	e1a00013 	lsl	r0, r3, r0
    8920:	e2400001 	sub	r0, r0, #1, 0
    8924:	e12fff1e 	bx	lr
    8928:	e52de004 	push	{lr}		; (str lr, [sp, #-4]!)
    892c:	e24dd00c 	sub	sp, sp, #12, 0
    8930:	e59f3020 	ldr	r3, [pc, #32]	; 8958 <bits_mask+0x50>
    8934:	e58d3000 	str	r3, [sp]
    8938:	e3a03033 	mov	r3, #51, 0	; 0x33
    893c:	e59f2018 	ldr	r2, [pc, #24]	; 895c <bits_mask+0x54>
    8940:	e59f1018 	ldr	r1, [pc, #24]	; 8960 <bits_mask+0x58>
    8944:	e59f0018 	ldr	r0, [pc, #24]	; 8964 <bits_mask+0x5c>
    8948:	eb0004c9 	bl	9c74 <printk>
    894c:	eb0005f8 	bl	a134 <clean_reboot>
    8950:	e3e00000 	mvn	r0, #0, 0
    8954:	e12fff1e 	bx	lr
    8958:	0000addc 	.word	0x0000addc
    895c:	0000b3dc 	.word	0x0000b3dc
    8960:	0000b0dc 	.word	0x0000b0dc
    8964:	0000ac08 	.word	0x0000ac08

00008968 <mode_get>:
    8968:	e92d4010 	push	{r4, lr}
    896c:	e24dd008 	sub	sp, sp, #8, 0
    8970:	e1a04000 	mov	r4, r0
    8974:	e3a00005 	mov	r0, #5, 0
    8978:	ebffffe2 	bl	8908 <bits_mask>
    897c:	e0000004 	and	r0, r0, r4
    8980:	e3500012 	cmp	r0, #18, 0
    8984:	13500010 	cmpne	r0, #16, 0
    8988:	0a000005 	beq	89a4 <mode_get+0x3c>
    898c:	e3500017 	cmp	r0, #23, 0
    8990:	13500013 	cmpne	r0, #19, 0
    8994:	0a000002 	beq	89a4 <mode_get+0x3c>
    8998:	e350001f 	cmp	r0, #31, 0
    899c:	1350001b 	cmpne	r0, #27, 0
    89a0:	1a000001 	bne	89ac <mode_get+0x44>
    89a4:	e28dd008 	add	sp, sp, #8, 0
    89a8:	e8bd8010 	pop	{r4, pc}
    89ac:	e58d0004 	str	r0, [sp, #4]
    89b0:	e58d0000 	str	r0, [sp]
    89b4:	e3a03013 	mov	r3, #19, 0
    89b8:	e59f200c 	ldr	r2, [pc, #12]	; 89cc <mode_get+0x64>
    89bc:	e59f100c 	ldr	r1, [pc, #12]	; 89d0 <mode_get+0x68>
    89c0:	e59f000c 	ldr	r0, [pc, #12]	; 89d4 <mode_get+0x6c>
    89c4:	eb0004aa 	bl	9c74 <printk>
    89c8:	eb0005d9 	bl	a134 <clean_reboot>
    89cc:	0000b3e8 	.word	0x0000b3e8
    89d0:	0000b118 	.word	0x0000b118
    89d4:	0000b154 	.word	0x0000b154

000089d8 <fixup_regs>:
    89d8:	e92d4070 	push	{r4, r5, r6, lr}
    89dc:	e1a05000 	mov	r5, r0
    89e0:	e1a04001 	mov	r4, r1
    89e4:	e1a00001 	mov	r0, r1
    89e8:	ebffffde 	bl	8968 <mode_get>
    89ec:	e3500010 	cmp	r0, #16, 0
    89f0:	08bd8070 	popeq	{r4, r5, r6, pc}
    89f4:	e2852038 	add	r2, r5, #56, 0	; 0x38
    89f8:	e2851034 	add	r1, r5, #52, 0	; 0x34
    89fc:	e1a00004 	mov	r0, r4
    8a00:	eb000e29 	bl	c2ac <priv_get_sp_lr_asm>
    8a04:	e8bd8070 	pop	{r4, r5, r6, pc}

00008a08 <switchto>:
    8a08:	e92d4010 	push	{r4, lr}
    8a0c:	e1a04000 	mov	r4, r0
    8a10:	e5900040 	ldr	r0, [r0, #64]	; 0x40
    8a14:	ebffffd3 	bl	8968 <mode_get>
    8a18:	e3500010 	cmp	r0, #16, 0
    8a1c:	0a000001 	beq	8a28 <switchto+0x20>
    8a20:	e1a00004 	mov	r0, r4
    8a24:	eb000e0d 	bl	c260 <switchto_priv_asm>
    8a28:	e1a00004 	mov	r0, r4
    8a2c:	eb000df9 	bl	c218 <switchto_user_asm>

00008a30 <prefetch_abort_full_except>:
    8a30:	e52de004 	push	{lr}		; (str lr, [sp, #-4]!)
    8a34:	e24dd00c 	sub	sp, sp, #12, 0
    8a38:	e5903040 	ldr	r3, [r0, #64]	; 0x40
    8a3c:	e1530001 	cmp	r3, r1
    8a40:	1a00000e 	bne	8a80 <prefetch_abort_full_except+0x50>
    8a44:	e1a04000 	mov	r4, r0
    8a48:	e590303c 	ldr	r3, [r0, #60]	; 0x3c
    8a4c:	e1530002 	cmp	r3, r2
    8a50:	1a000012 	bne	8aa0 <prefetch_abort_full_except+0x70>
    8a54:	e59f3080 	ldr	r3, [pc, #128]	; 8adc <prefetch_abort_full_except+0xac>
    8a58:	e5933000 	ldr	r3, [r3]
    8a5c:	e3530000 	cmp	r3, #0, 0
    8a60:	0a000016 	beq	8ac0 <prefetch_abort_full_except+0x90>
    8a64:	ebffffdb 	bl	89d8 <fixup_regs>
    8a68:	e59f306c 	ldr	r3, [pc, #108]	; 8adc <prefetch_abort_full_except+0xac>
    8a6c:	e5933000 	ldr	r3, [r3]
    8a70:	e1a00004 	mov	r0, r4
    8a74:	e12fff33 	blx	r3
    8a78:	e1a00004 	mov	r0, r4
    8a7c:	ebffffe1 	bl	8a08 <switchto>
    8a80:	e59f3058 	ldr	r3, [pc, #88]	; 8ae0 <prefetch_abort_full_except+0xb0>
    8a84:	e58d3000 	str	r3, [sp]
    8a88:	e3a03031 	mov	r3, #49, 0	; 0x31
    8a8c:	e59f2050 	ldr	r2, [pc, #80]	; 8ae4 <prefetch_abort_full_except+0xb4>
    8a90:	e59f1050 	ldr	r1, [pc, #80]	; 8ae8 <prefetch_abort_full_except+0xb8>
    8a94:	e59f0050 	ldr	r0, [pc, #80]	; 8aec <prefetch_abort_full_except+0xbc>
    8a98:	eb000475 	bl	9c74 <printk>
    8a9c:	eb0005a4 	bl	a134 <clean_reboot>
    8aa0:	e59f3048 	ldr	r3, [pc, #72]	; 8af0 <prefetch_abort_full_except+0xc0>
    8aa4:	e58d3000 	str	r3, [sp]
    8aa8:	e3a03032 	mov	r3, #50, 0	; 0x32
    8aac:	e59f2030 	ldr	r2, [pc, #48]	; 8ae4 <prefetch_abort_full_except+0xb4>
    8ab0:	e59f1030 	ldr	r1, [pc, #48]	; 8ae8 <prefetch_abort_full_except+0xb8>
    8ab4:	e59f0030 	ldr	r0, [pc, #48]	; 8aec <prefetch_abort_full_except+0xbc>
    8ab8:	eb00046d 	bl	9c74 <printk>
    8abc:	eb00059c 	bl	a134 <clean_reboot>
    8ac0:	e58d2000 	str	r2, [sp]
    8ac4:	e3a03035 	mov	r3, #53, 0	; 0x35
    8ac8:	e59f2014 	ldr	r2, [pc, #20]	; 8ae4 <prefetch_abort_full_except+0xb4>
    8acc:	e59f1014 	ldr	r1, [pc, #20]	; 8ae8 <prefetch_abort_full_except+0xb8>
    8ad0:	e59f001c 	ldr	r0, [pc, #28]	; 8af4 <prefetch_abort_full_except+0xc4>
    8ad4:	eb000466 	bl	9c74 <printk>
    8ad8:	eb000595 	bl	a134 <clean_reboot>
    8adc:	0000c91c 	.word	0x0000c91c
    8ae0:	0000b194 	.word	0x0000b194
    8ae4:	0000b3f4 	.word	0x0000b3f4
    8ae8:	0000b180 	.word	0x0000b180
    8aec:	0000ac08 	.word	0x0000ac08
    8af0:	0000b1b0 	.word	0x0000b1b0
    8af4:	0000b1c8 	.word	0x0000b1c8

00008af8 <data_abort_full_except>:
    8af8:	e52de004 	push	{lr}		; (str lr, [sp, #-4]!)
    8afc:	e24dd00c 	sub	sp, sp, #12, 0
    8b00:	e5903040 	ldr	r3, [r0, #64]	; 0x40
    8b04:	e1530001 	cmp	r3, r1
    8b08:	1a00000e 	bne	8b48 <data_abort_full_except+0x50>
    8b0c:	e1a04000 	mov	r4, r0
    8b10:	e590303c 	ldr	r3, [r0, #60]	; 0x3c
    8b14:	e1530002 	cmp	r3, r2
    8b18:	1a000012 	bne	8b68 <data_abort_full_except+0x70>
    8b1c:	e59f3080 	ldr	r3, [pc, #128]	; 8ba4 <data_abort_full_except+0xac>
    8b20:	e5933004 	ldr	r3, [r3, #4]
    8b24:	e3530000 	cmp	r3, #0, 0
    8b28:	0a000016 	beq	8b88 <data_abort_full_except+0x90>
    8b2c:	ebffffa9 	bl	89d8 <fixup_regs>
    8b30:	e59f306c 	ldr	r3, [pc, #108]	; 8ba4 <data_abort_full_except+0xac>
    8b34:	e5933004 	ldr	r3, [r3, #4]
    8b38:	e1a00004 	mov	r0, r4
    8b3c:	e12fff33 	blx	r3
    8b40:	e1a00004 	mov	r0, r4
    8b44:	ebffffaf 	bl	8a08 <switchto>
    8b48:	e59f3058 	ldr	r3, [pc, #88]	; 8ba8 <data_abort_full_except+0xb0>
    8b4c:	e58d3000 	str	r3, [sp]
    8b50:	e3a0303e 	mov	r3, #62, 0	; 0x3e
    8b54:	e59f2050 	ldr	r2, [pc, #80]	; 8bac <data_abort_full_except+0xb4>
    8b58:	e59f1050 	ldr	r1, [pc, #80]	; 8bb0 <data_abort_full_except+0xb8>
    8b5c:	e59f0050 	ldr	r0, [pc, #80]	; 8bb4 <data_abort_full_except+0xbc>
    8b60:	eb000443 	bl	9c74 <printk>
    8b64:	eb000572 	bl	a134 <clean_reboot>
    8b68:	e59f3048 	ldr	r3, [pc, #72]	; 8bb8 <data_abort_full_except+0xc0>
    8b6c:	e58d3000 	str	r3, [sp]
    8b70:	e3a0303f 	mov	r3, #63, 0	; 0x3f
    8b74:	e59f2030 	ldr	r2, [pc, #48]	; 8bac <data_abort_full_except+0xb4>
    8b78:	e59f1030 	ldr	r1, [pc, #48]	; 8bb0 <data_abort_full_except+0xb8>
    8b7c:	e59f0030 	ldr	r0, [pc, #48]	; 8bb4 <data_abort_full_except+0xbc>
    8b80:	eb00043b 	bl	9c74 <printk>
    8b84:	eb00056a 	bl	a134 <clean_reboot>
    8b88:	e58d2000 	str	r2, [sp]
    8b8c:	e3a03042 	mov	r3, #66, 0	; 0x42
    8b90:	e59f2014 	ldr	r2, [pc, #20]	; 8bac <data_abort_full_except+0xb4>
    8b94:	e59f1014 	ldr	r1, [pc, #20]	; 8bb0 <data_abort_full_except+0xb8>
    8b98:	e59f001c 	ldr	r0, [pc, #28]	; 8bbc <data_abort_full_except+0xc4>
    8b9c:	eb000434 	bl	9c74 <printk>
    8ba0:	eb000563 	bl	a134 <clean_reboot>
    8ba4:	0000c91c 	.word	0x0000c91c
    8ba8:	0000b194 	.word	0x0000b194
    8bac:	0000b410 	.word	0x0000b410
    8bb0:	0000b180 	.word	0x0000b180
    8bb4:	0000ac08 	.word	0x0000ac08
    8bb8:	0000b1b0 	.word	0x0000b1b0
    8bbc:	0000b200 	.word	0x0000b200

00008bc0 <syscall_full_except>:
    8bc0:	e52de004 	push	{lr}		; (str lr, [sp, #-4]!)
    8bc4:	e24dd014 	sub	sp, sp, #20, 0
    8bc8:	e5903040 	ldr	r3, [r0, #64]	; 0x40
    8bcc:	e1530001 	cmp	r3, r1
    8bd0:	1a00000c 	bne	8c08 <syscall_full_except+0x48>
    8bd4:	e1a04000 	mov	r4, r0
    8bd8:	e1a05002 	mov	r5, r2
    8bdc:	e590303c 	ldr	r3, [r0, #60]	; 0x3c
    8be0:	e1530002 	cmp	r3, r2
    8be4:	0a00000f 	beq	8c28 <syscall_full_except+0x68>
    8be8:	e59f30d0 	ldr	r3, [pc, #208]	; 8cc0 <syscall_full_except+0x100>
    8bec:	e58d3000 	str	r3, [sp]
    8bf0:	e3a0304d 	mov	r3, #77, 0	; 0x4d
    8bf4:	e59f20c8 	ldr	r2, [pc, #200]	; 8cc4 <syscall_full_except+0x104>
    8bf8:	e59f10c8 	ldr	r1, [pc, #200]	; 8cc8 <syscall_full_except+0x108>
    8bfc:	e59f00c8 	ldr	r0, [pc, #200]	; 8ccc <syscall_full_except+0x10c>
    8c00:	eb00041b 	bl	9c74 <printk>
    8c04:	eb00054a 	bl	a134 <clean_reboot>
    8c08:	e59f30c0 	ldr	r3, [pc, #192]	; 8cd0 <syscall_full_except+0x110>
    8c0c:	e58d3000 	str	r3, [sp]
    8c10:	e3a0304c 	mov	r3, #76, 0	; 0x4c
    8c14:	e59f20a8 	ldr	r2, [pc, #168]	; 8cc4 <syscall_full_except+0x104>
    8c18:	e59f10a8 	ldr	r1, [pc, #168]	; 8cc8 <syscall_full_except+0x108>
    8c1c:	e59f00a8 	ldr	r0, [pc, #168]	; 8ccc <syscall_full_except+0x10c>
    8c20:	eb000413 	bl	9c74 <printk>
    8c24:	eb000542 	bl	a134 <clean_reboot>
    8c28:	e1a00001 	mov	r0, r1
    8c2c:	ebffff4d 	bl	8968 <mode_get>
    8c30:	e3500010 	cmp	r0, #16, 0
    8c34:	1a00000c 	bne	8c6c <syscall_full_except+0xac>
    8c38:	e28d200c 	add	r2, sp, #12, 0
    8c3c:	e59f3090 	ldr	r3, [pc, #144]	; 8cd4 <syscall_full_except+0x114>
    8c40:	e1520003 	cmp	r2, r3
    8c44:	9a00000e 	bls	8c84 <syscall_full_except+0xc4>
    8c48:	e59f3088 	ldr	r3, [pc, #136]	; 8cd8 <syscall_full_except+0x118>
    8c4c:	e5933008 	ldr	r3, [r3, #8]
    8c50:	e3530000 	cmp	r3, #0, 0
    8c54:	0a000012 	beq	8ca4 <syscall_full_except+0xe4>
    8c58:	e1a00004 	mov	r0, r4
    8c5c:	e12fff33 	blx	r3
    8c60:	e5840000 	str	r0, [r4]
    8c64:	e1a00004 	mov	r0, r4
    8c68:	ebffff66 	bl	8a08 <switchto>
    8c6c:	e3a03050 	mov	r3, #80, 0	; 0x50
    8c70:	e59f204c 	ldr	r2, [pc, #76]	; 8cc4 <syscall_full_except+0x104>
    8c74:	e59f104c 	ldr	r1, [pc, #76]	; 8cc8 <syscall_full_except+0x108>
    8c78:	e59f005c 	ldr	r0, [pc, #92]	; 8cdc <syscall_full_except+0x11c>
    8c7c:	eb0003fc 	bl	9c74 <printk>
    8c80:	eb00052b 	bl	a134 <clean_reboot>
    8c84:	e59f3054 	ldr	r3, [pc, #84]	; 8ce0 <syscall_full_except+0x120>
    8c88:	e58d3000 	str	r3, [sp]
    8c8c:	e3a03055 	mov	r3, #85, 0	; 0x55
    8c90:	e59f202c 	ldr	r2, [pc, #44]	; 8cc4 <syscall_full_except+0x104>
    8c94:	e59f102c 	ldr	r1, [pc, #44]	; 8cc8 <syscall_full_except+0x108>
    8c98:	e59f0044 	ldr	r0, [pc, #68]	; 8ce4 <syscall_full_except+0x124>
    8c9c:	eb0003f4 	bl	9c74 <printk>
    8ca0:	eb000523 	bl	a134 <clean_reboot>
    8ca4:	e58d5000 	str	r5, [sp]
    8ca8:	e3a0305a 	mov	r3, #90, 0	; 0x5a
    8cac:	e59f2010 	ldr	r2, [pc, #16]	; 8cc4 <syscall_full_except+0x104>
    8cb0:	e59f1010 	ldr	r1, [pc, #16]	; 8cc8 <syscall_full_except+0x108>
    8cb4:	e59f002c 	ldr	r0, [pc, #44]	; 8ce8 <syscall_full_except+0x128>
    8cb8:	eb0003ed 	bl	9c74 <printk>
    8cbc:	eb00051c 	bl	a134 <clean_reboot>
    8cc0:	0000b1b0 	.word	0x0000b1b0
    8cc4:	0000b428 	.word	0x0000b428
    8cc8:	0000b180 	.word	0x0000b180
    8ccc:	0000ac08 	.word	0x0000ac08
    8cd0:	0000b194 	.word	0x0000b194
    8cd4:	000186a0 	.word	0x000186a0
    8cd8:	0000c91c 	.word	0x0000c91c
    8cdc:	0000b234 	.word	0x0000b234
    8ce0:	0000b2b4 	.word	0x0000b2b4
    8ce4:	0000b270 	.word	0x0000b270
    8ce8:	0000b2cc 	.word	0x0000b2cc

00008cec <full_except_set_prefetch>:
    8cec:	e59f300c 	ldr	r3, [pc, #12]	; 8d00 <full_except_set_prefetch+0x14>
    8cf0:	e5932000 	ldr	r2, [r3]
    8cf4:	e5830000 	str	r0, [r3]
    8cf8:	e1a00002 	mov	r0, r2
    8cfc:	e12fff1e 	bx	lr
    8d00:	0000c91c 	.word	0x0000c91c

00008d04 <full_except_set_data_abort>:
    8d04:	e59f300c 	ldr	r3, [pc, #12]	; 8d18 <full_except_set_data_abort+0x14>
    8d08:	e5932004 	ldr	r2, [r3, #4]
    8d0c:	e5830004 	str	r0, [r3, #4]
    8d10:	e1a00002 	mov	r0, r2
    8d14:	e12fff1e 	bx	lr
    8d18:	0000c91c 	.word	0x0000c91c

00008d1c <full_except_set_syscall>:
    8d1c:	e59f300c 	ldr	r3, [pc, #12]	; 8d30 <full_except_set_syscall+0x14>
    8d20:	e5932008 	ldr	r2, [r3, #8]
    8d24:	e5830008 	str	r0, [r3, #8]
    8d28:	e1a00002 	mov	r0, r2
    8d2c:	e12fff1e 	bx	lr
    8d30:	0000c91c 	.word	0x0000c91c

00008d34 <full_except_install>:
    8d34:	e52de004 	push	{lr}		; (str lr, [sp, #-4]!)
    8d38:	e24dd00c 	sub	sp, sp, #12, 0
    8d3c:	e3500000 	cmp	r0, #0, 0
    8d40:	1a000007 	bne	8d64 <full_except_install+0x30>
    8d44:	ee1c3f10 	mrc	15, 0, r3, cr12, cr0, {0}
    8d48:	e3530000 	cmp	r3, #0, 0
    8d4c:	0a000030 	beq	8e14 <full_except_install+0xe0>
    8d50:	e59f217c 	ldr	r2, [pc, #380]	; 8ed4 <full_except_install+0x1a0>
    8d54:	e1530002 	cmp	r3, r2
    8d58:	1a000056 	bne	8eb8 <full_except_install+0x184>
    8d5c:	e28dd00c 	add	sp, sp, #12, 0
    8d60:	e49df004 	pop	{pc}		; (ldr pc, [sp], #4)
    8d64:	e59f3168 	ldr	r3, [pc, #360]	; 8ed4 <full_except_install+0x1a0>
    8d68:	e313001f 	tst	r3, #31, 0
    8d6c:	1a000017 	bne	8dd0 <full_except_install+0x9c>
    8d70:	e3a03001 	mov	r3, #1, 0
    8d74:	e3530000 	cmp	r3, #0, 0
    8d78:	0a000016 	beq	8dd8 <full_except_install+0xa4>
    8d7c:	ee1c3f10 	mrc	15, 0, r3, cr12, cr0, {0}
    8d80:	e59f214c 	ldr	r2, [pc, #332]	; 8ed4 <full_except_install+0x1a0>
    8d84:	e1530002 	cmp	r3, r2
    8d88:	0afffff3 	beq	8d5c <full_except_install+0x28>
    8d8c:	e3530000 	cmp	r3, #0, 0
    8d90:	1a000018 	bne	8df8 <full_except_install+0xc4>
    8d94:	e59f3138 	ldr	r3, [pc, #312]	; 8ed4 <full_except_install+0x1a0>
    8d98:	ee0c3f10 	mcr	15, 0, r3, cr12, cr0, {0}
    8d9c:	e3a02000 	mov	r2, #0, 0
    8da0:	ee072f95 	mcr	15, 0, r2, cr7, cr5, {4}
    8da4:	ee1c2f10 	mrc	15, 0, r2, cr12, cr0, {0}
    8da8:	e1520003 	cmp	r2, r3
    8dac:	0affffea 	beq	8d5c <full_except_install+0x28>
    8db0:	e58d2004 	str	r2, [sp, #4]
    8db4:	e58d3000 	str	r3, [sp]
    8db8:	e3a03036 	mov	r3, #54, 0	; 0x36
    8dbc:	e59f2114 	ldr	r2, [pc, #276]	; 8ed8 <full_except_install+0x1a4>
    8dc0:	e59f1114 	ldr	r1, [pc, #276]	; 8edc <full_except_install+0x1a8>
    8dc4:	e59f0114 	ldr	r0, [pc, #276]	; 8ee0 <full_except_install+0x1ac>
    8dc8:	eb0003a9 	bl	9c74 <printk>
    8dcc:	eb0004d8 	bl	a134 <clean_reboot>
    8dd0:	e3a03000 	mov	r3, #0, 0
    8dd4:	eaffffe6 	b	8d74 <full_except_install+0x40>
    8dd8:	e59f30f4 	ldr	r3, [pc, #244]	; 8ed4 <full_except_install+0x1a0>
    8ddc:	e58d3000 	str	r3, [sp]
    8de0:	e3a03028 	mov	r3, #40, 0	; 0x28
    8de4:	e59f20ec 	ldr	r2, [pc, #236]	; 8ed8 <full_except_install+0x1a4>
    8de8:	e59f10ec 	ldr	r1, [pc, #236]	; 8edc <full_except_install+0x1a8>
    8dec:	e59f00f0 	ldr	r0, [pc, #240]	; 8ee4 <full_except_install+0x1b0>
    8df0:	eb00039f 	bl	9c74 <printk>
    8df4:	eb0004ce 	bl	a134 <clean_reboot>
    8df8:	e58d3000 	str	r3, [sp]
    8dfc:	e3a03031 	mov	r3, #49, 0	; 0x31
    8e00:	e59f20d0 	ldr	r2, [pc, #208]	; 8ed8 <full_except_install+0x1a4>
    8e04:	e59f10d0 	ldr	r1, [pc, #208]	; 8edc <full_except_install+0x1a8>
    8e08:	e59f00d8 	ldr	r0, [pc, #216]	; 8ee8 <full_except_install+0x1b4>
    8e0c:	eb000398 	bl	9c74 <printk>
    8e10:	eb0004c7 	bl	a134 <clean_reboot>
    8e14:	e59f30b8 	ldr	r3, [pc, #184]	; 8ed4 <full_except_install+0x1a0>
    8e18:	e313001f 	tst	r3, #31, 0
    8e1c:	03a00001 	moveq	r0, #1, 0
    8e20:	e3500000 	cmp	r0, #0, 0
    8e24:	0a000014 	beq	8e7c <full_except_install+0x148>
    8e28:	ee1c3f10 	mrc	15, 0, r3, cr12, cr0, {0}
    8e2c:	e59f20a0 	ldr	r2, [pc, #160]	; 8ed4 <full_except_install+0x1a0>
    8e30:	e1530002 	cmp	r3, r2
    8e34:	0affffc8 	beq	8d5c <full_except_install+0x28>
    8e38:	e3530000 	cmp	r3, #0, 0
    8e3c:	1a000016 	bne	8e9c <full_except_install+0x168>
    8e40:	e59f308c 	ldr	r3, [pc, #140]	; 8ed4 <full_except_install+0x1a0>
    8e44:	ee0c3f10 	mcr	15, 0, r3, cr12, cr0, {0}
    8e48:	e3a02000 	mov	r2, #0, 0
    8e4c:	ee072f95 	mcr	15, 0, r2, cr7, cr5, {4}
    8e50:	ee1c2f10 	mrc	15, 0, r2, cr12, cr0, {0}
    8e54:	e1520003 	cmp	r2, r3
    8e58:	0affffbf 	beq	8d5c <full_except_install+0x28>
    8e5c:	e58d2004 	str	r2, [sp, #4]
    8e60:	e58d3000 	str	r3, [sp]
    8e64:	e3a03036 	mov	r3, #54, 0	; 0x36
    8e68:	e59f2068 	ldr	r2, [pc, #104]	; 8ed8 <full_except_install+0x1a4>
    8e6c:	e59f1068 	ldr	r1, [pc, #104]	; 8edc <full_except_install+0x1a8>
    8e70:	e59f0068 	ldr	r0, [pc, #104]	; 8ee0 <full_except_install+0x1ac>
    8e74:	eb00037e 	bl	9c74 <printk>
    8e78:	eb0004ad 	bl	a134 <clean_reboot>
    8e7c:	e59f3050 	ldr	r3, [pc, #80]	; 8ed4 <full_except_install+0x1a0>
    8e80:	e58d3000 	str	r3, [sp]
    8e84:	e3a03028 	mov	r3, #40, 0	; 0x28
    8e88:	e59f2048 	ldr	r2, [pc, #72]	; 8ed8 <full_except_install+0x1a4>
    8e8c:	e59f1048 	ldr	r1, [pc, #72]	; 8edc <full_except_install+0x1a8>
    8e90:	e59f004c 	ldr	r0, [pc, #76]	; 8ee4 <full_except_install+0x1b0>
    8e94:	eb000376 	bl	9c74 <printk>
    8e98:	eb0004a5 	bl	a134 <clean_reboot>
    8e9c:	e58d3000 	str	r3, [sp]
    8ea0:	e3a03031 	mov	r3, #49, 0	; 0x31
    8ea4:	e59f202c 	ldr	r2, [pc, #44]	; 8ed8 <full_except_install+0x1a4>
    8ea8:	e59f102c 	ldr	r1, [pc, #44]	; 8edc <full_except_install+0x1a8>
    8eac:	e59f0034 	ldr	r0, [pc, #52]	; 8ee8 <full_except_install+0x1b4>
    8eb0:	eb00036f 	bl	9c74 <printk>
    8eb4:	eb00049e 	bl	a134 <clean_reboot>
    8eb8:	e58d3000 	str	r3, [sp]
    8ebc:	e3a03089 	mov	r3, #137, 0	; 0x89
    8ec0:	e59f2024 	ldr	r2, [pc, #36]	; 8eec <full_except_install+0x1b8>
    8ec4:	e59f1024 	ldr	r1, [pc, #36]	; 8ef0 <full_except_install+0x1bc>
    8ec8:	e59f0024 	ldr	r0, [pc, #36]	; 8ef4 <full_except_install+0x1c0>
    8ecc:	eb000368 	bl	9c74 <printk>
    8ed0:	eb000497 	bl	a134 <clean_reboot>
    8ed4:	0000c1a0 	.word	0x0000c1a0
    8ed8:	0000b43c 	.word	0x0000b43c
    8edc:	0000b2fc 	.word	0x0000b2fc
    8ee0:	0000b36c 	.word	0x0000b36c
    8ee4:	0000b30c 	.word	0x0000b30c
    8ee8:	0000b334 	.word	0x0000b334
    8eec:	0000b44c 	.word	0x0000b44c
    8ef0:	0000b180 	.word	0x0000b180
    8ef4:	0000b398 	.word	0x0000b398

00008ef8 <bits_mask>:
    8ef8:	e3500020 	cmp	r0, #32, 0
    8efc:	0a00000f 	beq	8f40 <bits_mask+0x48>
    8f00:	e350001f 	cmp	r0, #31, 0
    8f04:	8a000003 	bhi	8f18 <bits_mask+0x20>
    8f08:	e3a03001 	mov	r3, #1, 0
    8f0c:	e1a00013 	lsl	r0, r3, r0
    8f10:	e2400001 	sub	r0, r0, #1, 0
    8f14:	e12fff1e 	bx	lr
    8f18:	e52de004 	push	{lr}		; (str lr, [sp, #-4]!)
    8f1c:	e24dd00c 	sub	sp, sp, #12, 0
    8f20:	e59f3020 	ldr	r3, [pc, #32]	; 8f48 <bits_mask+0x50>
    8f24:	e58d3000 	str	r3, [sp]
    8f28:	e3a03033 	mov	r3, #51, 0	; 0x33
    8f2c:	e59f2018 	ldr	r2, [pc, #24]	; 8f4c <bits_mask+0x54>
    8f30:	e59f1018 	ldr	r1, [pc, #24]	; 8f50 <bits_mask+0x58>
    8f34:	e59f0018 	ldr	r0, [pc, #24]	; 8f54 <bits_mask+0x5c>
    8f38:	eb00034d 	bl	9c74 <printk>
    8f3c:	eb00047c 	bl	a134 <clean_reboot>
    8f40:	e3e00000 	mvn	r0, #0, 0
    8f44:	e12fff1e 	bx	lr
    8f48:	0000addc 	.word	0x0000addc
    8f4c:	0000b5bc 	.word	0x0000b5bc
    8f50:	0000b0dc 	.word	0x0000b0dc
    8f54:	0000ac08 	.word	0x0000ac08

00008f58 <reboot_callout>:
    8f58:	e92d4010 	push	{r4, lr}
    8f5c:	eb000104 	bl	9374 <staff_mmu_is_enabled>
    8f60:	e3500000 	cmp	r0, #0, 0
    8f64:	08bd8010 	popeq	{r4, pc}
    8f68:	eb0000a4 	bl	9200 <staff_mmu_disable>
    8f6c:	e8bd8010 	pop	{r4, pc}

00008f70 <prefetch_abort_vector>:
    8f70:	e92d4010 	push	{r4, lr}
    8f74:	e24dd008 	sub	sp, sp, #8, 0
    8f78:	ee154f30 	mrc	15, 0, r4, cr5, cr0, {1}
    8f7c:	e3a00004 	mov	r0, #4, 0
    8f80:	ebffffdc 	bl	8ef8 <bits_mask>
    8f84:	e0000004 	and	r0, r0, r4
    8f88:	e2044b01 	and	r4, r4, #1024	; 0x400
    8f8c:	e1840000 	orr	r0, r4, r0
    8f90:	ee163f50 	mrc	15, 0, r3, cr6, cr0, {2}
    8f94:	e3500005 	cmp	r0, #5, 0
    8f98:	0a000008 	beq	8fc0 <prefetch_abort_vector+0x50>
    8f9c:	e350000d 	cmp	r0, #13, 0
    8fa0:	0a00000e 	beq	8fe0 <prefetch_abort_vector+0x70>
    8fa4:	e58d0000 	str	r0, [sp]
    8fa8:	e3a0302a 	mov	r3, #42, 0	; 0x2a
    8fac:	e59f204c 	ldr	r2, [pc, #76]	; 9000 <prefetch_abort_vector+0x90>
    8fb0:	e59f104c 	ldr	r1, [pc, #76]	; 9004 <prefetch_abort_vector+0x94>
    8fb4:	e59f004c 	ldr	r0, [pc, #76]	; 9008 <prefetch_abort_vector+0x98>
    8fb8:	eb00032d 	bl	9c74 <printk>
    8fbc:	eb00045c 	bl	a134 <clean_reboot>
    8fc0:	e58d0004 	str	r0, [sp, #4]
    8fc4:	e58d3000 	str	r3, [sp]
    8fc8:	e3a03025 	mov	r3, #37, 0	; 0x25
    8fcc:	e59f202c 	ldr	r2, [pc, #44]	; 9000 <prefetch_abort_vector+0x90>
    8fd0:	e59f102c 	ldr	r1, [pc, #44]	; 9004 <prefetch_abort_vector+0x94>
    8fd4:	e59f0030 	ldr	r0, [pc, #48]	; 900c <prefetch_abort_vector+0x9c>
    8fd8:	eb000325 	bl	9c74 <printk>
    8fdc:	eb000454 	bl	a134 <clean_reboot>
    8fe0:	e58d0004 	str	r0, [sp, #4]
    8fe4:	e58d3000 	str	r3, [sp]
    8fe8:	e3a03027 	mov	r3, #39, 0	; 0x27
    8fec:	e59f200c 	ldr	r2, [pc, #12]	; 9000 <prefetch_abort_vector+0x90>
    8ff0:	e59f100c 	ldr	r1, [pc, #12]	; 9004 <prefetch_abort_vector+0x94>
    8ff4:	e59f0014 	ldr	r0, [pc, #20]	; 9010 <prefetch_abort_vector+0xa0>
    8ff8:	eb00031d 	bl	9c74 <printk>
    8ffc:	eb00044c 	bl	a134 <clean_reboot>
    9000:	0000b5c8 	.word	0x0000b5c8
    9004:	0000b460 	.word	0x0000b460
    9008:	0000b514 	.word	0x0000b514
    900c:	0000b474 	.word	0x0000b474
    9010:	0000b4c0 	.word	0x0000b4c0

00009014 <data_abort_vector>:
    9014:	e92d4010 	push	{r4, lr}
    9018:	e24dd008 	sub	sp, sp, #8, 0
    901c:	ee154f10 	mrc	15, 0, r4, cr5, cr0, {0}
    9020:	e3a00004 	mov	r0, #4, 0
    9024:	ebffffb3 	bl	8ef8 <bits_mask>
    9028:	e0000004 	and	r0, r0, r4
    902c:	e2044b01 	and	r4, r4, #1024	; 0x400
    9030:	e1840000 	orr	r0, r4, r0
    9034:	ee163f10 	mrc	15, 0, r3, cr6, cr0, {0}
    9038:	e3500005 	cmp	r0, #5, 0
    903c:	0a000008 	beq	9064 <data_abort_vector+0x50>
    9040:	e350000d 	cmp	r0, #13, 0
    9044:	0a00000d 	beq	9080 <data_abort_vector+0x6c>
    9048:	e58d0000 	str	r0, [sp]
    904c:	e3a03042 	mov	r3, #66, 0	; 0x42
    9050:	e59f2044 	ldr	r2, [pc, #68]	; 909c <data_abort_vector+0x88>
    9054:	e59f1044 	ldr	r1, [pc, #68]	; 90a0 <data_abort_vector+0x8c>
    9058:	e59f0044 	ldr	r0, [pc, #68]	; 90a4 <data_abort_vector+0x90>
    905c:	eb000304 	bl	9c74 <printk>
    9060:	eb000433 	bl	a134 <clean_reboot>
    9064:	e58d3000 	str	r3, [sp]
    9068:	e3a0303e 	mov	r3, #62, 0	; 0x3e
    906c:	e59f2028 	ldr	r2, [pc, #40]	; 909c <data_abort_vector+0x88>
    9070:	e59f1028 	ldr	r1, [pc, #40]	; 90a0 <data_abort_vector+0x8c>
    9074:	e59f002c 	ldr	r0, [pc, #44]	; 90a8 <data_abort_vector+0x94>
    9078:	eb0002fd 	bl	9c74 <printk>
    907c:	eb00042c 	bl	a134 <clean_reboot>
    9080:	e58d3000 	str	r3, [sp]
    9084:	e3a03040 	mov	r3, #64, 0	; 0x40
    9088:	e59f200c 	ldr	r2, [pc, #12]	; 909c <data_abort_vector+0x88>
    908c:	e59f100c 	ldr	r1, [pc, #12]	; 90a0 <data_abort_vector+0x8c>
    9090:	e59f0014 	ldr	r0, [pc, #20]	; 90ac <data_abort_vector+0x98>
    9094:	eb0002f6 	bl	9c74 <printk>
    9098:	eb000425 	bl	a134 <clean_reboot>
    909c:	0000b5e0 	.word	0x0000b5e0
    90a0:	0000b460 	.word	0x0000b460
    90a4:	0000b598 	.word	0x0000b598
    90a8:	0000b53c 	.word	0x0000b53c
    90ac:	0000b568 	.word	0x0000b568

000090b0 <_mmu_disable_set>:
    90b0:	e52de004 	push	{lr}		; (str lr, [sp, #-4]!)
    90b4:	e24dd00c 	sub	sp, sp, #12, 0
    90b8:	e3100001 	tst	r0, #1, 0
    90bc:	1a000005 	bne	90d8 <_mmu_disable_set+0x28>
    90c0:	e6ef3070 	uxtb	r3, r0
    90c4:	e3130004 	tst	r3, #4, 0
    90c8:	1a00000a 	bne	90f8 <_mmu_disable_set+0x48>
    90cc:	eb000dcb 	bl	c800 <staff_mmu_disable_set_asm>
    90d0:	e28dd00c 	add	sp, sp, #12, 0
    90d4:	e49df004 	pop	{pc}		; (ldr pc, [sp], #4)
    90d8:	e59f3038 	ldr	r3, [pc, #56]	; 9118 <_mmu_disable_set+0x68>
    90dc:	e58d3000 	str	r3, [sp]
    90e0:	e3a0302f 	mov	r3, #47, 0	; 0x2f
    90e4:	e59f2030 	ldr	r2, [pc, #48]	; 911c <_mmu_disable_set+0x6c>
    90e8:	e59f1030 	ldr	r1, [pc, #48]	; 9120 <_mmu_disable_set+0x70>
    90ec:	e59f0030 	ldr	r0, [pc, #48]	; 9124 <_mmu_disable_set+0x74>
    90f0:	eb0002df 	bl	9c74 <printk>
    90f4:	eb00040e 	bl	a134 <clean_reboot>
    90f8:	e59f3028 	ldr	r3, [pc, #40]	; 9128 <_mmu_disable_set+0x78>
    90fc:	e58d3000 	str	r3, [sp]
    9100:	e3a03030 	mov	r3, #48, 0	; 0x30
    9104:	e59f2010 	ldr	r2, [pc, #16]	; 911c <_mmu_disable_set+0x6c>
    9108:	e59f1010 	ldr	r1, [pc, #16]	; 9120 <_mmu_disable_set+0x70>
    910c:	e59f0010 	ldr	r0, [pc, #16]	; 9124 <_mmu_disable_set+0x74>
    9110:	eb0002d7 	bl	9c74 <printk>
    9114:	eb000406 	bl	a134 <clean_reboot>
    9118:	0000b600 	.word	0x0000b600
    911c:	0000b68c 	.word	0x0000b68c
    9120:	0000b5f4 	.word	0x0000b5f4
    9124:	0000ac08 	.word	0x0000ac08
    9128:	0000b610 	.word	0x0000b610

0000912c <_mmu_enable_set>:
    912c:	e52de004 	push	{lr}		; (str lr, [sp, #-4]!)
    9130:	e24dd00c 	sub	sp, sp, #12, 0
    9134:	e3100001 	tst	r0, #1, 0
    9138:	0a000002 	beq	9148 <_mmu_enable_set+0x1c>
    913c:	eb000d95 	bl	c798 <staff_mmu_enable_set_asm>
    9140:	e28dd00c 	add	sp, sp, #12, 0
    9144:	e49df004 	pop	{pc}		; (ldr pc, [sp], #4)
    9148:	e59f3018 	ldr	r3, [pc, #24]	; 9168 <_mmu_enable_set+0x3c>
    914c:	e58d3000 	str	r3, [sp]
    9150:	e3a0303e 	mov	r3, #62, 0	; 0x3e
    9154:	e59f2010 	ldr	r2, [pc, #16]	; 916c <_mmu_enable_set+0x40>
    9158:	e59f1010 	ldr	r1, [pc, #16]	; 9170 <_mmu_enable_set+0x44>
    915c:	e59f0010 	ldr	r0, [pc, #16]	; 9174 <_mmu_enable_set+0x48>
    9160:	eb0002c3 	bl	9c74 <printk>
    9164:	eb0003f2 	bl	a134 <clean_reboot>
    9168:	0000b624 	.word	0x0000b624
    916c:	0000b6a0 	.word	0x0000b6a0
    9170:	0000b5f4 	.word	0x0000b5f4
    9174:	0000ac08 	.word	0x0000ac08

00009178 <staff_mmu_init>:
    9178:	e52de004 	push	{lr}		; (str lr, [sp, #-4]!)
    917c:	e24dd00c 	sub	sp, sp, #12, 0
    9180:	eb000d6b 	bl	c734 <staff_mmu_reset>
    9184:	eb000cd9 	bl	c4f0 <cp15_ctrl_reg1_rd>
    9188:	e3800502 	orr	r0, r0, #8388608	; 0x800000
    918c:	eb000d45 	bl	c6a8 <cp15_ctrl_reg1_wr>
    9190:	eb000cd6 	bl	c4f0 <cp15_ctrl_reg1_rd>
    9194:	e3100502 	tst	r0, #8388608	; 0x800000
    9198:	0a000003 	beq	91ac <staff_mmu_init+0x34>
    919c:	e3100001 	tst	r0, #1, 0
    91a0:	1a000009 	bne	91cc <staff_mmu_init+0x54>
    91a4:	e28dd00c 	add	sp, sp, #12, 0
    91a8:	e49df004 	pop	{pc}		; (ldr pc, [sp], #4)
    91ac:	e59f3038 	ldr	r3, [pc, #56]	; 91ec <staff_mmu_init+0x74>
    91b0:	e58d3000 	str	r3, [sp]
    91b4:	e3a03029 	mov	r3, #41, 0	; 0x29
    91b8:	e59f2030 	ldr	r2, [pc, #48]	; 91f0 <staff_mmu_init+0x78>
    91bc:	e59f1030 	ldr	r1, [pc, #48]	; 91f4 <staff_mmu_init+0x7c>
    91c0:	e59f0030 	ldr	r0, [pc, #48]	; 91f8 <staff_mmu_init+0x80>
    91c4:	eb0002aa 	bl	9c74 <printk>
    91c8:	eb0003d9 	bl	a134 <clean_reboot>
    91cc:	e59f3028 	ldr	r3, [pc, #40]	; 91fc <staff_mmu_init+0x84>
    91d0:	e58d3000 	str	r3, [sp]
    91d4:	e3a0302a 	mov	r3, #42, 0	; 0x2a
    91d8:	e59f2010 	ldr	r2, [pc, #16]	; 91f0 <staff_mmu_init+0x78>
    91dc:	e59f1010 	ldr	r1, [pc, #16]	; 91f4 <staff_mmu_init+0x7c>
    91e0:	e59f0010 	ldr	r0, [pc, #16]	; 91f8 <staff_mmu_init+0x80>
    91e4:	eb0002a2 	bl	9c74 <printk>
    91e8:	eb0003d1 	bl	a134 <clean_reboot>
    91ec:	0000b634 	.word	0x0000b634
    91f0:	0000b6b0 	.word	0x0000b6b0
    91f4:	0000b5f4 	.word	0x0000b5f4
    91f8:	0000ac08 	.word	0x0000ac08
    91fc:	0000b640 	.word	0x0000b640

00009200 <staff_mmu_disable>:
    9200:	e52de004 	push	{lr}		; (str lr, [sp, #-4]!)
    9204:	e24dd00c 	sub	sp, sp, #12, 0
    9208:	eb000cb8 	bl	c4f0 <cp15_ctrl_reg1_rd>
    920c:	e3100001 	tst	r0, #1, 0
    9210:	0a000003 	beq	9224 <staff_mmu_disable+0x24>
    9214:	e3c00005 	bic	r0, r0, #5, 0
    9218:	ebffffa4 	bl	90b0 <_mmu_disable_set>
    921c:	e28dd00c 	add	sp, sp, #12, 0
    9220:	e49df004 	pop	{pc}		; (ldr pc, [sp], #4)
    9224:	e59f3018 	ldr	r3, [pc, #24]	; 9244 <staff_mmu_disable+0x44>
    9228:	e58d3000 	str	r3, [sp]
    922c:	e3a03036 	mov	r3, #54, 0	; 0x36
    9230:	e59f2010 	ldr	r2, [pc, #16]	; 9248 <staff_mmu_disable+0x48>
    9234:	e59f1010 	ldr	r1, [pc, #16]	; 924c <staff_mmu_disable+0x4c>
    9238:	e59f0010 	ldr	r0, [pc, #16]	; 9250 <staff_mmu_disable+0x50>
    923c:	eb00028c 	bl	9c74 <printk>
    9240:	eb0003bb 	bl	a134 <clean_reboot>
    9244:	0000b624 	.word	0x0000b624
    9248:	0000b6c0 	.word	0x0000b6c0
    924c:	0000b5f4 	.word	0x0000b5f4
    9250:	0000ac08 	.word	0x0000ac08

00009254 <staff_mmu_enable>:
    9254:	e52de004 	push	{lr}		; (str lr, [sp, #-4]!)
    9258:	e24dd00c 	sub	sp, sp, #12, 0
    925c:	eb000ca3 	bl	c4f0 <cp15_ctrl_reg1_rd>
    9260:	e3100001 	tst	r0, #1, 0
    9264:	1a000003 	bne	9278 <staff_mmu_enable+0x24>
    9268:	e3800001 	orr	r0, r0, #1, 0
    926c:	ebffffae 	bl	912c <_mmu_enable_set>
    9270:	e28dd00c 	add	sp, sp, #12, 0
    9274:	e49df004 	pop	{pc}		; (ldr pc, [sp], #4)
    9278:	e59f3018 	ldr	r3, [pc, #24]	; 9298 <staff_mmu_enable+0x44>
    927c:	e58d3000 	str	r3, [sp]
    9280:	e3a03043 	mov	r3, #67, 0	; 0x43
    9284:	e59f2010 	ldr	r2, [pc, #16]	; 929c <staff_mmu_enable+0x48>
    9288:	e59f1010 	ldr	r1, [pc, #16]	; 92a0 <staff_mmu_enable+0x4c>
    928c:	e59f0010 	ldr	r0, [pc, #16]	; 92a4 <staff_mmu_enable+0x50>
    9290:	eb000277 	bl	9c74 <printk>
    9294:	eb0003a6 	bl	a134 <clean_reboot>
    9298:	0000b600 	.word	0x0000b600
    929c:	0000b6d4 	.word	0x0000b6d4
    92a0:	0000b5f4 	.word	0x0000b5f4
    92a4:	0000ac08 	.word	0x0000ac08

000092a8 <staff_domain_access_ctrl_get>:
    92a8:	ee130f10 	mrc	15, 0, r0, cr3, cr0, {0}
    92ac:	e12fff1e 	bx	lr

000092b0 <staff_domain_access_ctrl_set>:
    92b0:	e92d4010 	push	{r4, lr}
    92b4:	eb000d69 	bl	c860 <staff_cp15_domain_ctrl_wr>
    92b8:	e8bd8010 	pop	{r4, pc}

000092bc <staff_set_procid_ttbr0>:
    92bc:	e52de004 	push	{lr}		; (str lr, [sp, #-4]!)
    92c0:	e24dd00c 	sub	sp, sp, #12, 0
    92c4:	e1a03001 	mov	r3, r1
    92c8:	e1a01002 	mov	r1, r2
    92cc:	e1b02c20 	lsrs	r2, r0, #24
    92d0:	1a000009 	bne	92fc <staff_set_procid_ttbr0+0x40>
    92d4:	e2402001 	sub	r2, r0, #1, 0
    92d8:	e352003f 	cmp	r2, #63, 0	; 0x3f
    92dc:	9a00000e 	bls	931c <staff_set_procid_ttbr0+0x60>
    92e0:	e2432001 	sub	r2, r3, #1, 0
    92e4:	e352003e 	cmp	r2, #62, 0	; 0x3e
    92e8:	8a000013 	bhi	933c <staff_set_procid_ttbr0+0x80>
    92ec:	e1830400 	orr	r0, r3, r0, lsl #8
    92f0:	eb000d03 	bl	c704 <staff_cp15_set_procid_ttbr0>
    92f4:	e28dd00c 	add	sp, sp, #12, 0
    92f8:	e49df004 	pop	{pc}		; (ldr pc, [sp], #4)
    92fc:	e59f3058 	ldr	r3, [pc, #88]	; 935c <staff_set_procid_ttbr0+0xa0>
    9300:	e58d3000 	str	r3, [sp]
    9304:	e3a03054 	mov	r3, #84, 0	; 0x54
    9308:	e59f2050 	ldr	r2, [pc, #80]	; 9360 <staff_set_procid_ttbr0+0xa4>
    930c:	e59f1050 	ldr	r1, [pc, #80]	; 9364 <staff_set_procid_ttbr0+0xa8>
    9310:	e59f0050 	ldr	r0, [pc, #80]	; 9368 <staff_set_procid_ttbr0+0xac>
    9314:	eb000256 	bl	9c74 <printk>
    9318:	eb000385 	bl	a134 <clean_reboot>
    931c:	e59f3048 	ldr	r3, [pc, #72]	; 936c <staff_set_procid_ttbr0+0xb0>
    9320:	e58d3000 	str	r3, [sp]
    9324:	e3a03055 	mov	r3, #85, 0	; 0x55
    9328:	e59f2030 	ldr	r2, [pc, #48]	; 9360 <staff_set_procid_ttbr0+0xa4>
    932c:	e59f1030 	ldr	r1, [pc, #48]	; 9364 <staff_set_procid_ttbr0+0xa8>
    9330:	e59f0030 	ldr	r0, [pc, #48]	; 9368 <staff_set_procid_ttbr0+0xac>
    9334:	eb00024e 	bl	9c74 <printk>
    9338:	eb00037d 	bl	a134 <clean_reboot>
    933c:	e59f302c 	ldr	r3, [pc, #44]	; 9370 <staff_set_procid_ttbr0+0xb4>
    9340:	e58d3000 	str	r3, [sp]
    9344:	e3a03056 	mov	r3, #86, 0	; 0x56
    9348:	e59f2010 	ldr	r2, [pc, #16]	; 9360 <staff_set_procid_ttbr0+0xa4>
    934c:	e59f1010 	ldr	r1, [pc, #16]	; 9364 <staff_set_procid_ttbr0+0xa8>
    9350:	e59f0010 	ldr	r0, [pc, #16]	; 9368 <staff_set_procid_ttbr0+0xac>
    9354:	eb000246 	bl	9c74 <printk>
    9358:	eb000375 	bl	a134 <clean_reboot>
    935c:	0000b650 	.word	0x0000b650
    9360:	0000b6e8 	.word	0x0000b6e8
    9364:	0000b5f4 	.word	0x0000b5f4
    9368:	0000ac08 	.word	0x0000ac08
    936c:	0000b664 	.word	0x0000b664
    9370:	0000b678 	.word	0x0000b678

00009374 <staff_mmu_is_enabled>:
    9374:	e92d4010 	push	{r4, lr}
    9378:	eb000c5c 	bl	c4f0 <cp15_ctrl_reg1_rd>
    937c:	e2000001 	and	r0, r0, #1, 0
    9380:	e8bd8010 	pop	{r4, pc}

00009384 <bits_get>:
    9384:	e52de004 	push	{lr}		; (str lr, [sp, #-4]!)
    9388:	e24dd00c 	sub	sp, sp, #12, 0
    938c:	e1510002 	cmp	r1, r2
    9390:	8a00000e 	bhi	93d0 <bits_get+0x4c>
    9394:	e352001f 	cmp	r2, #31, 0
    9398:	8a000014 	bhi	93f0 <bits_get+0x6c>
    939c:	e1a00130 	lsr	r0, r0, r1
    93a0:	e0422001 	sub	r2, r2, r1
    93a4:	e2821001 	add	r1, r2, #1, 0
    93a8:	e352001f 	cmp	r2, #31, 0
    93ac:	0a00001f 	beq	9430 <bits_get+0xac>
    93b0:	e351001f 	cmp	r1, #31, 0
    93b4:	8a000015 	bhi	9410 <bits_get+0x8c>
    93b8:	e3a03001 	mov	r3, #1, 0
    93bc:	e1a03113 	lsl	r3, r3, r1
    93c0:	e2433001 	sub	r3, r3, #1, 0
    93c4:	e0000003 	and	r0, r0, r3
    93c8:	e28dd00c 	add	sp, sp, #12, 0
    93cc:	e49df004 	pop	{pc}		; (ldr pc, [sp], #4)
    93d0:	e59f3060 	ldr	r3, [pc, #96]	; 9438 <bits_get+0xb4>
    93d4:	e58d3000 	str	r3, [sp]
    93d8:	e3a0303a 	mov	r3, #58, 0	; 0x3a
    93dc:	e59f2058 	ldr	r2, [pc, #88]	; 943c <bits_get+0xb8>
    93e0:	e59f1058 	ldr	r1, [pc, #88]	; 9440 <bits_get+0xbc>
    93e4:	e59f0058 	ldr	r0, [pc, #88]	; 9444 <bits_get+0xc0>
    93e8:	eb000221 	bl	9c74 <printk>
    93ec:	eb000350 	bl	a134 <clean_reboot>
    93f0:	e59f3050 	ldr	r3, [pc, #80]	; 9448 <bits_get+0xc4>
    93f4:	e58d3000 	str	r3, [sp]
    93f8:	e3a0303b 	mov	r3, #59, 0	; 0x3b
    93fc:	e59f2038 	ldr	r2, [pc, #56]	; 943c <bits_get+0xb8>
    9400:	e59f1038 	ldr	r1, [pc, #56]	; 9440 <bits_get+0xbc>
    9404:	e59f0038 	ldr	r0, [pc, #56]	; 9444 <bits_get+0xc0>
    9408:	eb000219 	bl	9c74 <printk>
    940c:	eb000348 	bl	a134 <clean_reboot>
    9410:	e59f3034 	ldr	r3, [pc, #52]	; 944c <bits_get+0xc8>
    9414:	e58d3000 	str	r3, [sp]
    9418:	e3a03033 	mov	r3, #51, 0	; 0x33
    941c:	e59f202c 	ldr	r2, [pc, #44]	; 9450 <bits_get+0xcc>
    9420:	e59f1018 	ldr	r1, [pc, #24]	; 9440 <bits_get+0xbc>
    9424:	e59f0018 	ldr	r0, [pc, #24]	; 9444 <bits_get+0xc0>
    9428:	eb000211 	bl	9c74 <printk>
    942c:	eb000340 	bl	a134 <clean_reboot>
    9430:	e3e03000 	mvn	r3, #0, 0
    9434:	eaffffe2 	b	93c4 <bits_get+0x40>
    9438:	0000adc8 	.word	0x0000adc8
    943c:	0000b938 	.word	0x0000b938
    9440:	0000b0dc 	.word	0x0000b0dc
    9444:	0000ac08 	.word	0x0000ac08
    9448:	0000add4 	.word	0x0000add4
    944c:	0000addc 	.word	0x0000addc
    9450:	0000b944 	.word	0x0000b944

00009454 <lockdown_index_set_raw>:
    9454:	eeaf0f54 	mcr	15, 5, r0, cr15, cr4, {2}
    9458:	e12fff1e 	bx	lr

0000945c <staff_lockdown_index_set>:
    945c:	e92d4010 	push	{r4, lr}
    9460:	ebfffffb 	bl	9454 <lockdown_index_set_raw>
    9464:	e3a03000 	mov	r3, #0, 0
    9468:	ee073f95 	mcr	15, 0, r3, cr7, cr5, {4}
    946c:	e8bd8010 	pop	{r4, pc}

00009470 <staff_lockdown_index_get>:
    9470:	eebf0f54 	mrc	15, 5, r0, cr15, cr4, {2}
    9474:	e12fff1e 	bx	lr

00009478 <lockdown_va_set_raw>:
    9478:	eeaf0f55 	mcr	15, 5, r0, cr15, cr5, {2}
    947c:	e12fff1e 	bx	lr

00009480 <staff_lockdown_va_set>:
    9480:	e92d4010 	push	{r4, lr}
    9484:	ebfffffb 	bl	9478 <lockdown_va_set_raw>
    9488:	e3a03000 	mov	r3, #0, 0
    948c:	ee073f95 	mcr	15, 0, r3, cr7, cr5, {4}
    9490:	e8bd8010 	pop	{r4, pc}

00009494 <staff_lockdown_va_get>:
    9494:	eebf0f55 	mrc	15, 5, r0, cr15, cr5, {2}
    9498:	e12fff1e 	bx	lr

0000949c <lockdown_pa_set_raw>:
    949c:	eeaf0f56 	mcr	15, 5, r0, cr15, cr6, {2}
    94a0:	e12fff1e 	bx	lr

000094a4 <staff_lockdown_pa_set>:
    94a4:	e92d4010 	push	{r4, lr}
    94a8:	ebfffffb 	bl	949c <lockdown_pa_set_raw>
    94ac:	e3a03000 	mov	r3, #0, 0
    94b0:	ee073f95 	mcr	15, 0, r3, cr7, cr5, {4}
    94b4:	e8bd8010 	pop	{r4, pc}

000094b8 <staff_lockdown_pa_get>:
    94b8:	eebf0f56 	mrc	15, 5, r0, cr15, cr6, {2}
    94bc:	e12fff1e 	bx	lr

000094c0 <lockdown_attr_set_raw>:
    94c0:	eeaf0f57 	mcr	15, 5, r0, cr15, cr7, {2}
    94c4:	e12fff1e 	bx	lr

000094c8 <staff_lockdown_attr_set>:
    94c8:	e92d4010 	push	{r4, lr}
    94cc:	ebfffffb 	bl	94c0 <lockdown_attr_set_raw>
    94d0:	e3a03000 	mov	r3, #0, 0
    94d4:	ee073f95 	mcr	15, 0, r3, cr7, cr5, {4}
    94d8:	e8bd8010 	pop	{r4, pc}

000094dc <staff_lockdown_attr_get>:
    94dc:	eebf0f57 	mrc	15, 5, r0, cr15, cr7, {2}
    94e0:	e12fff1e 	bx	lr

000094e4 <staff_xlate_pa_get>:
    94e4:	ee170f14 	mrc	15, 0, r0, cr7, cr4, {0}
    94e8:	e12fff1e 	bx	lr

000094ec <xlate_kern_rd_set_raw>:
    94ec:	ee070f18 	mcr	15, 0, r0, cr7, cr8, {0}
    94f0:	e12fff1e 	bx	lr

000094f4 <staff_xlate_kern_rd_set>:
    94f4:	e92d4010 	push	{r4, lr}
    94f8:	ebfffffb 	bl	94ec <xlate_kern_rd_set_raw>
    94fc:	e3a03000 	mov	r3, #0, 0
    9500:	ee073f95 	mcr	15, 0, r3, cr7, cr5, {4}
    9504:	e8bd8010 	pop	{r4, pc}

00009508 <xlate_kern_wr_set_raw>:
    9508:	ee070f38 	mcr	15, 0, r0, cr7, cr8, {1}
    950c:	e12fff1e 	bx	lr

00009510 <staff_xlate_kern_wr_set>:
    9510:	e92d4010 	push	{r4, lr}
    9514:	ebfffffb 	bl	9508 <xlate_kern_wr_set_raw>
    9518:	e3a03000 	mov	r3, #0, 0
    951c:	ee073f95 	mcr	15, 0, r3, cr7, cr5, {4}
    9520:	e8bd8010 	pop	{r4, pc}

00009524 <lockdown_print_entry>:
    9524:	e92d4ff0 	push	{r4, r5, r6, r7, r8, r9, sl, fp, lr}
    9528:	e24dd01c 	sub	sp, sp, #28, 0
    952c:	e1a06000 	mov	r6, r0
    9530:	e59f1190 	ldr	r1, [pc, #400]	; 96c8 <lockdown_print_entry+0x1a4>
    9534:	e59f0190 	ldr	r0, [pc, #400]	; 96cc <lockdown_print_entry+0x1a8>
    9538:	eb0001cd 	bl	9c74 <printk>
    953c:	e1a01006 	mov	r1, r6
    9540:	e59f0188 	ldr	r0, [pc, #392]	; 96d0 <lockdown_print_entry+0x1ac>
    9544:	eb0001ca 	bl	9c74 <printk>
    9548:	e1a00006 	mov	r0, r6
    954c:	ebffffc2 	bl	945c <staff_lockdown_index_set>
    9550:	ebffffcf 	bl	9494 <staff_lockdown_va_get>
    9554:	e1a05000 	mov	r5, r0
    9558:	ebffffd6 	bl	94b8 <staff_lockdown_pa_get>
    955c:	e210b001 	ands	fp, r0, #1, 0
    9560:	0a000042 	beq	9670 <lockdown_print_entry+0x14c>
    9564:	e1a04000 	mov	r4, r0
    9568:	e1a064a5 	lsr	r6, r5, #9
    956c:	e2066001 	and	r6, r6, #1, 0
    9570:	e6ef8075 	uxtb	r8, r5
    9574:	e1a07625 	lsr	r7, r5, #12
    9578:	e59fa148 	ldr	sl, [pc, #328]	; 96c8 <lockdown_print_entry+0x1a4>
    957c:	e59f9148 	ldr	r9, [pc, #328]	; 96cc <lockdown_print_entry+0x1a8>
    9580:	e1a0100a 	mov	r1, sl
    9584:	e1a00009 	mov	r0, r9
    9588:	eb0001b9 	bl	9c74 <printk>
    958c:	e58d8000 	str	r8, [sp]
    9590:	e1a03006 	mov	r3, r6
    9594:	e1a02007 	mov	r2, r7
    9598:	e1a01005 	mov	r1, r5
    959c:	e59f0130 	ldr	r0, [pc, #304]	; 96d4 <lockdown_print_entry+0x1b0>
    95a0:	eb0001b3 	bl	9c74 <printk>
    95a4:	e1a03624 	lsr	r3, r4, #12
    95a8:	e58d3014 	str	r3, [sp, #20]
    95ac:	e1a054a4 	lsr	r5, r4, #9
    95b0:	e2055001 	and	r5, r5, #1, 0
    95b4:	e1a06424 	lsr	r6, r4, #8
    95b8:	e2066001 	and	r6, r6, #1, 0
    95bc:	e1a07324 	lsr	r7, r4, #6
    95c0:	e2077003 	and	r7, r7, #3, 0
    95c4:	e1a080a4 	lsr	r8, r4, #1
    95c8:	e2088007 	and	r8, r8, #7, 0
    95cc:	e1a0100a 	mov	r1, sl
    95d0:	e1a00009 	mov	r0, r9
    95d4:	eb0001a6 	bl	9c74 <printk>
    95d8:	e58db00c 	str	fp, [sp, #12]
    95dc:	e58d8008 	str	r8, [sp, #8]
    95e0:	e58d7004 	str	r7, [sp, #4]
    95e4:	e58d6000 	str	r6, [sp]
    95e8:	e1a03005 	mov	r3, r5
    95ec:	e59d2014 	ldr	r2, [sp, #20]
    95f0:	e1a01004 	mov	r1, r4
    95f4:	e59f00dc 	ldr	r0, [pc, #220]	; 96d8 <lockdown_print_entry+0x1b4>
    95f8:	eb00019d 	bl	9c74 <printk>
    95fc:	ebffffb6 	bl	94dc <staff_lockdown_attr_get>
    9600:	e1a04000 	mov	r4, r0
    9604:	e1b03d20 	lsrs	r3, r0, #26
    9608:	1a00001f 	bne	968c <lockdown_print_entry+0x168>
    960c:	e1b03d20 	lsrs	r3, r0, #26
    9610:	1a000024 	bne	96a8 <lockdown_print_entry+0x184>
    9614:	e1a053a0 	lsr	r5, r0, #7
    9618:	e205500f 	and	r5, r5, #15, 0
    961c:	e1a06320 	lsr	r6, r0, #6
    9620:	e2066001 	and	r6, r6, #1, 0
    9624:	e1a071a0 	lsr	r7, r0, #3
    9628:	e2077007 	and	r7, r7, #7, 0
    962c:	e1a08120 	lsr	r8, r0, #2
    9630:	e2088001 	and	r8, r8, #1, 0
    9634:	e1a090a0 	lsr	r9, r0, #1
    9638:	e2099001 	and	r9, r9, #1, 0
    963c:	e59f1084 	ldr	r1, [pc, #132]	; 96c8 <lockdown_print_entry+0x1a4>
    9640:	e59f0084 	ldr	r0, [pc, #132]	; 96cc <lockdown_print_entry+0x1a8>
    9644:	eb00018a 	bl	9c74 <printk>
    9648:	e58d9008 	str	r9, [sp, #8]
    964c:	e58d8004 	str	r8, [sp, #4]
    9650:	e58d7000 	str	r7, [sp]
    9654:	e1a03006 	mov	r3, r6
    9658:	e1a02005 	mov	r2, r5
    965c:	e1a01004 	mov	r1, r4
    9660:	e59f0074 	ldr	r0, [pc, #116]	; 96dc <lockdown_print_entry+0x1b8>
    9664:	eb000182 	bl	9c74 <printk>
    9668:	e28dd01c 	add	sp, sp, #28, 0
    966c:	e8bd8ff0 	pop	{r4, r5, r6, r7, r8, r9, sl, fp, pc}
    9670:	e59f1050 	ldr	r1, [pc, #80]	; 96c8 <lockdown_print_entry+0x1a4>
    9674:	e59f0050 	ldr	r0, [pc, #80]	; 96cc <lockdown_print_entry+0x1a8>
    9678:	eb00017d 	bl	9c74 <printk>
    967c:	e1a01006 	mov	r1, r6
    9680:	e59f0058 	ldr	r0, [pc, #88]	; 96e0 <lockdown_print_entry+0x1bc>
    9684:	eb00017a 	bl	9c74 <printk>
    9688:	eafffff6 	b	9668 <lockdown_print_entry+0x144>
    968c:	e58d3000 	str	r3, [sp]
    9690:	e3a0305f 	mov	r3, #95, 0	; 0x5f
    9694:	e1a0200a 	mov	r2, sl
    9698:	e59f1044 	ldr	r1, [pc, #68]	; 96e4 <lockdown_print_entry+0x1c0>
    969c:	e59f0044 	ldr	r0, [pc, #68]	; 96e8 <lockdown_print_entry+0x1c4>
    96a0:	eb000173 	bl	9c74 <printk>
    96a4:	eb0002a2 	bl	a134 <clean_reboot>
    96a8:	e59f303c 	ldr	r3, [pc, #60]	; 96ec <lockdown_print_entry+0x1c8>
    96ac:	e58d3000 	str	r3, [sp]
    96b0:	e3a03060 	mov	r3, #96, 0	; 0x60
    96b4:	e59f200c 	ldr	r2, [pc, #12]	; 96c8 <lockdown_print_entry+0x1a4>
    96b8:	e59f1024 	ldr	r1, [pc, #36]	; 96e4 <lockdown_print_entry+0x1c0>
    96bc:	e59f002c 	ldr	r0, [pc, #44]	; 96f0 <lockdown_print_entry+0x1cc>
    96c0:	eb00016b 	bl	9c74 <printk>
    96c4:	eb00029a 	bl	a134 <clean_reboot>
    96c8:	0000b950 	.word	0x0000b950
    96cc:	0000ac4c 	.word	0x0000ac4c
    96d0:	0000b700 	.word	0x0000b700
    96d4:	0000b728 	.word	0x0000b728
    96d8:	0000b74c 	.word	0x0000b74c
    96dc:	0000b7d4 	.word	0x0000b7d4
    96e0:	0000b70c 	.word	0x0000b70c
    96e4:	0000b788 	.word	0x0000b788
    96e8:	0000b79c 	.word	0x0000b79c
    96ec:	0000b7b8 	.word	0x0000b7b8
    96f0:	0000ac08 	.word	0x0000ac08

000096f4 <lockdown_print_entries>:
    96f4:	e92d4070 	push	{r4, r5, r6, lr}
    96f8:	e1a04000 	mov	r4, r0
    96fc:	e59f6060 	ldr	r6, [pc, #96]	; 9764 <lockdown_print_entries+0x70>
    9700:	e59f5060 	ldr	r5, [pc, #96]	; 9768 <lockdown_print_entries+0x74>
    9704:	e1a01006 	mov	r1, r6
    9708:	e1a00005 	mov	r0, r5
    970c:	eb000158 	bl	9c74 <printk>
    9710:	e1a01004 	mov	r1, r4
    9714:	e59f0050 	ldr	r0, [pc, #80]	; 976c <lockdown_print_entries+0x78>
    9718:	eb000155 	bl	9c74 <printk>
    971c:	e1a01006 	mov	r1, r6
    9720:	e1a00005 	mov	r0, r5
    9724:	eb000152 	bl	9c74 <printk>
    9728:	e59f0040 	ldr	r0, [pc, #64]	; 9770 <lockdown_print_entries+0x7c>
    972c:	eb000150 	bl	9c74 <printk>
    9730:	e3a04000 	mov	r4, #0, 0
    9734:	ea000002 	b	9744 <lockdown_print_entries+0x50>
    9738:	e1a00004 	mov	r0, r4
    973c:	ebffff78 	bl	9524 <lockdown_print_entry>
    9740:	e2844001 	add	r4, r4, #1, 0
    9744:	e3540007 	cmp	r4, #7, 0
    9748:	dafffffa 	ble	9738 <lockdown_print_entries+0x44>
    974c:	e59f1010 	ldr	r1, [pc, #16]	; 9764 <lockdown_print_entries+0x70>
    9750:	e59f0010 	ldr	r0, [pc, #16]	; 9768 <lockdown_print_entries+0x74>
    9754:	eb000146 	bl	9c74 <printk>
    9758:	e59f0014 	ldr	r0, [pc, #20]	; 9774 <lockdown_print_entries+0x80>
    975c:	eb000144 	bl	9c74 <printk>
    9760:	e8bd8070 	pop	{r4, r5, r6, pc}
    9764:	0000b968 	.word	0x0000b968
    9768:	0000ac4c 	.word	0x0000ac4c
    976c:	0000b804 	.word	0x0000b804
    9770:	0000b818 	.word	0x0000b818
    9774:	0000b838 	.word	0x0000b838

00009778 <staff_tlb_contains_va>:
    9778:	e92d4030 	push	{r4, r5, lr}
    977c:	e24dd00c 	sub	sp, sp, #12, 0
    9780:	e3110007 	tst	r1, #7, 0
    9784:	1a00000a 	bne	97b4 <staff_tlb_contains_va+0x3c>
    9788:	e1a05000 	mov	r5, r0
    978c:	e1a04001 	mov	r4, r1
    9790:	e1a00001 	mov	r0, r1
    9794:	ebffff56 	bl	94f4 <staff_xlate_kern_rd_set>
    9798:	ebffff51 	bl	94e4 <staff_xlate_pa_get>
    979c:	e5850000 	str	r0, [r5]
    97a0:	e3100001 	tst	r0, #1, 0
    97a4:	0a00000a 	beq	97d4 <staff_tlb_contains_va+0x5c>
    97a8:	e3a00000 	mov	r0, #0, 0
    97ac:	e28dd00c 	add	sp, sp, #12, 0
    97b0:	e8bd8030 	pop	{r4, r5, pc}
    97b4:	e59f3038 	ldr	r3, [pc, #56]	; 97f4 <staff_tlb_contains_va+0x7c>
    97b8:	e58d3000 	str	r3, [sp]
    97bc:	e3a03079 	mov	r3, #121, 0	; 0x79
    97c0:	e59f2030 	ldr	r2, [pc, #48]	; 97f8 <staff_tlb_contains_va+0x80>
    97c4:	e59f1030 	ldr	r1, [pc, #48]	; 97fc <staff_tlb_contains_va+0x84>
    97c8:	e59f0030 	ldr	r0, [pc, #48]	; 9800 <staff_tlb_contains_va+0x88>
    97cc:	eb000128 	bl	9c74 <printk>
    97d0:	eb000257 	bl	a134 <clean_reboot>
    97d4:	e3c01fff 	bic	r1, r0, #1020	; 0x3fc
    97d8:	e3c11003 	bic	r1, r1, #3, 0
    97dc:	e3c444ff 	bic	r4, r4, #-16777216	; 0xff000000
    97e0:	e3c4460f 	bic	r4, r4, #15728640	; 0xf00000
    97e4:	e1844001 	orr	r4, r4, r1
    97e8:	e5854000 	str	r4, [r5]
    97ec:	e3a00001 	mov	r0, #1, 0
    97f0:	eaffffed 	b	97ac <staff_tlb_contains_va+0x34>
    97f4:	0000ae00 	.word	0x0000ae00
    97f8:	0000b980 	.word	0x0000b980
    97fc:	0000b788 	.word	0x0000b788
    9800:	0000ac08 	.word	0x0000ac08

00009804 <staff_pin_mmu_sec>:
    9804:	e24dd008 	sub	sp, sp, #8, 0
    9808:	e92d4070 	push	{r4, r5, r6, lr}
    980c:	e24dd008 	sub	sp, sp, #8, 0
    9810:	e58d301c 	str	r3, [sp, #28]
    9814:	e3500007 	cmp	r0, #7, 0
    9818:	8a000028 	bhi	98c0 <staff_pin_mmu_sec+0xbc>
    981c:	e3c134ff 	bic	r3, r1, #-16777216	; 0xff000000
    9820:	e3c3360f 	bic	r3, r3, #15728640	; 0xf00000
    9824:	e3530000 	cmp	r3, #0, 0
    9828:	1a00002c 	bne	98e0 <staff_pin_mmu_sec+0xdc>
    982c:	e3c234ff 	bic	r3, r2, #-16777216	; 0xff000000
    9830:	e3c3360f 	bic	r3, r3, #15728640	; 0xf00000
    9834:	e3530000 	cmp	r3, #0, 0
    9838:	1a000030 	bne	9900 <staff_pin_mmu_sec+0xfc>
    983c:	e59d501c 	ldr	r5, [sp, #28]
    9840:	e1811485 	orr	r1, r1, r5, lsl #9
    9844:	e59d5020 	ldr	r5, [sp, #32]
    9848:	e1815005 	orr	r5, r1, r5
    984c:	e59d4028 	ldr	r4, [sp, #40]	; 0x28
    9850:	e1824304 	orr	r4, r2, r4, lsl #6
    9854:	e5dd202c 	ldrb	r2, [sp, #44]	; 0x2c
    9858:	e1844082 	orr	r4, r4, r2, lsl #1
    985c:	e3844001 	orr	r4, r4, #1, 0
    9860:	e5dd602d 	ldrb	r6, [sp, #45]	; 0x2d
    9864:	e1a06086 	lsl	r6, r6, #1
    9868:	e59d3024 	ldr	r3, [sp, #36]	; 0x24
    986c:	e1866383 	orr	r6, r6, r3, lsl #7
    9870:	ebfffef9 	bl	945c <staff_lockdown_index_set>
    9874:	e1a00005 	mov	r0, r5
    9878:	ebffff00 	bl	9480 <staff_lockdown_va_set>
    987c:	e1a00004 	mov	r0, r4
    9880:	ebffff07 	bl	94a4 <staff_lockdown_pa_set>
    9884:	e1a00006 	mov	r0, r6
    9888:	ebffff0e 	bl	94c8 <staff_lockdown_attr_set>
    988c:	ebffff00 	bl	9494 <staff_lockdown_va_get>
    9890:	e1550000 	cmp	r5, r0
    9894:	1a000021 	bne	9920 <staff_pin_mmu_sec+0x11c>
    9898:	ebffff06 	bl	94b8 <staff_lockdown_pa_get>
    989c:	e1540000 	cmp	r4, r0
    98a0:	1a000026 	bne	9940 <staff_pin_mmu_sec+0x13c>
    98a4:	ebffff0c 	bl	94dc <staff_lockdown_attr_get>
    98a8:	e1560000 	cmp	r6, r0
    98ac:	1a00002b 	bne	9960 <staff_pin_mmu_sec+0x15c>
    98b0:	e28dd008 	add	sp, sp, #8, 0
    98b4:	e8bd4070 	pop	{r4, r5, r6, lr}
    98b8:	e28dd008 	add	sp, sp, #8, 0
    98bc:	e12fff1e 	bx	lr
    98c0:	e59f30b8 	ldr	r3, [pc, #184]	; 9980 <staff_pin_mmu_sec+0x17c>
    98c4:	e58d3000 	str	r3, [sp]
    98c8:	e3a03094 	mov	r3, #148, 0	; 0x94
    98cc:	e59f20b0 	ldr	r2, [pc, #176]	; 9984 <staff_pin_mmu_sec+0x180>
    98d0:	e59f10b0 	ldr	r1, [pc, #176]	; 9988 <staff_pin_mmu_sec+0x184>
    98d4:	e59f00b0 	ldr	r0, [pc, #176]	; 998c <staff_pin_mmu_sec+0x188>
    98d8:	eb0000e5 	bl	9c74 <printk>
    98dc:	eb000214 	bl	a134 <clean_reboot>
    98e0:	e59f30a8 	ldr	r3, [pc, #168]	; 9990 <staff_pin_mmu_sec+0x18c>
    98e4:	e58d3000 	str	r3, [sp]
    98e8:	e3a03096 	mov	r3, #150, 0	; 0x96
    98ec:	e59f2090 	ldr	r2, [pc, #144]	; 9984 <staff_pin_mmu_sec+0x180>
    98f0:	e59f1090 	ldr	r1, [pc, #144]	; 9988 <staff_pin_mmu_sec+0x184>
    98f4:	e59f0098 	ldr	r0, [pc, #152]	; 9994 <staff_pin_mmu_sec+0x190>
    98f8:	eb0000dd 	bl	9c74 <printk>
    98fc:	eb00020c 	bl	a134 <clean_reboot>
    9900:	e59f3090 	ldr	r3, [pc, #144]	; 9998 <staff_pin_mmu_sec+0x194>
    9904:	e58d3000 	str	r3, [sp]
    9908:	e3a03097 	mov	r3, #151, 0	; 0x97
    990c:	e59f2070 	ldr	r2, [pc, #112]	; 9984 <staff_pin_mmu_sec+0x180>
    9910:	e59f1070 	ldr	r1, [pc, #112]	; 9988 <staff_pin_mmu_sec+0x184>
    9914:	e59f0078 	ldr	r0, [pc, #120]	; 9994 <staff_pin_mmu_sec+0x190>
    9918:	eb0000d5 	bl	9c74 <printk>
    991c:	eb000204 	bl	a134 <clean_reboot>
    9920:	e58d0004 	str	r0, [sp, #4]
    9924:	e58d5000 	str	r5, [sp]
    9928:	e3a030b1 	mov	r3, #177, 0	; 0xb1
    992c:	e59f2050 	ldr	r2, [pc, #80]	; 9984 <staff_pin_mmu_sec+0x180>
    9930:	e59f1050 	ldr	r1, [pc, #80]	; 9988 <staff_pin_mmu_sec+0x184>
    9934:	e59f0060 	ldr	r0, [pc, #96]	; 999c <staff_pin_mmu_sec+0x198>
    9938:	eb0000cd 	bl	9c74 <printk>
    993c:	eb0001fc 	bl	a134 <clean_reboot>
    9940:	e58d0004 	str	r0, [sp, #4]
    9944:	e58d4000 	str	r4, [sp]
    9948:	e3a030b3 	mov	r3, #179, 0	; 0xb3
    994c:	e59f2030 	ldr	r2, [pc, #48]	; 9984 <staff_pin_mmu_sec+0x180>
    9950:	e59f1030 	ldr	r1, [pc, #48]	; 9988 <staff_pin_mmu_sec+0x184>
    9954:	e59f0044 	ldr	r0, [pc, #68]	; 99a0 <staff_pin_mmu_sec+0x19c>
    9958:	eb0000c5 	bl	9c74 <printk>
    995c:	eb0001f4 	bl	a134 <clean_reboot>
    9960:	e58d0004 	str	r0, [sp, #4]
    9964:	e58d6000 	str	r6, [sp]
    9968:	e3a030b5 	mov	r3, #181, 0	; 0xb5
    996c:	e59f2010 	ldr	r2, [pc, #16]	; 9984 <staff_pin_mmu_sec+0x180>
    9970:	e59f1010 	ldr	r1, [pc, #16]	; 9988 <staff_pin_mmu_sec+0x184>
    9974:	e59f0028 	ldr	r0, [pc, #40]	; 99a4 <staff_pin_mmu_sec+0x1a0>
    9978:	eb0000bd 	bl	9c74 <printk>
    997c:	eb0001ec 	bl	a134 <clean_reboot>
    9980:	0000ae5c 	.word	0x0000ae5c
    9984:	0000b998 	.word	0x0000b998
    9988:	0000b788 	.word	0x0000b788
    998c:	0000ae18 	.word	0x0000ae18
    9990:	0000aeac 	.word	0x0000aeac
    9994:	0000b864 	.word	0x0000b864
    9998:	0000aec8 	.word	0x0000aec8
    999c:	0000af48 	.word	0x0000af48
    99a0:	0000af7c 	.word	0x0000af7c
    99a4:	0000afb0 	.word	0x0000afb0

000099a8 <staff_pin_clear>:
    99a8:	e52de004 	push	{lr}		; (str lr, [sp, #-4]!)
    99ac:	e24dd00c 	sub	sp, sp, #12, 0
    99b0:	e3500007 	cmp	r0, #7, 0
    99b4:	8a000011 	bhi	9a00 <staff_pin_clear+0x58>
    99b8:	ebfffea7 	bl	945c <staff_lockdown_index_set>
    99bc:	e3a00000 	mov	r0, #0, 0
    99c0:	ebfffeae 	bl	9480 <staff_lockdown_va_set>
    99c4:	e3a00000 	mov	r0, #0, 0
    99c8:	ebfffeb5 	bl	94a4 <staff_lockdown_pa_set>
    99cc:	e3a00000 	mov	r0, #0, 0
    99d0:	ebfffebc 	bl	94c8 <staff_lockdown_attr_set>
    99d4:	ebfffeae 	bl	9494 <staff_lockdown_va_get>
    99d8:	e3500000 	cmp	r0, #0, 0
    99dc:	1a00000f 	bne	9a20 <staff_pin_clear+0x78>
    99e0:	ebfffeb4 	bl	94b8 <staff_lockdown_pa_get>
    99e4:	e3500000 	cmp	r0, #0, 0
    99e8:	1a000015 	bne	9a44 <staff_pin_clear+0x9c>
    99ec:	ebfffeba 	bl	94dc <staff_lockdown_attr_get>
    99f0:	e3500000 	cmp	r0, #0, 0
    99f4:	1a00001b 	bne	9a68 <staff_pin_clear+0xc0>
    99f8:	e28dd00c 	add	sp, sp, #12, 0
    99fc:	e49df004 	pop	{pc}		; (ldr pc, [sp], #4)
    9a00:	e59f3084 	ldr	r3, [pc, #132]	; 9a8c <staff_pin_clear+0xe4>
    9a04:	e58d3000 	str	r3, [sp]
    9a08:	e3a030b9 	mov	r3, #185, 0	; 0xb9
    9a0c:	e59f207c 	ldr	r2, [pc, #124]	; 9a90 <staff_pin_clear+0xe8>
    9a10:	e59f107c 	ldr	r1, [pc, #124]	; 9a94 <staff_pin_clear+0xec>
    9a14:	e59f007c 	ldr	r0, [pc, #124]	; 9a98 <staff_pin_clear+0xf0>
    9a18:	eb000095 	bl	9c74 <printk>
    9a1c:	eb0001c4 	bl	a134 <clean_reboot>
    9a20:	e58d0004 	str	r0, [sp, #4]
    9a24:	e3a03000 	mov	r3, #0, 0
    9a28:	e58d3000 	str	r3, [sp]
    9a2c:	e3a030c2 	mov	r3, #194, 0	; 0xc2
    9a30:	e59f2058 	ldr	r2, [pc, #88]	; 9a90 <staff_pin_clear+0xe8>
    9a34:	e59f1058 	ldr	r1, [pc, #88]	; 9a94 <staff_pin_clear+0xec>
    9a38:	e59f005c 	ldr	r0, [pc, #92]	; 9a9c <staff_pin_clear+0xf4>
    9a3c:	eb00008c 	bl	9c74 <printk>
    9a40:	eb0001bb 	bl	a134 <clean_reboot>
    9a44:	e58d0004 	str	r0, [sp, #4]
    9a48:	e3a03000 	mov	r3, #0, 0
    9a4c:	e58d3000 	str	r3, [sp]
    9a50:	e3a030c4 	mov	r3, #196, 0	; 0xc4
    9a54:	e59f2034 	ldr	r2, [pc, #52]	; 9a90 <staff_pin_clear+0xe8>
    9a58:	e59f1034 	ldr	r1, [pc, #52]	; 9a94 <staff_pin_clear+0xec>
    9a5c:	e59f003c 	ldr	r0, [pc, #60]	; 9aa0 <staff_pin_clear+0xf8>
    9a60:	eb000083 	bl	9c74 <printk>
    9a64:	eb0001b2 	bl	a134 <clean_reboot>
    9a68:	e58d0004 	str	r0, [sp, #4]
    9a6c:	e3a03000 	mov	r3, #0, 0
    9a70:	e58d3000 	str	r3, [sp]
    9a74:	e3a030c6 	mov	r3, #198, 0	; 0xc6
    9a78:	e59f2010 	ldr	r2, [pc, #16]	; 9a90 <staff_pin_clear+0xe8>
    9a7c:	e59f1010 	ldr	r1, [pc, #16]	; 9a94 <staff_pin_clear+0xec>
    9a80:	e59f001c 	ldr	r0, [pc, #28]	; 9aa4 <staff_pin_clear+0xfc>
    9a84:	eb00007a 	bl	9c74 <printk>
    9a88:	eb0001a9 	bl	a134 <clean_reboot>
    9a8c:	0000b8b4 	.word	0x0000b8b4
    9a90:	0000b9ac 	.word	0x0000b9ac
    9a94:	0000b788 	.word	0x0000b788
    9a98:	0000ac08 	.word	0x0000ac08
    9a9c:	0000af48 	.word	0x0000af48
    9aa0:	0000af7c 	.word	0x0000af7c
    9aa4:	0000afb0 	.word	0x0000afb0

00009aa8 <staff_pin_check_exists>:
    9aa8:	e92d4030 	push	{r4, r5, lr}
    9aac:	e24dd01c 	sub	sp, sp, #28, 0
    9ab0:	e1a04000 	mov	r4, r0
    9ab4:	ebfffe2e 	bl	9374 <staff_mmu_is_enabled>
    9ab8:	e3500000 	cmp	r0, #0, 0
    9abc:	0a000006 	beq	9adc <staff_pin_check_exists+0x34>
    9ac0:	e1a01004 	mov	r1, r4
    9ac4:	e28d0014 	add	r0, sp, #20, 0
    9ac8:	ebffff2a 	bl	9778 <staff_tlb_contains_va>
    9acc:	e3500000 	cmp	r0, #0, 0
    9ad0:	0a000007 	beq	9af4 <staff_pin_check_exists+0x4c>
    9ad4:	e28dd01c 	add	sp, sp, #28, 0
    9ad8:	e8bd8030 	pop	{r4, r5, pc}
    9adc:	e3a030ce 	mov	r3, #206, 0	; 0xce
    9ae0:	e59f2044 	ldr	r2, [pc, #68]	; 9b2c <staff_pin_check_exists+0x84>
    9ae4:	e59f1044 	ldr	r1, [pc, #68]	; 9b30 <staff_pin_check_exists+0x88>
    9ae8:	e59f0044 	ldr	r0, [pc, #68]	; 9b34 <staff_pin_check_exists+0x8c>
    9aec:	eb000060 	bl	9c74 <printk>
    9af0:	eb00018f 	bl	a134 <clean_reboot>
    9af4:	e59d5014 	ldr	r5, [sp, #20]
    9af8:	e3a02006 	mov	r2, #6, 0
    9afc:	e3a01001 	mov	r1, #1, 0
    9b00:	e1a00005 	mov	r0, r5
    9b04:	ebfffe1e 	bl	9384 <bits_get>
    9b08:	e58d0008 	str	r0, [sp, #8]
    9b0c:	e58d5004 	str	r5, [sp, #4]
    9b10:	e58d4000 	str	r4, [sp]
    9b14:	e3a030da 	mov	r3, #218, 0	; 0xda
    9b18:	e59f200c 	ldr	r2, [pc, #12]	; 9b2c <staff_pin_check_exists+0x84>
    9b1c:	e59f100c 	ldr	r1, [pc, #12]	; 9b30 <staff_pin_check_exists+0x88>
    9b20:	e59f0010 	ldr	r0, [pc, #16]	; 9b38 <staff_pin_check_exists+0x90>
    9b24:	eb000052 	bl	9c74 <printk>
    9b28:	eb000181 	bl	a134 <clean_reboot>
    9b2c:	0000b9bc 	.word	0x0000b9bc
    9b30:	0000b788 	.word	0x0000b788
    9b34:	0000b8bc 	.word	0x0000b8bc
    9b38:	0000b03c 	.word	0x0000b03c

00009b3c <staff_pin_mmu_init>:
    9b3c:	e92d4010 	push	{r4, lr}
    9b40:	e24dd008 	sub	sp, sp, #8, 0
    9b44:	e1a04000 	mov	r4, r0
    9b48:	e3a01901 	mov	r1, #16384	; 0x4000
    9b4c:	e1a00001 	mov	r0, r1
    9b50:	eb00032e 	bl	a810 <kmalloc_aligned>
    9b54:	e59f3044 	ldr	r3, [pc, #68]	; 9ba0 <staff_pin_mmu_init+0x64>
    9b58:	e5830000 	str	r0, [r3]
    9b5c:	e1a03900 	lsl	r3, r0, #18
    9b60:	e1a03923 	lsr	r3, r3, #18
    9b64:	e3530000 	cmp	r3, #0, 0
    9b68:	1a000004 	bne	9b80 <staff_pin_mmu_init+0x44>
    9b6c:	ebfffd81 	bl	9178 <staff_mmu_init>
    9b70:	e1a00004 	mov	r0, r4
    9b74:	ebfffdcd 	bl	92b0 <staff_domain_access_ctrl_set>
    9b78:	e28dd008 	add	sp, sp, #8, 0
    9b7c:	e8bd8010 	pop	{r4, pc}
    9b80:	e59f301c 	ldr	r3, [pc, #28]	; 9ba4 <staff_pin_mmu_init+0x68>
    9b84:	e58d3000 	str	r3, [sp]
    9b88:	e59f3018 	ldr	r3, [pc, #24]	; 9ba8 <staff_pin_mmu_init+0x6c>
    9b8c:	e59f2018 	ldr	r2, [pc, #24]	; 9bac <staff_pin_mmu_init+0x70>
    9b90:	e59f1018 	ldr	r1, [pc, #24]	; 9bb0 <staff_pin_mmu_init+0x74>
    9b94:	e59f0018 	ldr	r0, [pc, #24]	; 9bb4 <staff_pin_mmu_init+0x78>
    9b98:	eb000035 	bl	9c74 <printk>
    9b9c:	eb000164 	bl	a134 <clean_reboot>
    9ba0:	0000c928 	.word	0x0000c928
    9ba4:	0000b8fc 	.word	0x0000b8fc
    9ba8:	0000010f 	.word	0x0000010f
    9bac:	0000b9d4 	.word	0x0000b9d4
    9bb0:	0000b788 	.word	0x0000b788
    9bb4:	0000ac08 	.word	0x0000ac08

00009bb8 <staff_pin_mmu_switch>:
    9bb8:	e52de004 	push	{lr}		; (str lr, [sp, #-4]!)
    9bbc:	e24dd00c 	sub	sp, sp, #12, 0
    9bc0:	e59f3084 	ldr	r3, [pc, #132]	; 9c4c <staff_pin_mmu_switch+0x94>
    9bc4:	e5932000 	ldr	r2, [r3]
    9bc8:	e3520000 	cmp	r2, #0, 0
    9bcc:	0a000006 	beq	9bec <staff_pin_mmu_switch+0x34>
    9bd0:	e3510000 	cmp	r1, #0, 0
    9bd4:	0a00000c 	beq	9c0c <staff_pin_mmu_switch+0x54>
    9bd8:	e351003f 	cmp	r1, #63, 0	; 0x3f
    9bdc:	8a000012 	bhi	9c2c <staff_pin_mmu_switch+0x74>
    9be0:	ebfffdb5 	bl	92bc <staff_set_procid_ttbr0>
    9be4:	e28dd00c 	add	sp, sp, #12, 0
    9be8:	e49df004 	pop	{pc}		; (ldr pc, [sp], #4)
    9bec:	e59f305c 	ldr	r3, [pc, #92]	; 9c50 <staff_pin_mmu_switch+0x98>
    9bf0:	e58d3000 	str	r3, [sp]
    9bf4:	e59f3058 	ldr	r3, [pc, #88]	; 9c54 <staff_pin_mmu_switch+0x9c>
    9bf8:	e59f2058 	ldr	r2, [pc, #88]	; 9c58 <staff_pin_mmu_switch+0xa0>
    9bfc:	e59f1058 	ldr	r1, [pc, #88]	; 9c5c <staff_pin_mmu_switch+0xa4>
    9c00:	e59f0058 	ldr	r0, [pc, #88]	; 9c60 <staff_pin_mmu_switch+0xa8>
    9c04:	eb00001a 	bl	9c74 <printk>
    9c08:	eb000149 	bl	a134 <clean_reboot>
    9c0c:	e59f3050 	ldr	r3, [pc, #80]	; 9c64 <staff_pin_mmu_switch+0xac>
    9c10:	e58d3000 	str	r3, [sp]
    9c14:	e3a03018 	mov	r3, #24, 0
    9c18:	e59f2048 	ldr	r2, [pc, #72]	; 9c68 <staff_pin_mmu_switch+0xb0>
    9c1c:	e59f1048 	ldr	r1, [pc, #72]	; 9c6c <staff_pin_mmu_switch+0xb4>
    9c20:	e59f0038 	ldr	r0, [pc, #56]	; 9c60 <staff_pin_mmu_switch+0xa8>
    9c24:	eb000012 	bl	9c74 <printk>
    9c28:	eb000141 	bl	a134 <clean_reboot>
    9c2c:	e59f303c 	ldr	r3, [pc, #60]	; 9c70 <staff_pin_mmu_switch+0xb8>
    9c30:	e58d3000 	str	r3, [sp]
    9c34:	e3a03019 	mov	r3, #25, 0
    9c38:	e59f2028 	ldr	r2, [pc, #40]	; 9c68 <staff_pin_mmu_switch+0xb0>
    9c3c:	e59f1028 	ldr	r1, [pc, #40]	; 9c6c <staff_pin_mmu_switch+0xb4>
    9c40:	e59f0018 	ldr	r0, [pc, #24]	; 9c60 <staff_pin_mmu_switch+0xa8>
    9c44:	eb00000a 	bl	9c74 <printk>
    9c48:	eb000139 	bl	a134 <clean_reboot>
    9c4c:	0000c928 	.word	0x0000c928
    9c50:	0000b07c 	.word	0x0000b07c
    9c54:	00000129 	.word	0x00000129
    9c58:	0000b9e8 	.word	0x0000b9e8
    9c5c:	0000b788 	.word	0x0000b788
    9c60:	0000ac08 	.word	0x0000ac08
    9c64:	0000b928 	.word	0x0000b928
    9c68:	0000ba00 	.word	0x0000ba00
    9c6c:	0000b920 	.word	0x0000b920
    9c70:	0000b930 	.word	0x0000b930

00009c74 <printk>:
    9c74:	e92d000f 	push	{r0, r1, r2, r3}
    9c78:	e52de004 	push	{lr}		; (str lr, [sp, #-4]!)
    9c7c:	e24dd00c 	sub	sp, sp, #12, 0
    9c80:	e28d1014 	add	r1, sp, #20, 0
    9c84:	e58d1004 	str	r1, [sp, #4]
    9c88:	e59d0010 	ldr	r0, [sp, #16]
    9c8c:	eb000047 	bl	9db0 <vprintk>
    9c90:	e28dd00c 	add	sp, sp, #12, 0
    9c94:	e49de004 	pop	{lr}		; (ldr lr, [sp], #4)
    9c98:	e28dd010 	add	sp, sp, #16, 0
    9c9c:	e12fff1e 	bx	lr

00009ca0 <emit_val>:
    9ca0:	e92d4010 	push	{r4, lr}
    9ca4:	e24dd030 	sub	sp, sp, #48, 0	; 0x30
    9ca8:	e350000a 	cmp	r0, #10, 0
    9cac:	0a000014 	beq	9d04 <emit_val+0x64>
    9cb0:	e3500010 	cmp	r0, #16, 0
    9cb4:	0a000022 	beq	9d44 <emit_val+0xa4>
    9cb8:	e3500002 	cmp	r0, #2, 0
    9cbc:	0a000006 	beq	9cdc <emit_val+0x3c>
    9cc0:	e58d0000 	str	r0, [sp]
    9cc4:	e3a0301b 	mov	r3, #27, 0
    9cc8:	e59f20c0 	ldr	r2, [pc, #192]	; 9d90 <emit_val+0xf0>
    9ccc:	e59f10c0 	ldr	r1, [pc, #192]	; 9d94 <emit_val+0xf4>
    9cd0:	e59f00c0 	ldr	r0, [pc, #192]	; 9d98 <emit_val+0xf8>
    9cd4:	ebffffe6 	bl	9c74 <printk>
    9cd8:	eb000115 	bl	a134 <clean_reboot>
    9cdc:	e28d400c 	add	r4, sp, #12, 0
    9ce0:	e2012001 	and	r2, r1, #1, 0
    9ce4:	e59f00b0 	ldr	r0, [pc, #176]	; 9d9c <emit_val+0xfc>
    9ce8:	e7d02002 	ldrb	r2, [r0, r2]
    9cec:	e5c42000 	strb	r2, [r4]
    9cf0:	e2844001 	add	r4, r4, #1, 0
    9cf4:	e3510001 	cmp	r1, #1, 0
    9cf8:	e1a010a1 	lsr	r1, r1, #1
    9cfc:	8afffff7 	bhi	9ce0 <emit_val+0x40>
    9d00:	ea00001d 	b	9d7c <emit_val+0xdc>
    9d04:	e28d400c 	add	r4, sp, #12, 0
    9d08:	e59f3090 	ldr	r3, [pc, #144]	; 9da0 <emit_val+0x100>
    9d0c:	e0832193 	umull	r2, r3, r3, r1
    9d10:	e1a031a3 	lsr	r3, r3, #3
    9d14:	e1a00003 	mov	r0, r3
    9d18:	e0833103 	add	r3, r3, r3, lsl #2
    9d1c:	e0413083 	sub	r3, r1, r3, lsl #1
    9d20:	e59fc07c 	ldr	ip, [pc, #124]	; 9da4 <emit_val+0x104>
    9d24:	e7dcc003 	ldrb	ip, [ip, r3]
    9d28:	e5c4c000 	strb	ip, [r4]
    9d2c:	e2844001 	add	r4, r4, #1, 0
    9d30:	e1a03001 	mov	r3, r1
    9d34:	e1a01000 	mov	r1, r0
    9d38:	e3530009 	cmp	r3, #9, 0
    9d3c:	8afffff1 	bhi	9d08 <emit_val+0x68>
    9d40:	ea00000d 	b	9d7c <emit_val+0xdc>
    9d44:	e28d400c 	add	r4, sp, #12, 0
    9d48:	e201200f 	and	r2, r1, #15, 0
    9d4c:	e59f0054 	ldr	r0, [pc, #84]	; 9da8 <emit_val+0x108>
    9d50:	e7d02002 	ldrb	r2, [r0, r2]
    9d54:	e5c42000 	strb	r2, [r4]
    9d58:	e2844001 	add	r4, r4, #1, 0
    9d5c:	e351000f 	cmp	r1, #15, 0
    9d60:	e1a01221 	lsr	r1, r1, #4
    9d64:	8afffff7 	bhi	9d48 <emit_val+0xa8>
    9d68:	ea000003 	b	9d7c <emit_val+0xdc>
    9d6c:	e59f3038 	ldr	r3, [pc, #56]	; 9dac <emit_val+0x10c>
    9d70:	e5933000 	ldr	r3, [r3]
    9d74:	e5740001 	ldrb	r0, [r4, #-1]!
    9d78:	e12fff33 	blx	r3
    9d7c:	e28d300c 	add	r3, sp, #12, 0
    9d80:	e1540003 	cmp	r4, r3
    9d84:	8afffff8 	bhi	9d6c <emit_val+0xcc>
    9d88:	e28dd030 	add	sp, sp, #48, 0	; 0x30
    9d8c:	e8bd8010 	pop	{r4, pc}
    9d90:	0000bacc 	.word	0x0000bacc
    9d94:	0000ba14 	.word	0x0000ba14
    9d98:	0000ba24 	.word	0x0000ba24
    9d9c:	0000ba48 	.word	0x0000ba48
    9da0:	cccccccd 	.word	0xcccccccd
    9da4:	0000ba4c 	.word	0x0000ba4c
    9da8:	0000ba58 	.word	0x0000ba58
    9dac:	0000c90c 	.word	0x0000c90c

00009db0 <vprintk>:
    9db0:	e92d4030 	push	{r4, r5, lr}
    9db4:	e24dd014 	sub	sp, sp, #20, 0
    9db8:	e1a04000 	mov	r4, r0
    9dbc:	e58d100c 	str	r1, [sp, #12]
    9dc0:	ea000003 	b	9dd4 <vprintk+0x24>
    9dc4:	e59f3288 	ldr	r3, [pc, #648]	; a054 <vprintk+0x2a4>
    9dc8:	e5933000 	ldr	r3, [r3]
    9dcc:	e12fff33 	blx	r3
    9dd0:	e2844001 	add	r4, r4, #1, 0
    9dd4:	e5d40000 	ldrb	r0, [r4]
    9dd8:	e3500000 	cmp	r0, #0, 0
    9ddc:	0a00009a 	beq	a04c <vprintk+0x29c>
    9de0:	e3500025 	cmp	r0, #37, 0	; 0x25
    9de4:	1afffff6 	bne	9dc4 <vprintk+0x14>
    9de8:	e2845001 	add	r5, r4, #1, 0
    9dec:	e5d42001 	ldrb	r2, [r4, #1]
    9df0:	e2423062 	sub	r3, r2, #98, 0	; 0x62
    9df4:	e3530016 	cmp	r3, #22, 0
    9df8:	979ff103 	ldrls	pc, [pc, r3, lsl #2]
    9dfc:	ea00008b 	b	a030 <vprintk+0x280>
    9e00:	00009e5c 	.word	0x00009e5c
    9e04:	00009e9c 	.word	0x00009e9c
    9e08:	00009fb4 	.word	0x00009fb4
    9e0c:	0000a030 	.word	0x0000a030
    9e10:	0000a030 	.word	0x0000a030
    9e14:	0000a030 	.word	0x0000a030
    9e18:	0000a030 	.word	0x0000a030
    9e1c:	0000a030 	.word	0x0000a030
    9e20:	0000a030 	.word	0x0000a030
    9e24:	0000a030 	.word	0x0000a030
    9e28:	00009ec0 	.word	0x00009ec0
    9e2c:	0000a030 	.word	0x0000a030
    9e30:	0000a030 	.word	0x0000a030
    9e34:	0000a030 	.word	0x0000a030
    9e38:	00009f78 	.word	0x00009f78
    9e3c:	0000a030 	.word	0x0000a030
    9e40:	0000a030 	.word	0x0000a030
    9e44:	00009ff8 	.word	0x00009ff8
    9e48:	0000a030 	.word	0x0000a030
    9e4c:	00009e7c 	.word	0x00009e7c
    9e50:	0000a030 	.word	0x0000a030
    9e54:	0000a030 	.word	0x0000a030
    9e58:	00009f78 	.word	0x00009f78
    9e5c:	e59d300c 	ldr	r3, [sp, #12]
    9e60:	e2832004 	add	r2, r3, #4, 0
    9e64:	e58d200c 	str	r2, [sp, #12]
    9e68:	e5931000 	ldr	r1, [r3]
    9e6c:	e3a00002 	mov	r0, #2, 0
    9e70:	ebffff8a 	bl	9ca0 <emit_val>
    9e74:	e1a04005 	mov	r4, r5
    9e78:	eaffffd4 	b	9dd0 <vprintk+0x20>
    9e7c:	e59d300c 	ldr	r3, [sp, #12]
    9e80:	e2832004 	add	r2, r3, #4, 0
    9e84:	e58d200c 	str	r2, [sp, #12]
    9e88:	e5931000 	ldr	r1, [r3]
    9e8c:	e3a0000a 	mov	r0, #10, 0
    9e90:	ebffff82 	bl	9ca0 <emit_val>
    9e94:	e1a04005 	mov	r4, r5
    9e98:	eaffffcc 	b	9dd0 <vprintk+0x20>
    9e9c:	e59f31b0 	ldr	r3, [pc, #432]	; a054 <vprintk+0x2a4>
    9ea0:	e5932000 	ldr	r2, [r3]
    9ea4:	e59d300c 	ldr	r3, [sp, #12]
    9ea8:	e2831004 	add	r1, r3, #4, 0
    9eac:	e58d100c 	str	r1, [sp, #12]
    9eb0:	e5930000 	ldr	r0, [r3]
    9eb4:	e12fff32 	blx	r2
    9eb8:	e1a04005 	mov	r4, r5
    9ebc:	eaffffc3 	b	9dd0 <vprintk+0x20>
    9ec0:	e2842002 	add	r2, r4, #2, 0
    9ec4:	e5d43002 	ldrb	r3, [r4, #2]
    9ec8:	e353006c 	cmp	r3, #108, 0	; 0x6c
    9ecc:	1a000018 	bne	9f34 <vprintk+0x184>
    9ed0:	e2845003 	add	r5, r4, #3, 0
    9ed4:	e5d43003 	ldrb	r3, [r4, #3]
    9ed8:	e3530078 	cmp	r3, #120, 0	; 0x78
    9edc:	1a00001b 	bne	9f50 <vprintk+0x1a0>
    9ee0:	e59f416c 	ldr	r4, [pc, #364]	; a054 <vprintk+0x2a4>
    9ee4:	e5943000 	ldr	r3, [r4]
    9ee8:	e3a00030 	mov	r0, #48, 0	; 0x30
    9eec:	e12fff33 	blx	r3
    9ef0:	e5943000 	ldr	r3, [r4]
    9ef4:	e3a00078 	mov	r0, #120, 0	; 0x78
    9ef8:	e12fff33 	blx	r3
    9efc:	e59d300c 	ldr	r3, [sp, #12]
    9f00:	e2833007 	add	r3, r3, #7, 0
    9f04:	e3c33007 	bic	r3, r3, #7, 0
    9f08:	e2832008 	add	r2, r3, #8, 0
    9f0c:	e58d200c 	str	r2, [sp, #12]
    9f10:	e5934000 	ldr	r4, [r3]
    9f14:	e5931004 	ldr	r1, [r3, #4]
    9f18:	e3510000 	cmp	r1, #0, 0
    9f1c:	1a000012 	bne	9f6c <vprintk+0x1bc>
    9f20:	e1a01004 	mov	r1, r4
    9f24:	e3a00010 	mov	r0, #16, 0
    9f28:	ebffff5c 	bl	9ca0 <emit_val>
    9f2c:	e1a04005 	mov	r4, r5
    9f30:	eaffffa6 	b	9dd0 <vprintk+0x20>
    9f34:	e58d2000 	str	r2, [sp]
    9f38:	e3a0303b 	mov	r3, #59, 0	; 0x3b
    9f3c:	e59f2114 	ldr	r2, [pc, #276]	; a058 <vprintk+0x2a8>
    9f40:	e59f1114 	ldr	r1, [pc, #276]	; a05c <vprintk+0x2ac>
    9f44:	e59f0114 	ldr	r0, [pc, #276]	; a060 <vprintk+0x2b0>
    9f48:	ebffff49 	bl	9c74 <printk>
    9f4c:	eb000078 	bl	a134 <clean_reboot>
    9f50:	e58d5000 	str	r5, [sp]
    9f54:	e3a0303e 	mov	r3, #62, 0	; 0x3e
    9f58:	e59f20f8 	ldr	r2, [pc, #248]	; a058 <vprintk+0x2a8>
    9f5c:	e59f10f8 	ldr	r1, [pc, #248]	; a05c <vprintk+0x2ac>
    9f60:	e59f00f8 	ldr	r0, [pc, #248]	; a060 <vprintk+0x2b0>
    9f64:	ebffff42 	bl	9c74 <printk>
    9f68:	eb000071 	bl	a134 <clean_reboot>
    9f6c:	e3a00010 	mov	r0, #16, 0
    9f70:	ebffff4a 	bl	9ca0 <emit_val>
    9f74:	eaffffe9 	b	9f20 <vprintk+0x170>
    9f78:	e59f40d4 	ldr	r4, [pc, #212]	; a054 <vprintk+0x2a4>
    9f7c:	e5943000 	ldr	r3, [r4]
    9f80:	e3a00030 	mov	r0, #48, 0	; 0x30
    9f84:	e12fff33 	blx	r3
    9f88:	e5943000 	ldr	r3, [r4]
    9f8c:	e3a00078 	mov	r0, #120, 0	; 0x78
    9f90:	e12fff33 	blx	r3
    9f94:	e59d300c 	ldr	r3, [sp, #12]
    9f98:	e2832004 	add	r2, r3, #4, 0
    9f9c:	e58d200c 	str	r2, [sp, #12]
    9fa0:	e5931000 	ldr	r1, [r3]
    9fa4:	e3a00010 	mov	r0, #16, 0
    9fa8:	ebffff3c 	bl	9ca0 <emit_val>
    9fac:	e1a04005 	mov	r4, r5
    9fb0:	eaffff86 	b	9dd0 <vprintk+0x20>
    9fb4:	e59d300c 	ldr	r3, [sp, #12]
    9fb8:	e2832004 	add	r2, r3, #4, 0
    9fbc:	e58d200c 	str	r2, [sp, #12]
    9fc0:	e5934000 	ldr	r4, [r3]
    9fc4:	e3540000 	cmp	r4, #0, 0
    9fc8:	ba000004 	blt	9fe0 <vprintk+0x230>
    9fcc:	e1a01004 	mov	r1, r4
    9fd0:	e3a0000a 	mov	r0, #10, 0
    9fd4:	ebffff31 	bl	9ca0 <emit_val>
    9fd8:	e1a04005 	mov	r4, r5
    9fdc:	eaffff7b 	b	9dd0 <vprintk+0x20>
    9fe0:	e59f306c 	ldr	r3, [pc, #108]	; a054 <vprintk+0x2a4>
    9fe4:	e5933000 	ldr	r3, [r3]
    9fe8:	e3a0002d 	mov	r0, #45, 0	; 0x2d
    9fec:	e12fff33 	blx	r3
    9ff0:	e2644000 	rsb	r4, r4, #0, 0
    9ff4:	eafffff4 	b	9fcc <vprintk+0x21c>
    9ff8:	e59d300c 	ldr	r3, [sp, #12]
    9ffc:	e2832004 	add	r2, r3, #4, 0
    a000:	e58d200c 	str	r2, [sp, #12]
    a004:	e5934000 	ldr	r4, [r3]
    a008:	e5d40000 	ldrb	r0, [r4]
    a00c:	e3500000 	cmp	r0, #0, 0
    a010:	0a000004 	beq	a028 <vprintk+0x278>
    a014:	e59f3038 	ldr	r3, [pc, #56]	; a054 <vprintk+0x2a4>
    a018:	e5933000 	ldr	r3, [r3]
    a01c:	e12fff33 	blx	r3
    a020:	e2844001 	add	r4, r4, #1, 0
    a024:	eafffff7 	b	a008 <vprintk+0x258>
    a028:	e1a04005 	mov	r4, r5
    a02c:	eaffff67 	b	9dd0 <vprintk+0x20>
    a030:	e58d2000 	str	r2, [sp]
    a034:	e3a03062 	mov	r3, #98, 0	; 0x62
    a038:	e59f2018 	ldr	r2, [pc, #24]	; a058 <vprintk+0x2a8>
    a03c:	e59f1018 	ldr	r1, [pc, #24]	; a05c <vprintk+0x2ac>
    a040:	e59f001c 	ldr	r0, [pc, #28]	; a064 <vprintk+0x2b4>
    a044:	ebffff0a 	bl	9c74 <printk>
    a048:	eb000039 	bl	a134 <clean_reboot>
    a04c:	e28dd014 	add	sp, sp, #20, 0
    a050:	e8bd8030 	pop	{r4, r5, pc}
    a054:	0000c90c 	.word	0x0000c90c
    a058:	0000bad8 	.word	0x0000bad8
    a05c:	0000ba14 	.word	0x0000ba14
    a060:	0000ba6c 	.word	0x0000ba6c
    a064:	0000baa4 	.word	0x0000baa4

0000a068 <default_putchar>:
    a068:	e92d4010 	push	{r4, lr}
    a06c:	e1a04000 	mov	r4, r0
    a070:	e6ef0070 	uxtb	r0, r0
    a074:	eb00012c 	bl	a52c <uart_put8>
    a078:	e1a00004 	mov	r0, r4
    a07c:	e8bd8010 	pop	{r4, pc}

0000a080 <rpi_putchar_set>:
    a080:	e59f300c 	ldr	r3, [pc, #12]	; a094 <rpi_putchar_set+0x14>
    a084:	e5932000 	ldr	r2, [r3]
    a088:	e5830000 	str	r0, [r3]
    a08c:	e1a00002 	mov	r0, r2
    a090:	e12fff1e 	bx	lr
    a094:	0000c90c 	.word	0x0000c90c

0000a098 <asm_not_reached_helper>:
    a098:	e92d4010 	push	{r4, lr}
    a09c:	e1a04000 	mov	r4, r0
    a0a0:	e59f0010 	ldr	r0, [pc, #16]	; a0b8 <asm_not_reached_helper+0x20>
    a0a4:	ebfffef2 	bl	9c74 <printk>
    a0a8:	e1a01004 	mov	r1, r4
    a0ac:	e59f0008 	ldr	r0, [pc, #8]	; a0bc <asm_not_reached_helper+0x24>
    a0b0:	ebfffeef 	bl	9c74 <printk>
    a0b4:	eb00001e 	bl	a134 <clean_reboot>
    a0b8:	0000bae0 	.word	0x0000bae0
    a0bc:	0000bb14 	.word	0x0000bb14

0000a0c0 <asm_not_implemented_helper>:
    a0c0:	e92d4010 	push	{r4, lr}
    a0c4:	e1a04000 	mov	r4, r0
    a0c8:	e59f0010 	ldr	r0, [pc, #16]	; a0e0 <asm_not_implemented_helper+0x20>
    a0cc:	ebfffee8 	bl	9c74 <printk>
    a0d0:	e1a01004 	mov	r1, r4
    a0d4:	e59f0008 	ldr	r0, [pc, #8]	; a0e4 <asm_not_implemented_helper+0x24>
    a0d8:	ebfffee5 	bl	9c74 <printk>
    a0dc:	eb000014 	bl	a134 <clean_reboot>
    a0e0:	0000bb48 	.word	0x0000bb48
    a0e4:	0000bb14 	.word	0x0000bb14

0000a0e8 <asm_todo_helper>:
    a0e8:	e92d4010 	push	{r4, lr}
    a0ec:	e1a04001 	mov	r4, r1
    a0f0:	e59f0018 	ldr	r0, [pc, #24]	; a110 <asm_todo_helper+0x28>
    a0f4:	ebfffede 	bl	9c74 <printk>
    a0f8:	e59f0014 	ldr	r0, [pc, #20]	; a114 <asm_todo_helper+0x2c>
    a0fc:	ebfffedc 	bl	9c74 <printk>
    a100:	e1a01004 	mov	r1, r4
    a104:	e59f000c 	ldr	r0, [pc, #12]	; a118 <asm_todo_helper+0x30>
    a108:	ebfffed9 	bl	9c74 <printk>
    a10c:	eb000008 	bl	a134 <clean_reboot>
    a110:	0000bb74 	.word	0x0000bb74
    a114:	0000bbac 	.word	0x0000bbac
    a118:	0000bbe0 	.word	0x0000bbe0

0000a11c <asm_bad_exception_helper>:
    a11c:	e92d4010 	push	{r4, lr}
    a120:	e1a02000 	mov	r2, r0
    a124:	e59f0004 	ldr	r0, [pc, #4]	; a130 <asm_bad_exception_helper+0x14>
    a128:	ebfffed1 	bl	9c74 <printk>
    a12c:	eb000000 	bl	a134 <clean_reboot>
    a130:	0000bbe8 	.word	0x0000bbe8

0000a134 <clean_reboot>:
    a134:	e92d4010 	push	{r4, lr}
    a138:	e59f0010 	ldr	r0, [pc, #16]	; a150 <clean_reboot+0x1c>
    a13c:	eb000296 	bl	ab9c <putk>
    a140:	eb000114 	bl	a598 <uart_flush_tx>
    a144:	e3a0000a 	mov	r0, #10, 0
    a148:	eb00008f 	bl	a38c <delay_ms>
    a14c:	eb000064 	bl	a2e4 <rpi_reboot>
    a150:	0000bc08 	.word	0x0000bc08

0000a154 <_cstart>:
    a154:	e52de004 	push	{lr}		; (str lr, [sp, #-4]!)
    a158:	e24dd014 	sub	sp, sp, #20, 0
    a15c:	eb000027 	bl	a200 <custom_loader>
    a160:	e59f3084 	ldr	r3, [pc, #132]	; a1ec <_cstart+0x98>
    a164:	ea000001 	b	a170 <_cstart+0x1c>
    a168:	e3a02000 	mov	r2, #0, 0
    a16c:	e4832004 	str	r2, [r3], #4
    a170:	e59f2078 	ldr	r2, [pc, #120]	; a1f0 <_cstart+0x9c>
    a174:	e1530002 	cmp	r3, r2
    a178:	3afffffa 	bcc	a168 <_cstart+0x14>
    a17c:	e3a02a01 	mov	r2, #4096	; 0x1000
    a180:	e3a01000 	mov	r1, #0, 0
    a184:	e1a00001 	mov	r0, r1
    a188:	eb00025b 	bl	aafc <memset>
    a18c:	e3a03000 	mov	r3, #0, 0
    a190:	e3530b01 	cmp	r3, #1024	; 0x400
    a194:	2a00000f 	bcs	a1d8 <_cstart+0x84>
    a198:	e1a02103 	lsl	r2, r3, #2
    a19c:	e5921000 	ldr	r1, [r2]
    a1a0:	e3510000 	cmp	r1, #0, 0
    a1a4:	02833001 	addeq	r3, r3, #1, 0
    a1a8:	0afffff8 	beq	a190 <_cstart+0x3c>
    a1ac:	e5923000 	ldr	r3, [r2]
    a1b0:	e3a01001 	mov	r1, #1, 0
    a1b4:	e58d1008 	str	r1, [sp, #8]
    a1b8:	e58d3004 	str	r3, [sp, #4]
    a1bc:	e58d2000 	str	r2, [sp]
    a1c0:	e3a03012 	mov	r3, #18, 0
    a1c4:	e59f2028 	ldr	r2, [pc, #40]	; a1f4 <_cstart+0xa0>
    a1c8:	e59f1028 	ldr	r1, [pc, #40]	; a1f8 <_cstart+0xa4>
    a1cc:	e59f0028 	ldr	r0, [pc, #40]	; a1fc <_cstart+0xa8>
    a1d0:	ebfffea7 	bl	9c74 <printk>
    a1d4:	ebffffd6 	bl	a134 <clean_reboot>
    a1d8:	eb000087 	bl	a3fc <uart_init>
    a1dc:	e3a03001 	mov	r3, #1, 0
    a1e0:	ee0f3f1c 	mcr	15, 0, r3, cr15, cr12, {0}
    a1e4:	ebfff793 	bl	8038 <notmain>
    a1e8:	ebffffd1 	bl	a134 <clean_reboot>
    a1ec:	0000c91c 	.word	0x0000c91c
    a1f0:	0000c930 	.word	0x0000c930
    a1f4:	0000bc98 	.word	0x0000bc98
    a1f8:	0000bc14 	.word	0x0000bc14
    a1fc:	0000bc5c 	.word	0x0000bc5c

0000a200 <custom_loader>:
    a200:	e12fff1e 	bx	lr

0000a204 <int_vector>:
    a204:	e52de004 	push	{lr}		; (str lr, [sp, #-4]!)
    a208:	e24dd00c 	sub	sp, sp, #12, 0
    a20c:	e58d0004 	str	r0, [sp, #4]
    a210:	e59f3018 	ldr	r3, [pc, #24]	; a230 <int_vector+0x2c>
    a214:	e58d3000 	str	r3, [sp]
    a218:	e3a03003 	mov	r3, #3, 0
    a21c:	e59f2010 	ldr	r2, [pc, #16]	; a234 <int_vector+0x30>
    a220:	e59f1010 	ldr	r1, [pc, #16]	; a238 <int_vector+0x34>
    a224:	e59f0010 	ldr	r0, [pc, #16]	; a23c <int_vector+0x38>
    a228:	ebfffe91 	bl	9c74 <printk>
    a22c:	ebffffc0 	bl	a134 <clean_reboot>
    a230:	0000bd18 	.word	0x0000bd18
    a234:	0000bd24 	.word	0x0000bd24
    a238:	0000bca8 	.word	0x0000bca8
    a23c:	0000bccc 	.word	0x0000bccc

0000a240 <reset_vector>:
    a240:	e52de004 	push	{lr}		; (str lr, [sp, #-4]!)
    a244:	e24dd00c 	sub	sp, sp, #12, 0
    a248:	e58d0004 	str	r0, [sp, #4]
    a24c:	e59f3018 	ldr	r3, [pc, #24]	; a26c <reset_vector+0x2c>
    a250:	e58d3000 	str	r3, [sp]
    a254:	e3a03002 	mov	r3, #2, 0
    a258:	e59f2010 	ldr	r2, [pc, #16]	; a270 <reset_vector+0x30>
    a25c:	e59f1010 	ldr	r1, [pc, #16]	; a274 <reset_vector+0x34>
    a260:	e59f0010 	ldr	r0, [pc, #16]	; a278 <reset_vector+0x38>
    a264:	ebfffe82 	bl	9c74 <printk>
    a268:	ebffffb1 	bl	a134 <clean_reboot>
    a26c:	0000bd54 	.word	0x0000bd54
    a270:	0000bd5c 	.word	0x0000bd5c
    a274:	0000bd30 	.word	0x0000bd30
    a278:	0000bccc 	.word	0x0000bccc

0000a27c <undefined_instruction_vector>:
    a27c:	e52de004 	push	{lr}		; (str lr, [sp, #-4]!)
    a280:	e24dd00c 	sub	sp, sp, #12, 0
    a284:	e58d0004 	str	r0, [sp, #4]
    a288:	e59f3018 	ldr	r3, [pc, #24]	; a2a8 <undefined_instruction_vector+0x2c>
    a28c:	e58d3000 	str	r3, [sp]
    a290:	e3a03002 	mov	r3, #2, 0
    a294:	e59f2010 	ldr	r2, [pc, #16]	; a2ac <undefined_instruction_vector+0x30>
    a298:	e59f1010 	ldr	r1, [pc, #16]	; a2b0 <undefined_instruction_vector+0x34>
    a29c:	e59f0010 	ldr	r0, [pc, #16]	; a2b4 <undefined_instruction_vector+0x38>
    a2a0:	ebfffe73 	bl	9c74 <printk>
    a2a4:	ebffffa2 	bl	a134 <clean_reboot>
    a2a8:	0000bd9c 	.word	0x0000bd9c
    a2ac:	0000bdac 	.word	0x0000bdac
    a2b0:	0000bd6c 	.word	0x0000bd6c
    a2b4:	0000bccc 	.word	0x0000bccc

0000a2b8 <at_user_level>:
    a2b8:	e10f0000 	mrs	r0, CPSR
    a2bc:	e200001f 	and	r0, r0, #31, 0
    a2c0:	e3500010 	cmp	r0, #16, 0
    a2c4:	13a00000 	movne	r0, #0, 0
    a2c8:	03a00001 	moveq	r0, #1, 0
    a2cc:	e12fff1e 	bx	lr

0000a2d0 <set_user_level>:
    a2d0:	e10f3000 	mrs	r3, CPSR
    a2d4:	e3c3301f 	bic	r3, r3, #31, 0
    a2d8:	e3833010 	orr	r3, r3, #16, 0
    a2dc:	e129f003 	msr	CPSR_fc, r3
    a2e0:	e12fff1e 	bx	lr

0000a2e4 <rpi_reboot>:
    a2e4:	e92d4010 	push	{r4, lr}
    a2e8:	ebfffff2 	bl	a2b8 <at_user_level>
    a2ec:	e3500000 	cmp	r0, #0, 0
    a2f0:	1a00000a 	bne	a320 <rpi_reboot+0x3c>
    a2f4:	ebfffb17 	bl	8f58 <reboot_callout>
    a2f8:	eb0000a6 	bl	a598 <uart_flush_tx>
    a2fc:	e3a0000a 	mov	r0, #10, 0
    a300:	eb000021 	bl	a38c <delay_ms>
    a304:	e59f101c 	ldr	r1, [pc, #28]	; a328 <rpi_reboot+0x44>
    a308:	e59f001c 	ldr	r0, [pc, #28]	; a32c <rpi_reboot+0x48>
    a30c:	ebfff744 	bl	8024 <PUT32>
    a310:	e59f1018 	ldr	r1, [pc, #24]	; a330 <rpi_reboot+0x4c>
    a314:	e59f0018 	ldr	r0, [pc, #24]	; a334 <rpi_reboot+0x50>
    a318:	ebfff741 	bl	8024 <PUT32>
    a31c:	eafffffe 	b	a31c <rpi_reboot+0x38>
    a320:	ebffffea 	bl	a2d0 <set_user_level>
    a324:	eafffff2 	b	a2f4 <rpi_reboot+0x10>
    a328:	5a000001 	.word	0x5a000001
    a32c:	20100024 	.word	0x20100024
    a330:	5a000020 	.word	0x5a000020
    a334:	2010001c 	.word	0x2010001c

0000a338 <timer_get_usec_raw>:
    a338:	e92d4010 	push	{r4, lr}
    a33c:	e59f0004 	ldr	r0, [pc, #4]	; a348 <timer_get_usec_raw+0x10>
    a340:	ebfff739 	bl	802c <GET32>
    a344:	e8bd8010 	pop	{r4, pc}
    a348:	20003004 	.word	0x20003004

0000a34c <timer_get_usec>:
    a34c:	e92d4010 	push	{r4, lr}
    a350:	eb00021e 	bl	abd0 <dev_barrier>
    a354:	ebfffff7 	bl	a338 <timer_get_usec_raw>
    a358:	e1a04000 	mov	r4, r0
    a35c:	eb00021b 	bl	abd0 <dev_barrier>
    a360:	e1a00004 	mov	r0, r4
    a364:	e8bd8010 	pop	{r4, pc}

0000a368 <delay_us>:
    a368:	e92d4070 	push	{r4, r5, r6, lr}
    a36c:	e1a05000 	mov	r5, r0
    a370:	ebfffff5 	bl	a34c <timer_get_usec>
    a374:	e1a04000 	mov	r4, r0
    a378:	ebfffff3 	bl	a34c <timer_get_usec>
    a37c:	e0400004 	sub	r0, r0, r4
    a380:	e1500005 	cmp	r0, r5
    a384:	3afffffb 	bcc	a378 <delay_us+0x10>
    a388:	e8bd8070 	pop	{r4, r5, r6, pc}

0000a38c <delay_ms>:
    a38c:	e92d4010 	push	{r4, lr}
    a390:	e0603280 	rsb	r3, r0, r0, lsl #5
    a394:	e0800103 	add	r0, r0, r3, lsl #2
    a398:	e1a00180 	lsl	r0, r0, #3
    a39c:	ebfffff1 	bl	a368 <delay_us>
    a3a0:	e8bd8010 	pop	{r4, pc}

0000a3a4 <delay_sec>:
    a3a4:	e92d4010 	push	{r4, lr}
    a3a8:	e0603280 	rsb	r3, r0, r0, lsl #5
    a3ac:	e0800103 	add	r0, r0, r3, lsl #2
    a3b0:	e1a00180 	lsl	r0, r0, #3
    a3b4:	ebfffff4 	bl	a38c <delay_ms>
    a3b8:	e8bd8010 	pop	{r4, pc}

0000a3bc <and_in32>:
    a3bc:	e92d4070 	push	{r4, r5, r6, lr}
    a3c0:	e1a04000 	mov	r4, r0
    a3c4:	e1a05001 	mov	r5, r1
    a3c8:	ebfff717 	bl	802c <GET32>
    a3cc:	e0001005 	and	r1, r0, r5
    a3d0:	e1a00004 	mov	r0, r4
    a3d4:	ebfff712 	bl	8024 <PUT32>
    a3d8:	e8bd8070 	pop	{r4, r5, r6, pc}

0000a3dc <or_in32>:
    a3dc:	e92d4070 	push	{r4, r5, r6, lr}
    a3e0:	e1a04000 	mov	r4, r0
    a3e4:	e1a05001 	mov	r5, r1
    a3e8:	ebfff70f 	bl	802c <GET32>
    a3ec:	e1801005 	orr	r1, r0, r5
    a3f0:	e1a00004 	mov	r0, r4
    a3f4:	ebfff70a 	bl	8024 <PUT32>
    a3f8:	e8bd8070 	pop	{r4, r5, r6, pc}

0000a3fc <uart_init>:
    a3fc:	e92d4010 	push	{r4, lr}
    a400:	eb0001f2 	bl	abd0 <dev_barrier>
    a404:	e3a01002 	mov	r1, #2, 0
    a408:	e3a0000e 	mov	r0, #14, 0
    a40c:	eb000160 	bl	a994 <gpio_set_function>
    a410:	e3a01002 	mov	r1, #2, 0
    a414:	e3a0000f 	mov	r0, #15, 0
    a418:	eb00015d 	bl	a994 <gpio_set_function>
    a41c:	eb0001eb 	bl	abd0 <dev_barrier>
    a420:	e3a01001 	mov	r1, #1, 0
    a424:	e59f0064 	ldr	r0, [pc, #100]	; a490 <uart_init+0x94>
    a428:	ebffffeb 	bl	a3dc <or_in32>
    a42c:	eb0001e7 	bl	abd0 <dev_barrier>
    a430:	e59f405c 	ldr	r4, [pc, #92]	; a494 <uart_init+0x98>
    a434:	e3a01000 	mov	r1, #0, 0
    a438:	e1a00004 	mov	r0, r4
    a43c:	ebfff6f8 	bl	8024 <PUT32>
    a440:	e3a01000 	mov	r1, #0, 0
    a444:	e59f004c 	ldr	r0, [pc, #76]	; a498 <uart_init+0x9c>
    a448:	ebfff6f5 	bl	8024 <PUT32>
    a44c:	e3a01003 	mov	r1, #3, 0
    a450:	e59f0044 	ldr	r0, [pc, #68]	; a49c <uart_init+0xa0>
    a454:	ebfff6f2 	bl	8024 <PUT32>
    a458:	e3a01000 	mov	r1, #0, 0
    a45c:	e59f003c 	ldr	r0, [pc, #60]	; a4a0 <uart_init+0xa4>
    a460:	ebfff6ef 	bl	8024 <PUT32>
    a464:	e3a01006 	mov	r1, #6, 0
    a468:	e59f0034 	ldr	r0, [pc, #52]	; a4a4 <uart_init+0xa8>
    a46c:	ebfff6ec 	bl	8024 <PUT32>
    a470:	e59f1030 	ldr	r1, [pc, #48]	; a4a8 <uart_init+0xac>
    a474:	e59f0030 	ldr	r0, [pc, #48]	; a4ac <uart_init+0xb0>
    a478:	ebfff6e9 	bl	8024 <PUT32>
    a47c:	e3a01003 	mov	r1, #3, 0
    a480:	e1a00004 	mov	r0, r4
    a484:	ebfff6e6 	bl	8024 <PUT32>
    a488:	eb0001d0 	bl	abd0 <dev_barrier>
    a48c:	e8bd8010 	pop	{r4, pc}
    a490:	20215004 	.word	0x20215004
    a494:	20215060 	.word	0x20215060
    a498:	20215044 	.word	0x20215044
    a49c:	2021504c 	.word	0x2021504c
    a4a0:	20215050 	.word	0x20215050
    a4a4:	20215048 	.word	0x20215048
    a4a8:	0000010e 	.word	0x0000010e
    a4ac:	20215068 	.word	0x20215068

0000a4b0 <uart_can_getc>:
    a4b0:	e92d4010 	push	{r4, lr}
    a4b4:	e59f0008 	ldr	r0, [pc, #8]	; a4c4 <uart_can_getc+0x14>
    a4b8:	ebfff6db 	bl	802c <GET32>
    a4bc:	e2000001 	and	r0, r0, #1, 0
    a4c0:	e8bd8010 	pop	{r4, pc}
    a4c4:	20215054 	.word	0x20215054

0000a4c8 <uart_can_putc>:
    a4c8:	e92d4010 	push	{r4, lr}
    a4cc:	e59f0010 	ldr	r0, [pc, #16]	; a4e4 <uart_can_putc+0x1c>
    a4d0:	ebfff6d5 	bl	802c <GET32>
    a4d4:	e3100020 	tst	r0, #32, 0
    a4d8:	13a00001 	movne	r0, #1, 0
    a4dc:	03a00000 	moveq	r0, #0, 0
    a4e0:	e8bd8010 	pop	{r4, pc}
    a4e4:	20215054 	.word	0x20215054

0000a4e8 <uart_can_put8>:
    a4e8:	e92d4010 	push	{r4, lr}
    a4ec:	ebfffff5 	bl	a4c8 <uart_can_putc>
    a4f0:	e8bd8010 	pop	{r4, pc}

0000a4f4 <uart_get8>:
    a4f4:	e92d4010 	push	{r4, lr}
    a4f8:	eb0001b4 	bl	abd0 <dev_barrier>
    a4fc:	ea000000 	b	a504 <uart_get8+0x10>
    a500:	eb0001b8 	bl	abe8 <rpi_wait>
    a504:	ebffffe9 	bl	a4b0 <uart_can_getc>
    a508:	e3500000 	cmp	r0, #0, 0
    a50c:	0afffffb 	beq	a500 <uart_get8+0xc>
    a510:	e59f0010 	ldr	r0, [pc, #16]	; a528 <uart_get8+0x34>
    a514:	ebfff6c4 	bl	802c <GET32>
    a518:	e6ef4070 	uxtb	r4, r0
    a51c:	eb0001ab 	bl	abd0 <dev_barrier>
    a520:	e1a00004 	mov	r0, r4
    a524:	e8bd8010 	pop	{r4, pc}
    a528:	20215040 	.word	0x20215040

0000a52c <uart_put8>:
    a52c:	e92d4010 	push	{r4, lr}
    a530:	e1a04000 	mov	r4, r0
    a534:	eb0001a5 	bl	abd0 <dev_barrier>
    a538:	ea000000 	b	a540 <uart_put8+0x14>
    a53c:	eb0001a9 	bl	abe8 <rpi_wait>
    a540:	ebffffe0 	bl	a4c8 <uart_can_putc>
    a544:	e3500000 	cmp	r0, #0, 0
    a548:	0afffffb 	beq	a53c <uart_put8+0x10>
    a54c:	e1a01004 	mov	r1, r4
    a550:	e59f000c 	ldr	r0, [pc, #12]	; a564 <uart_put8+0x38>
    a554:	ebfff6b2 	bl	8024 <PUT32>
    a558:	eb00019c 	bl	abd0 <dev_barrier>
    a55c:	e3a00001 	mov	r0, #1, 0
    a560:	e8bd8010 	pop	{r4, pc}
    a564:	20215040 	.word	0x20215040

0000a568 <uart_has_data>:
    a568:	e92d4010 	push	{r4, lr}
    a56c:	eb000197 	bl	abd0 <dev_barrier>
    a570:	ebffffce 	bl	a4b0 <uart_can_getc>
    a574:	e8bd8010 	pop	{r4, pc}

0000a578 <uart_tx_is_empty>:
    a578:	e92d4010 	push	{r4, lr}
    a57c:	eb000193 	bl	abd0 <dev_barrier>
    a580:	e59f000c 	ldr	r0, [pc, #12]	; a594 <uart_tx_is_empty+0x1c>
    a584:	ebfff6a8 	bl	802c <GET32>
    a588:	e1a004a0 	lsr	r0, r0, #9
    a58c:	e2000001 	and	r0, r0, #1, 0
    a590:	e8bd8010 	pop	{r4, pc}
    a594:	20215064 	.word	0x20215064

0000a598 <uart_flush_tx>:
    a598:	e92d4010 	push	{r4, lr}
    a59c:	ea000000 	b	a5a4 <uart_flush_tx+0xc>
    a5a0:	eb000190 	bl	abe8 <rpi_wait>
    a5a4:	ebfffff3 	bl	a578 <uart_tx_is_empty>
    a5a8:	e3500000 	cmp	r0, #0, 0
    a5ac:	0afffffb 	beq	a5a0 <uart_flush_tx+0x8>
    a5b0:	e8bd8010 	pop	{r4, pc}

0000a5b4 <uart_disable>:
    a5b4:	e92d4010 	push	{r4, lr}
    a5b8:	ebfffff6 	bl	a598 <uart_flush_tx>
    a5bc:	eb000183 	bl	abd0 <dev_barrier>
    a5c0:	e3e01001 	mvn	r1, #1, 0
    a5c4:	e59f0008 	ldr	r0, [pc, #8]	; a5d4 <uart_disable+0x20>
    a5c8:	ebffff7b 	bl	a3bc <and_in32>
    a5cc:	eb00017f 	bl	abd0 <dev_barrier>
    a5d0:	e8bd8010 	pop	{r4, pc}
    a5d4:	20215004 	.word	0x20215004

0000a5d8 <using_staff_uart>:
    a5d8:	e12fff1e 	bx	lr

0000a5dc <kmalloc_heap_end>:
    a5dc:	e59f3004 	ldr	r3, [pc, #4]	; a5e8 <kmalloc_heap_end+0xc>
    a5e0:	e5930000 	ldr	r0, [r3]
    a5e4:	e12fff1e 	bx	lr
    a5e8:	0000c910 	.word	0x0000c910

0000a5ec <kmalloc_heap_start>:
    a5ec:	e59f3004 	ldr	r3, [pc, #4]	; a5f8 <kmalloc_heap_start+0xc>
    a5f0:	e5930004 	ldr	r0, [r3, #4]
    a5f4:	e12fff1e 	bx	lr
    a5f8:	0000c910 	.word	0x0000c910

0000a5fc <kmalloc_heap_ptr>:
    a5fc:	e59f3004 	ldr	r3, [pc, #4]	; a608 <kmalloc_heap_ptr+0xc>
    a600:	e5930008 	ldr	r0, [r3, #8]
    a604:	e12fff1e 	bx	lr
    a608:	0000c910 	.word	0x0000c910

0000a60c <kmalloc_init_set_start>:
    a60c:	e52de004 	push	{lr}		; (str lr, [sp, #-4]!)
    a610:	e24dd00c 	sub	sp, sp, #12, 0
    a614:	e59f30a8 	ldr	r3, [pc, #168]	; a6c4 <kmalloc_init_set_start+0xb8>
    a618:	e5933000 	ldr	r3, [r3]
    a61c:	e3530000 	cmp	r3, #0, 0
    a620:	1a00000f 	bne	a664 <kmalloc_init_set_start+0x58>
    a624:	e59f3098 	ldr	r3, [pc, #152]	; a6c4 <kmalloc_init_set_start+0xb8>
    a628:	e3a02001 	mov	r2, #1, 0
    a62c:	e5832000 	str	r2, [r3]
    a630:	e3510000 	cmp	r1, #0, 0
    a634:	0a000010 	beq	a67c <kmalloc_init_set_start+0x70>
    a638:	e59f3088 	ldr	r3, [pc, #136]	; a6c8 <kmalloc_init_set_start+0xbc>
    a63c:	e5933008 	ldr	r3, [r3, #8]
    a640:	e1530000 	cmp	r3, r0
    a644:	8a000014 	bhi	a69c <kmalloc_init_set_start+0x90>
    a648:	e59f3078 	ldr	r3, [pc, #120]	; a6c8 <kmalloc_init_set_start+0xbc>
    a64c:	e5830008 	str	r0, [r3, #8]
    a650:	e5830004 	str	r0, [r3, #4]
    a654:	e0800001 	add	r0, r0, r1
    a658:	e5830000 	str	r0, [r3]
    a65c:	e28dd00c 	add	sp, sp, #12, 0
    a660:	e49df004 	pop	{pc}		; (ldr pc, [sp], #4)
    a664:	e3a03031 	mov	r3, #49, 0	; 0x31
    a668:	e59f205c 	ldr	r2, [pc, #92]	; a6cc <kmalloc_init_set_start+0xc0>
    a66c:	e59f105c 	ldr	r1, [pc, #92]	; a6d0 <kmalloc_init_set_start+0xc4>
    a670:	e59f005c 	ldr	r0, [pc, #92]	; a6d4 <kmalloc_init_set_start+0xc8>
    a674:	ebfffd7e 	bl	9c74 <printk>
    a678:	ebfffead 	bl	a134 <clean_reboot>
    a67c:	e59f3054 	ldr	r3, [pc, #84]	; a6d8 <kmalloc_init_set_start+0xcc>
    a680:	e58d3000 	str	r3, [sp]
    a684:	e3a03036 	mov	r3, #54, 0	; 0x36
    a688:	e59f203c 	ldr	r2, [pc, #60]	; a6cc <kmalloc_init_set_start+0xc0>
    a68c:	e59f103c 	ldr	r1, [pc, #60]	; a6d0 <kmalloc_init_set_start+0xc4>
    a690:	e59f0044 	ldr	r0, [pc, #68]	; a6dc <kmalloc_init_set_start+0xd0>
    a694:	ebfffd76 	bl	9c74 <printk>
    a698:	ebfffea5 	bl	a134 <clean_reboot>
    a69c:	e59f3024 	ldr	r3, [pc, #36]	; a6c8 <kmalloc_init_set_start+0xbc>
    a6a0:	e5933000 	ldr	r3, [r3]
    a6a4:	e58d3004 	str	r3, [sp, #4]
    a6a8:	e58d0000 	str	r0, [sp]
    a6ac:	e3a0303a 	mov	r3, #58, 0	; 0x3a
    a6b0:	e59f2014 	ldr	r2, [pc, #20]	; a6cc <kmalloc_init_set_start+0xc0>
    a6b4:	e59f1014 	ldr	r1, [pc, #20]	; a6d0 <kmalloc_init_set_start+0xc4>
    a6b8:	e59f0020 	ldr	r0, [pc, #32]	; a6e0 <kmalloc_init_set_start+0xd4>
    a6bc:	ebfffd6c 	bl	9c74 <printk>
    a6c0:	ebfffe9b 	bl	a134 <clean_reboot>
    a6c4:	0000c92c 	.word	0x0000c92c
    a6c8:	0000c910 	.word	0x0000c910
    a6cc:	0000bfa0 	.word	0x0000bfa0
    a6d0:	0000bdcc 	.word	0x0000bdcc
    a6d4:	0000bdd8 	.word	0x0000bdd8
    a6d8:	0000be0c 	.word	0x0000be0c
    a6dc:	0000ac08 	.word	0x0000ac08
    a6e0:	0000be18 	.word	0x0000be18

0000a6e4 <kmalloc_notzero>:
    a6e4:	e52de004 	push	{lr}		; (str lr, [sp, #-4]!)
    a6e8:	e24dd00c 	sub	sp, sp, #12, 0
    a6ec:	e3500000 	cmp	r0, #0, 0
    a6f0:	0a00000d 	beq	a72c <kmalloc_notzero+0x48>
    a6f4:	e2800007 	add	r0, r0, #7, 0
    a6f8:	e3c03007 	bic	r3, r0, #7, 0
    a6fc:	e59f208c 	ldr	r2, [pc, #140]	; a790 <kmalloc_notzero+0xac>
    a700:	e5920008 	ldr	r0, [r2, #8]
    a704:	e3100007 	tst	r0, #7, 0
    a708:	1a00000f 	bne	a74c <kmalloc_notzero+0x68>
    a70c:	e0802003 	add	r2, r0, r3
    a710:	e59f1078 	ldr	r1, [pc, #120]	; a790 <kmalloc_notzero+0xac>
    a714:	e5812008 	str	r2, [r1, #8]
    a718:	e5911000 	ldr	r1, [r1]
    a71c:	e1520001 	cmp	r2, r1
    a720:	8a000011 	bhi	a76c <kmalloc_notzero+0x88>
    a724:	e28dd00c 	add	sp, sp, #12, 0
    a728:	e49df004 	pop	{pc}		; (ldr pc, [sp], #4)
    a72c:	e59f3060 	ldr	r3, [pc, #96]	; a794 <kmalloc_notzero+0xb0>
    a730:	e58d3000 	str	r3, [sp]
    a734:	e3a03053 	mov	r3, #83, 0	; 0x53
    a738:	e59f2058 	ldr	r2, [pc, #88]	; a798 <kmalloc_notzero+0xb4>
    a73c:	e59f1058 	ldr	r1, [pc, #88]	; a79c <kmalloc_notzero+0xb8>
    a740:	e59f0058 	ldr	r0, [pc, #88]	; a7a0 <kmalloc_notzero+0xbc>
    a744:	ebfffd4a 	bl	9c74 <printk>
    a748:	ebfffe79 	bl	a134 <clean_reboot>
    a74c:	e59f3050 	ldr	r3, [pc, #80]	; a7a4 <kmalloc_notzero+0xc0>
    a750:	e58d3000 	str	r3, [sp]
    a754:	e3a03056 	mov	r3, #86, 0	; 0x56
    a758:	e59f2038 	ldr	r2, [pc, #56]	; a798 <kmalloc_notzero+0xb4>
    a75c:	e59f1038 	ldr	r1, [pc, #56]	; a79c <kmalloc_notzero+0xb8>
    a760:	e59f0038 	ldr	r0, [pc, #56]	; a7a0 <kmalloc_notzero+0xbc>
    a764:	ebfffd42 	bl	9c74 <printk>
    a768:	ebfffe71 	bl	a134 <clean_reboot>
    a76c:	e0422001 	sub	r2, r2, r1
    a770:	e58d2004 	str	r2, [sp, #4]
    a774:	e58d3000 	str	r3, [sp]
    a778:	e3a0305b 	mov	r3, #91, 0	; 0x5b
    a77c:	e59f2014 	ldr	r2, [pc, #20]	; a798 <kmalloc_notzero+0xb4>
    a780:	e59f1014 	ldr	r1, [pc, #20]	; a79c <kmalloc_notzero+0xb8>
    a784:	e59f001c 	ldr	r0, [pc, #28]	; a7a8 <kmalloc_notzero+0xc4>
    a788:	ebfffd39 	bl	9c74 <printk>
    a78c:	ebfffe68 	bl	a134 <clean_reboot>
    a790:	0000c910 	.word	0x0000c910
    a794:	0000be10 	.word	0x0000be10
    a798:	0000bfb8 	.word	0x0000bfb8
    a79c:	0000bdcc 	.word	0x0000bdcc
    a7a0:	0000ac08 	.word	0x0000ac08
    a7a4:	0000be5c 	.word	0x0000be5c
    a7a8:	0000be74 	.word	0x0000be74

0000a7ac <kmalloc>:
    a7ac:	e92d4030 	push	{r4, r5, lr}
    a7b0:	e24dd00c 	sub	sp, sp, #12, 0
    a7b4:	e2504000 	subs	r4, r0, #0, 0
    a7b8:	0a000008 	beq	a7e0 <kmalloc+0x34>
    a7bc:	e1a00004 	mov	r0, r4
    a7c0:	ebffffc7 	bl	a6e4 <kmalloc_notzero>
    a7c4:	e1a05000 	mov	r5, r0
    a7c8:	e1a02004 	mov	r2, r4
    a7cc:	e3a01000 	mov	r1, #0, 0
    a7d0:	eb0000c9 	bl	aafc <memset>
    a7d4:	e1a00005 	mov	r0, r5
    a7d8:	e28dd00c 	add	sp, sp, #12, 0
    a7dc:	e8bd8030 	pop	{r4, r5, pc}
    a7e0:	e59f3018 	ldr	r3, [pc, #24]	; a800 <kmalloc+0x54>
    a7e4:	e58d3000 	str	r3, [sp]
    a7e8:	e3a03062 	mov	r3, #98, 0	; 0x62
    a7ec:	e59f2010 	ldr	r2, [pc, #16]	; a804 <kmalloc+0x58>
    a7f0:	e59f1010 	ldr	r1, [pc, #16]	; a808 <kmalloc+0x5c>
    a7f4:	e59f0010 	ldr	r0, [pc, #16]	; a80c <kmalloc+0x60>
    a7f8:	ebfffd1d 	bl	9c74 <printk>
    a7fc:	ebfffe4c 	bl	a134 <clean_reboot>
    a800:	0000be10 	.word	0x0000be10
    a804:	0000bfc8 	.word	0x0000bfc8
    a808:	0000bdcc 	.word	0x0000bdcc
    a80c:	0000ac08 	.word	0x0000ac08

0000a810 <kmalloc_aligned>:
    a810:	e52de004 	push	{lr}		; (str lr, [sp, #-4]!)
    a814:	e24dd00c 	sub	sp, sp, #12, 0
    a818:	e3500000 	cmp	r0, #0, 0
    a81c:	0a000014 	beq	a874 <kmalloc_aligned+0x64>
    a820:	e2613000 	rsb	r3, r1, #0, 0
    a824:	e1d13003 	bics	r3, r1, r3
    a828:	1a000019 	bne	a894 <kmalloc_aligned+0x84>
    a82c:	e3510008 	cmp	r1, #8, 0
    a830:	33a01008 	movcc	r1, #8, 0
    a834:	e59f30b8 	ldr	r3, [pc, #184]	; a8f4 <kmalloc_aligned+0xe4>
    a838:	e5932008 	ldr	r2, [r3, #8]
    a83c:	e2613000 	rsb	r3, r1, #0, 0
    a840:	e1d1c003 	bics	ip, r1, r3
    a844:	1a00001a 	bne	a8b4 <kmalloc_aligned+0xa4>
    a848:	e0822001 	add	r2, r2, r1
    a84c:	e2422001 	sub	r2, r2, #1, 0
    a850:	e0033002 	and	r3, r3, r2
    a854:	e2411001 	sub	r1, r1, #1, 0
    a858:	e1110003 	tst	r1, r3
    a85c:	1a00001c 	bne	a8d4 <kmalloc_aligned+0xc4>
    a860:	e59f208c 	ldr	r2, [pc, #140]	; a8f4 <kmalloc_aligned+0xe4>
    a864:	e5823008 	str	r3, [r2, #8]
    a868:	ebffffcf 	bl	a7ac <kmalloc>
    a86c:	e28dd00c 	add	sp, sp, #12, 0
    a870:	e49df004 	pop	{pc}		; (ldr pc, [sp], #4)
    a874:	e59f307c 	ldr	r3, [pc, #124]	; a8f8 <kmalloc_aligned+0xe8>
    a878:	e58d3000 	str	r3, [sp]
    a87c:	e3a0306d 	mov	r3, #109, 0	; 0x6d
    a880:	e59f2074 	ldr	r2, [pc, #116]	; a8fc <kmalloc_aligned+0xec>
    a884:	e59f1074 	ldr	r1, [pc, #116]	; a900 <kmalloc_aligned+0xf0>
    a888:	e59f0074 	ldr	r0, [pc, #116]	; a904 <kmalloc_aligned+0xf4>
    a88c:	ebfffcf8 	bl	9c74 <printk>
    a890:	ebfffe27 	bl	a134 <clean_reboot>
    a894:	e59f306c 	ldr	r3, [pc, #108]	; a908 <kmalloc_aligned+0xf8>
    a898:	e58d3000 	str	r3, [sp]
    a89c:	e3a0306e 	mov	r3, #110, 0	; 0x6e
    a8a0:	e59f2054 	ldr	r2, [pc, #84]	; a8fc <kmalloc_aligned+0xec>
    a8a4:	e59f1054 	ldr	r1, [pc, #84]	; a900 <kmalloc_aligned+0xf0>
    a8a8:	e59f005c 	ldr	r0, [pc, #92]	; a90c <kmalloc_aligned+0xfc>
    a8ac:	ebfffcf0 	bl	9c74 <printk>
    a8b0:	ebfffe1f 	bl	a134 <clean_reboot>
    a8b4:	e59f3054 	ldr	r3, [pc, #84]	; a910 <kmalloc_aligned+0x100>
    a8b8:	e58d3000 	str	r3, [sp]
    a8bc:	e3a03011 	mov	r3, #17, 0
    a8c0:	e59f204c 	ldr	r2, [pc, #76]	; a914 <kmalloc_aligned+0x104>
    a8c4:	e59f1034 	ldr	r1, [pc, #52]	; a900 <kmalloc_aligned+0xf0>
    a8c8:	e59f0034 	ldr	r0, [pc, #52]	; a904 <kmalloc_aligned+0xf4>
    a8cc:	ebfffce8 	bl	9c74 <printk>
    a8d0:	ebfffe17 	bl	a134 <clean_reboot>
    a8d4:	e59f303c 	ldr	r3, [pc, #60]	; a918 <kmalloc_aligned+0x108>
    a8d8:	e58d3000 	str	r3, [sp]
    a8dc:	e3a03076 	mov	r3, #118, 0	; 0x76
    a8e0:	e59f2014 	ldr	r2, [pc, #20]	; a8fc <kmalloc_aligned+0xec>
    a8e4:	e59f1014 	ldr	r1, [pc, #20]	; a900 <kmalloc_aligned+0xf0>
    a8e8:	e59f002c 	ldr	r0, [pc, #44]	; a91c <kmalloc_aligned+0x10c>
    a8ec:	ebfffce0 	bl	9c74 <printk>
    a8f0:	ebfffe0f 	bl	a134 <clean_reboot>
    a8f4:	0000c910 	.word	0x0000c910
    a8f8:	0000be10 	.word	0x0000be10
    a8fc:	0000bfd0 	.word	0x0000bfd0
    a900:	0000bdcc 	.word	0x0000bdcc
    a904:	0000ac08 	.word	0x0000ac08
    a908:	0000befc 	.word	0x0000befc
    a90c:	0000bebc 	.word	0x0000bebc
    a910:	0000bf10 	.word	0x0000bf10
    a914:	0000bfe0 	.word	0x0000bfe0
    a918:	0000bf54 	.word	0x0000bf54
    a91c:	0000bf1c 	.word	0x0000bf1c

0000a920 <kfree_all>:
    a920:	e59f3008 	ldr	r3, [pc, #8]	; a930 <kfree_all+0x10>
    a924:	e5932004 	ldr	r2, [r3, #4]
    a928:	e5832008 	str	r2, [r3, #8]
    a92c:	e12fff1e 	bx	lr
    a930:	0000c910 	.word	0x0000c910

0000a934 <kfree_pop>:
    a934:	e59f3048 	ldr	r3, [pc, #72]	; a984 <kfree_pop+0x50>
    a938:	e5933004 	ldr	r3, [r3, #4]
    a93c:	e1530000 	cmp	r3, r0
    a940:	8a000006 	bhi	a960 <kfree_pop+0x2c>
    a944:	e59f3038 	ldr	r3, [pc, #56]	; a984 <kfree_pop+0x50>
    a948:	e5933000 	ldr	r3, [r3]
    a94c:	e1530000 	cmp	r3, r0
    a950:	3a000002 	bcc	a960 <kfree_pop+0x2c>
    a954:	e59f3028 	ldr	r3, [pc, #40]	; a984 <kfree_pop+0x50>
    a958:	e5830008 	str	r0, [r3, #8]
    a95c:	e12fff1e 	bx	lr
    a960:	e52de004 	push	{lr}		; (str lr, [sp, #-4]!)
    a964:	e24dd00c 	sub	sp, sp, #12, 0
    a968:	e58d0000 	str	r0, [sp]
    a96c:	e3a03085 	mov	r3, #133, 0	; 0x85
    a970:	e59f2010 	ldr	r2, [pc, #16]	; a988 <kfree_pop+0x54>
    a974:	e59f1010 	ldr	r1, [pc, #16]	; a98c <kfree_pop+0x58>
    a978:	e59f0010 	ldr	r0, [pc, #16]	; a990 <kfree_pop+0x5c>
    a97c:	ebfffcbc 	bl	9c74 <printk>
    a980:	ebfffdeb 	bl	a134 <clean_reboot>
    a984:	0000c910 	.word	0x0000c910
    a988:	0000bfe8 	.word	0x0000bfe8
    a98c:	0000bdcc 	.word	0x0000bdcc
    a990:	0000bf70 	.word	0x0000bf70

0000a994 <gpio_set_function>:
    a994:	e350002f 	cmp	r0, #47, 0	; 0x2f
    a998:	1350001f 	cmpne	r0, #31, 0
    a99c:	812fff1e 	bxhi	lr
    a9a0:	e92d4070 	push	{r4, r5, r6, lr}
    a9a4:	e1a05001 	mov	r5, r1
    a9a8:	e3d13007 	bics	r3, r1, #7, 0
    a9ac:	18bd8070 	popne	{r4, r5, r6, pc}
    a9b0:	e59f3040 	ldr	r3, [pc, #64]	; a9f8 <gpio_set_function+0x64>
    a9b4:	e0832093 	umull	r2, r3, r3, r0
    a9b8:	e1a031a3 	lsr	r3, r3, #3
    a9bc:	e1a02003 	mov	r2, r3
    a9c0:	e0833103 	add	r3, r3, r3, lsl #2
    a9c4:	e0403083 	sub	r3, r0, r3, lsl #1
    a9c8:	e0834083 	add	r4, r3, r3, lsl #1
    a9cc:	e2820302 	add	r0, r2, #134217728	; 0x8000000
    a9d0:	e2800702 	add	r0, r0, #524288	; 0x80000
    a9d4:	e1a06100 	lsl	r6, r0, #2
    a9d8:	e1a00006 	mov	r0, r6
    a9dc:	ebfff592 	bl	802c <GET32>
    a9e0:	e3a01007 	mov	r1, #7, 0
    a9e4:	e1c01411 	bic	r1, r0, r1, lsl r4
    a9e8:	e1811415 	orr	r1, r1, r5, lsl r4
    a9ec:	e1a00006 	mov	r0, r6
    a9f0:	ebfff58b 	bl	8024 <PUT32>
    a9f4:	e8bd8070 	pop	{r4, r5, r6, pc}
    a9f8:	cccccccd 	.word	0xcccccccd

0000a9fc <gpio_set_output>:
    a9fc:	e92d4010 	push	{r4, lr}
    aa00:	e3a01001 	mov	r1, #1, 0
    aa04:	ebffffe2 	bl	a994 <gpio_set_function>
    aa08:	e8bd8010 	pop	{r4, pc}

0000aa0c <gpio_set_on>:
    aa0c:	e92d4010 	push	{r4, lr}
    aa10:	e350002f 	cmp	r0, #47, 0	; 0x2f
    aa14:	0a000006 	beq	aa34 <gpio_set_on+0x28>
    aa18:	e350001f 	cmp	r0, #31, 0
    aa1c:	88bd8010 	pophi	{r4, pc}
    aa20:	e3a01001 	mov	r1, #1, 0
    aa24:	e1a01011 	lsl	r1, r1, r0
    aa28:	e59f001c 	ldr	r0, [pc, #28]	; aa4c <gpio_set_on+0x40>
    aa2c:	ebfff57c 	bl	8024 <PUT32>
    aa30:	e8bd8010 	pop	{r4, pc}
    aa34:	e200001f 	and	r0, r0, #31, 0
    aa38:	e3a01001 	mov	r1, #1, 0
    aa3c:	e1a01011 	lsl	r1, r1, r0
    aa40:	e59f0008 	ldr	r0, [pc, #8]	; aa50 <gpio_set_on+0x44>
    aa44:	ebfff576 	bl	8024 <PUT32>
    aa48:	e8bd8010 	pop	{r4, pc}
    aa4c:	2020001c 	.word	0x2020001c
    aa50:	20200020 	.word	0x20200020

0000aa54 <gpio_set_off>:
    aa54:	e92d4010 	push	{r4, lr}
    aa58:	e350002f 	cmp	r0, #47, 0	; 0x2f
    aa5c:	0a000006 	beq	aa7c <gpio_set_off+0x28>
    aa60:	e350001f 	cmp	r0, #31, 0
    aa64:	88bd8010 	pophi	{r4, pc}
    aa68:	e3a01001 	mov	r1, #1, 0
    aa6c:	e1a01011 	lsl	r1, r1, r0
    aa70:	e59f001c 	ldr	r0, [pc, #28]	; aa94 <gpio_set_off+0x40>
    aa74:	ebfff56a 	bl	8024 <PUT32>
    aa78:	e8bd8010 	pop	{r4, pc}
    aa7c:	e200001f 	and	r0, r0, #31, 0
    aa80:	e3a01001 	mov	r1, #1, 0
    aa84:	e1a01011 	lsl	r1, r1, r0
    aa88:	e59f0008 	ldr	r0, [pc, #8]	; aa98 <gpio_set_off+0x44>
    aa8c:	ebfff564 	bl	8024 <PUT32>
    aa90:	e8bd8010 	pop	{r4, pc}
    aa94:	20200028 	.word	0x20200028
    aa98:	2020002c 	.word	0x2020002c

0000aa9c <gpio_set_input>:
    aa9c:	e92d4010 	push	{r4, lr}
    aaa0:	e3a01000 	mov	r1, #0, 0
    aaa4:	ebffffba 	bl	a994 <gpio_set_function>
    aaa8:	e8bd8010 	pop	{r4, pc}

0000aaac <gpio_write>:
    aaac:	e92d4010 	push	{r4, lr}
    aab0:	e3510000 	cmp	r1, #0, 0
    aab4:	0a000001 	beq	aac0 <gpio_write+0x14>
    aab8:	ebffffd3 	bl	aa0c <gpio_set_on>
    aabc:	e8bd8010 	pop	{r4, pc}
    aac0:	ebffffe3 	bl	aa54 <gpio_set_off>
    aac4:	e8bd8010 	pop	{r4, pc}

0000aac8 <gpio_read>:
    aac8:	e350001f 	cmp	r0, #31, 0
    aacc:	8a000006 	bhi	aaec <gpio_read+0x24>
    aad0:	e92d4010 	push	{r4, lr}
    aad4:	e1a04000 	mov	r4, r0
    aad8:	e59f0014 	ldr	r0, [pc, #20]	; aaf4 <gpio_read+0x2c>
    aadc:	ebfff552 	bl	802c <GET32>
    aae0:	e1a00430 	lsr	r0, r0, r4
    aae4:	e2000001 	and	r0, r0, #1, 0
    aae8:	e8bd8010 	pop	{r4, pc}
    aaec:	e3e00000 	mvn	r0, #0, 0
    aaf0:	e12fff1e 	bx	lr
    aaf4:	20200034 	.word	0x20200034

0000aaf8 <using_staff_gpio>:
    aaf8:	e12fff1e 	bx	lr

0000aafc <memset>:
    aafc:	e3520000 	cmp	r2, #0, 0
    ab00:	012fff1e 	bxeq	lr
    ab04:	e3510000 	cmp	r1, #0, 0
    ab08:	1a000007 	bne	ab2c <memset+0x30>
    ab0c:	e3100007 	tst	r0, #7, 0
    ab10:	1a000001 	bne	ab1c <memset+0x20>
    ab14:	e3120007 	tst	r2, #7, 0
    ab18:	0a000011 	beq	ab64 <memset+0x68>
    ab1c:	e3100003 	tst	r0, #3, 0
    ab20:	1a000001 	bne	ab2c <memset+0x30>
    ab24:	e3120003 	tst	r2, #3, 0
    ab28:	0a000001 	beq	ab34 <memset+0x38>
    ab2c:	e0802002 	add	r2, r0, r2
    ab30:	ea000008 	b	ab58 <memset+0x5c>
    ab34:	e1a02122 	lsr	r2, r2, #2
    ab38:	ea000001 	b	ab44 <memset+0x48>
    ab3c:	e4801004 	str	r1, [r0], #4
    ab40:	e1a02003 	mov	r2, r3
    ab44:	e2423001 	sub	r3, r2, #1, 0
    ab48:	e3520000 	cmp	r2, #0, 0
    ab4c:	1afffffa 	bne	ab3c <memset+0x40>
    ab50:	e12fff1e 	bx	lr
    ab54:	e4c01001 	strb	r1, [r0], #1
    ab58:	e1500002 	cmp	r0, r2
    ab5c:	3afffffc 	bcc	ab54 <memset+0x58>
    ab60:	e12fff1e 	bx	lr
    ab64:	e1a021a2 	lsr	r2, r2, #3
    ab68:	e2423001 	sub	r3, r2, #1, 0
    ab6c:	e3520000 	cmp	r2, #0, 0
    ab70:	012fff1e 	bxeq	lr
    ab74:	e92d0030 	push	{r4, r5}
    ab78:	e1a04001 	mov	r4, r1
    ab7c:	e1a05fc1 	asr	r5, r1, #31
    ab80:	e0c040f8 	strd	r4, [r0], #8
    ab84:	e1a02003 	mov	r2, r3
    ab88:	e2433001 	sub	r3, r3, #1, 0
    ab8c:	e3520000 	cmp	r2, #0, 0
    ab90:	1afffff8 	bne	ab78 <memset+0x7c>
    ab94:	e8bd0030 	pop	{r4, r5}
    ab98:	e12fff1e 	bx	lr

0000ab9c <putk>:
    ab9c:	e92d4010 	push	{r4, lr}
    aba0:	e1a04000 	mov	r4, r0
    aba4:	e5d40000 	ldrb	r0, [r4]
    aba8:	e3500000 	cmp	r0, #0, 0
    abac:	0a000004 	beq	abc4 <putk+0x28>
    abb0:	e59f3014 	ldr	r3, [pc, #20]	; abcc <putk+0x30>
    abb4:	e5933000 	ldr	r3, [r3]
    abb8:	e12fff33 	blx	r3
    abbc:	e2844001 	add	r4, r4, #1, 0
    abc0:	eafffff7 	b	aba4 <putk+0x8>
    abc4:	e3a00001 	mov	r0, #1, 0
    abc8:	e8bd8010 	pop	{r4, pc}
    abcc:	0000c90c 	.word	0x0000c90c

0000abd0 <dev_barrier>:
    abd0:	ea000002 	b	abe0 <dsb>

0000abd4 <dmb>:
    abd4:	e3a00000 	mov	r0, #0, 0
    abd8:	ee070fba 	mcr	15, 0, r0, cr7, cr10, {5}
    abdc:	e12fff1e 	bx	lr

0000abe0 <dsb>:
    abe0:	ee070f9a 	mcr	15, 0, r0, cr7, cr10, {4}
    abe4:	e12fff1e 	bx	lr

0000abe8 <rpi_wait>:
    abe8:	e12fff1e 	bx	lr

0000abec <__code_end__>:
    abec:	00000000 	andeq	r0, r0, r0
